
main.elf:     file format elf32-littleriscv


Disassembly of section .text:

08000000 <_Z6jumpTov>:
 8000000:	5d80406f          	j	80045d8 <_Z13Reset_Handlerv>

08000004 <__Vectors>:
	...
 800000c:	08004544 00000000 00000000 00000000     DE..............
 800001c:	08004544 00000000 00000000 00000000     DE..............
	...
 8000044:	08004544 08004544 08004544 08004544     DE..DE..DE..DE..
 8000054:	08004544 08004544 08004544 08004544     DE..DE..DE..DE..
 8000064:	08004544 08004544 08004544 08004544     DE..DE..DE..DE..
 8000074:	08004544 08004544 08004544 08004544     DE..DE..DE..DE..
 8000084:	08004544 08004544 08004544 08004544     DE..DE..DE..DE..
 8000094:	08004544 08004544 08004544 08004544     DE..DE..DE..DE..
 80000a4:	08004544 08004544 08004544 08004544     DE..DE..DE..DE..
 80000b4:	08004544 08004544 08004544 08004544     DE..DE..DE..DE..
 80000c4:	08004544 08004544 08004544 08004544     DE..DE..DE..DE..
 80000d4:	08004544 08004544 08004544 08004544     DE..DE..DE..DE..
 80000e4:	08004544 08004544 08004544 08004544     DE..DE..DE..DE..
 80000f4:	08004544 00000000 00000000 00000000     DE..............
	...
 8000114:	08004544 08004544 08004544 08004544     DE..DE..DE..DE..
 8000124:	08004544 08004544 08004544 08004544     DE..DE..DE..DE..
 8000134:	08004544 08004544 08004544 00000000     DE..DE..DE......
 8000144:	00000000 08004544 08004544 08004544     ....DE..DE..DE..
 8000154:	08004544 08004544                       DE..DE..

0800015c <abort>:
 800015c:	1141                	addi	sp,sp,-16
 800015e:	4519                	li	a0,6
 8000160:	c606                	sw	ra,12(sp)
 8000162:	00001097          	auipc	ra,0x1
 8000166:	15a080e7          	jalr	346(ra) # 80012bc <raise>
 800016a:	4505                	li	a0,1
 800016c:	00005097          	auipc	ra,0x5
 8000170:	13e080e7          	jalr	318(ra) # 80052aa <_exit>

08000174 <__assert_func>:
 8000174:	1101                	addi	sp,sp,-32
 8000176:	cc22                	sw	s0,24(sp)
 8000178:	ca26                	sw	s1,20(sp)
 800017a:	c84a                	sw	s2,16(sp)
 800017c:	c64e                	sw	s3,12(sp)
 800017e:	ce06                	sw	ra,28(sp)
 8000180:	892a                	mv	s2,a0
 8000182:	89ae                	mv	s3,a1
 8000184:	8432                	mv	s0,a2
 8000186:	84b6                	mv	s1,a3
 8000188:	00005097          	auipc	ra,0x5
 800018c:	184080e7          	jalr	388(ra) # 800530c <__getreent>
 8000190:	4548                	lw	a0,12(a0)
 8000192:	c40d                	beqz	s0,80001bc <__assert_func+0x48>
 8000194:	0800a7b7          	lui	a5,0x800a
 8000198:	67878793          	addi	a5,a5,1656 # 800a678 <_ZTVSt9bad_alloc+0x14>
 800019c:	0800a5b7          	lui	a1,0x800a
 80001a0:	8822                	mv	a6,s0
 80001a2:	874e                	mv	a4,s3
 80001a4:	86ca                	mv	a3,s2
 80001a6:	8626                	mv	a2,s1
 80001a8:	68858593          	addi	a1,a1,1672 # 800a688 <_ZTVSt9bad_alloc+0x24>
 80001ac:	00000097          	auipc	ra,0x0
 80001b0:	47c080e7          	jalr	1148(ra) # 8000628 <fiprintf>
 80001b4:	00000097          	auipc	ra,0x0
 80001b8:	fa8080e7          	jalr	-88(ra) # 800015c <abort>
 80001bc:	0800a437          	lui	s0,0x800a
 80001c0:	24440793          	addi	a5,s0,580 # 800a244 <_ZTVN6miosix6DeviceE+0x10c>
 80001c4:	24440413          	addi	s0,s0,580
 80001c8:	bfd1                	j	800019c <__assert_func+0x28>

080001ca <__assert>:
 80001ca:	1141                	addi	sp,sp,-16
 80001cc:	86b2                	mv	a3,a2
 80001ce:	4601                	li	a2,0
 80001d0:	c606                	sw	ra,12(sp)
 80001d2:	00000097          	auipc	ra,0x0
 80001d6:	fa2080e7          	jalr	-94(ra) # 8000174 <__assert_func>

080001da <__cxa_atexit>:
 80001da:	86b2                	mv	a3,a2
 80001dc:	862e                	mv	a2,a1
 80001de:	85aa                	mv	a1,a0
 80001e0:	4509                	li	a0,2
 80001e2:	00005317          	auipc	t1,0x5
 80001e6:	0c430067          	jr	196(t1) # 80052a6 <__register_exitproc>

080001ea <std>:
 80001ea:	1141                	addi	sp,sp,-16
 80001ec:	c422                	sw	s0,8(sp)
 80001ee:	c606                	sw	ra,12(sp)
 80001f0:	842a                	mv	s0,a0
 80001f2:	00b51623          	sh	a1,12(a0)
 80001f6:	00c51723          	sh	a2,14(a0)
 80001fa:	00052023          	sw	zero,0(a0)
 80001fe:	00052223          	sw	zero,4(a0)
 8000202:	00052423          	sw	zero,8(a0)
 8000206:	06052c23          	sw	zero,120(a0)
 800020a:	00052823          	sw	zero,16(a0)
 800020e:	00052a23          	sw	zero,20(a0)
 8000212:	00052c23          	sw	zero,24(a0)
 8000216:	4621                	li	a2,8
 8000218:	4581                	li	a1,0
 800021a:	07050513          	addi	a0,a0,112
 800021e:	00001097          	auipc	ra,0x1
 8000222:	ff6080e7          	jalr	-10(ra) # 8001214 <memset>
 8000226:	080017b7          	lui	a5,0x8001
 800022a:	45a78793          	addi	a5,a5,1114 # 800145a <__sread>
 800022e:	d05c                	sw	a5,36(s0)
 8000230:	080017b7          	lui	a5,0x8001
 8000234:	4ac78793          	addi	a5,a5,1196 # 80014ac <__swrite>
 8000238:	d41c                	sw	a5,40(s0)
 800023a:	080017b7          	lui	a5,0x8001
 800023e:	50a78793          	addi	a5,a5,1290 # 800150a <__sseek>
 8000242:	d45c                	sw	a5,44(s0)
 8000244:	080017b7          	lui	a5,0x8001
 8000248:	55c78793          	addi	a5,a5,1372 # 800155c <__sclose>
 800024c:	40b2                	lw	ra,12(sp)
 800024e:	d000                	sw	s0,32(s0)
 8000250:	d81c                	sw	a5,48(s0)
 8000252:	06042023          	sw	zero,96(s0)
 8000256:	06042223          	sw	zero,100(s0)
 800025a:	06042423          	sw	zero,104(s0)
 800025e:	06042623          	sw	zero,108(s0)
 8000262:	4422                	lw	s0,8(sp)
 8000264:	0141                	addi	sp,sp,16
 8000266:	8082                	ret

08000268 <_cleanup_r>:
 8000268:	414c                	lw	a1,4(a0)
 800026a:	1141                	addi	sp,sp,-16
 800026c:	200017b7          	lui	a5,0x20001
 8000270:	c422                	sw	s0,8(sp)
 8000272:	c606                	sw	ra,12(sp)
 8000274:	a2878793          	addi	a5,a5,-1496 # 20000a28 <__sf>
 8000278:	842a                	mv	s0,a0
 800027a:	00f58663          	beq	a1,a5,8000286 <_cleanup_r+0x1e>
 800027e:	00002097          	auipc	ra,0x2
 8000282:	446080e7          	jalr	1094(ra) # 80026c4 <_fclose_r>
 8000286:	440c                	lw	a1,8(s0)
 8000288:	200017b7          	lui	a5,0x20001
 800028c:	aa878793          	addi	a5,a5,-1368 # 20000aa8 <__sf+0x80>
 8000290:	00f58763          	beq	a1,a5,800029e <_cleanup_r+0x36>
 8000294:	8522                	mv	a0,s0
 8000296:	00002097          	auipc	ra,0x2
 800029a:	42e080e7          	jalr	1070(ra) # 80026c4 <_fclose_r>
 800029e:	444c                	lw	a1,12(s0)
 80002a0:	200017b7          	lui	a5,0x20001
 80002a4:	b2878793          	addi	a5,a5,-1240 # 20000b28 <__sf+0x100>
 80002a8:	00f58763          	beq	a1,a5,80002b6 <_cleanup_r+0x4e>
 80002ac:	8522                	mv	a0,s0
 80002ae:	00002097          	auipc	ra,0x2
 80002b2:	416080e7          	jalr	1046(ra) # 80026c4 <_fclose_r>
 80002b6:	8522                	mv	a0,s0
 80002b8:	4422                	lw	s0,8(sp)
 80002ba:	40b2                	lw	ra,12(sp)
 80002bc:	080025b7          	lui	a1,0x8002
 80002c0:	6c458593          	addi	a1,a1,1732 # 80026c4 <_fclose_r>
 80002c4:	0141                	addi	sp,sp,16
 80002c6:	00000317          	auipc	t1,0x0
 80002ca:	40a30067          	jr	1034(t1) # 80006d0 <_fwalk_reent>

080002ce <__fp_lock>:
 80002ce:	5d3c                	lw	a5,120(a0)
 80002d0:	8b85                	andi	a5,a5,1
 80002d2:	e791                	bnez	a5,80002de <__fp_lock+0x10>
 80002d4:	00c55783          	lhu	a5,12(a0)
 80002d8:	2007f793          	andi	a5,a5,512
 80002dc:	c399                	beqz	a5,80002e2 <__fp_lock+0x14>
 80002de:	4501                	li	a0,0
 80002e0:	8082                	ret
 80002e2:	1141                	addi	sp,sp,-16
 80002e4:	06050513          	addi	a0,a0,96
 80002e8:	c606                	sw	ra,12(sp)
 80002ea:	00007097          	auipc	ra,0x7
 80002ee:	b26080e7          	jalr	-1242(ra) # 8006e10 <pthread_mutex_lock>
 80002f2:	40b2                	lw	ra,12(sp)
 80002f4:	4501                	li	a0,0
 80002f6:	0141                	addi	sp,sp,16
 80002f8:	8082                	ret

080002fa <__fp_unlock>:
 80002fa:	5d3c                	lw	a5,120(a0)
 80002fc:	8b85                	andi	a5,a5,1
 80002fe:	e791                	bnez	a5,800030a <__fp_unlock+0x10>
 8000300:	00c55783          	lhu	a5,12(a0)
 8000304:	2007f793          	andi	a5,a5,512
 8000308:	c399                	beqz	a5,800030e <__fp_unlock+0x14>
 800030a:	4501                	li	a0,0
 800030c:	8082                	ret
 800030e:	1141                	addi	sp,sp,-16
 8000310:	06050513          	addi	a0,a0,96
 8000314:	c606                	sw	ra,12(sp)
 8000316:	00007097          	auipc	ra,0x7
 800031a:	be2080e7          	jalr	-1054(ra) # 8006ef8 <pthread_mutex_unlock>
 800031e:	40b2                	lw	ra,12(sp)
 8000320:	4501                	li	a0,0
 8000322:	0141                	addi	sp,sp,16
 8000324:	8082                	ret

08000326 <__sfmoreglue>:
 8000326:	1141                	addi	sp,sp,-16
 8000328:	c226                	sw	s1,4(sp)
 800032a:	fff58493          	addi	s1,a1,-1
 800032e:	049e                	slli	s1,s1,0x7
 8000330:	c04a                	sw	s2,0(sp)
 8000332:	892e                	mv	s2,a1
 8000334:	09048593          	addi	a1,s1,144
 8000338:	c422                	sw	s0,8(sp)
 800033a:	c606                	sw	ra,12(sp)
 800033c:	00000097          	auipc	ra,0x0
 8000340:	68a080e7          	jalr	1674(ra) # 80009c6 <_malloc_r>
 8000344:	842a                	mv	s0,a0
 8000346:	cd11                	beqz	a0,8000362 <__sfmoreglue+0x3c>
 8000348:	0541                	addi	a0,a0,16
 800034a:	00042023          	sw	zero,0(s0)
 800034e:	01242223          	sw	s2,4(s0)
 8000352:	c408                	sw	a0,8(s0)
 8000354:	08048613          	addi	a2,s1,128
 8000358:	4581                	li	a1,0
 800035a:	00001097          	auipc	ra,0x1
 800035e:	eba080e7          	jalr	-326(ra) # 8001214 <memset>
 8000362:	40b2                	lw	ra,12(sp)
 8000364:	8522                	mv	a0,s0
 8000366:	4422                	lw	s0,8(sp)
 8000368:	4492                	lw	s1,4(sp)
 800036a:	4902                	lw	s2,0(sp)
 800036c:	0141                	addi	sp,sp,16
 800036e:	8082                	ret

08000370 <_cleanup>:
 8000370:	200017b7          	lui	a5,0x20001
 8000374:	bb87a503          	lw	a0,-1096(a5) # 20000bb8 <_global_impure_ptr>
 8000378:	00000317          	auipc	t1,0x0
 800037c:	ef030067          	jr	-272(t1) # 8000268 <_cleanup_r>

08000380 <__sinit>:
 8000380:	1101                	addi	sp,sp,-32
 8000382:	ca26                	sw	s1,20(sp)
 8000384:	200014b7          	lui	s1,0x20001
 8000388:	cc22                	sw	s0,24(sp)
 800038a:	842a                	mv	s0,a0
 800038c:	92c48513          	addi	a0,s1,-1748 # 2000092c <__sinit_recursive_mutex>
 8000390:	ce06                	sw	ra,28(sp)
 8000392:	c84a                	sw	s2,16(sp)
 8000394:	c64e                	sw	s3,12(sp)
 8000396:	00007097          	auipc	ra,0x7
 800039a:	a7a080e7          	jalr	-1414(ra) # 8006e10 <pthread_mutex_lock>
 800039e:	4c1c                	lw	a5,24(s0)
 80003a0:	e7a9                	bnez	a5,80003ea <__sinit+0x6a>
 80003a2:	200017b7          	lui	a5,0x20001
 80003a6:	bb87a703          	lw	a4,-1096(a5) # 20000bb8 <_global_impure_ptr>
 80003aa:	080007b7          	lui	a5,0x8000
 80003ae:	26878793          	addi	a5,a5,616 # 8000268 <_cleanup_r>
 80003b2:	d01c                	sw	a5,32(s0)
 80003b4:	02042e23          	sw	zero,60(s0)
 80003b8:	04042023          	sw	zero,64(s0)
 80003bc:	04042223          	sw	zero,68(s0)
 80003c0:	04870163          	beq	a4,s0,8000402 <__sinit+0x82>
 80003c4:	20001537          	lui	a0,0x20001
 80003c8:	a2850793          	addi	a5,a0,-1496 # 20000a28 <__sf>
 80003cc:	5394                	lw	a3,32(a5)
 80003ce:	200019b7          	lui	s3,0x20001
 80003d2:	20001937          	lui	s2,0x20001
 80003d6:	aa898593          	addi	a1,s3,-1368 # 20000aa8 <__sf+0x80>
 80003da:	b2890613          	addi	a2,s2,-1240 # 20000b28 <__sf+0x100>
 80003de:	c05c                	sw	a5,4(s0)
 80003e0:	c40c                	sw	a1,8(s0)
 80003e2:	c450                	sw	a2,12(s0)
 80003e4:	c295                	beqz	a3,8000408 <__sinit+0x88>
 80003e6:	4785                	li	a5,1
 80003e8:	cc1c                	sw	a5,24(s0)
 80003ea:	4462                	lw	s0,24(sp)
 80003ec:	40f2                	lw	ra,28(sp)
 80003ee:	4942                	lw	s2,16(sp)
 80003f0:	49b2                	lw	s3,12(sp)
 80003f2:	92c48513          	addi	a0,s1,-1748
 80003f6:	44d2                	lw	s1,20(sp)
 80003f8:	6105                	addi	sp,sp,32
 80003fa:	00007317          	auipc	t1,0x7
 80003fe:	afe30067          	jr	-1282(t1) # 8006ef8 <pthread_mutex_unlock>
 8000402:	4785                	li	a5,1
 8000404:	cf1c                	sw	a5,24(a4)
 8000406:	bf7d                	j	80003c4 <__sinit+0x44>
 8000408:	468d                	li	a3,3
 800040a:	c334                	sw	a3,64(a4)
 800040c:	c37c                	sw	a5,68(a4)
 800040e:	4601                	li	a2,0
 8000410:	4591                	li	a1,4
 8000412:	a2850513          	addi	a0,a0,-1496
 8000416:	00000097          	auipc	ra,0x0
 800041a:	dd4080e7          	jalr	-556(ra) # 80001ea <std>
 800041e:	aa898513          	addi	a0,s3,-1368
 8000422:	4605                	li	a2,1
 8000424:	45a1                	li	a1,8
 8000426:	00000097          	auipc	ra,0x0
 800042a:	dc4080e7          	jalr	-572(ra) # 80001ea <std>
 800042e:	4609                	li	a2,2
 8000430:	45c9                	li	a1,18
 8000432:	b2890513          	addi	a0,s2,-1240
 8000436:	00000097          	auipc	ra,0x0
 800043a:	db4080e7          	jalr	-588(ra) # 80001ea <std>
 800043e:	b765                	j	80003e6 <__sinit+0x66>

08000440 <__sfp>:
 8000440:	7179                	addi	sp,sp,-48
 8000442:	ce4e                	sw	s3,28(sp)
 8000444:	cc52                	sw	s4,24(sp)
 8000446:	006c                	addi	a1,sp,12
 8000448:	8a2a                	mv	s4,a0
 800044a:	200019b7          	lui	s3,0x20001
 800044e:	4505                	li	a0,1
 8000450:	d606                	sw	ra,44(sp)
 8000452:	d04a                	sw	s2,32(sp)
 8000454:	d422                	sw	s0,40(sp)
 8000456:	d226                	sw	s1,36(sp)
 8000458:	93c98993          	addi	s3,s3,-1732 # 2000093c <__sfp_recursive_mutex>
 800045c:	00007097          	auipc	ra,0x7
 8000460:	b60080e7          	jalr	-1184(ra) # 8006fbc <pthread_setcancelstate>
 8000464:	854e                	mv	a0,s3
 8000466:	00007097          	auipc	ra,0x7
 800046a:	9aa080e7          	jalr	-1622(ra) # 8006e10 <pthread_mutex_lock>
 800046e:	200017b7          	lui	a5,0x20001
 8000472:	bb87a903          	lw	s2,-1096(a5) # 20000bb8 <_global_impure_ptr>
 8000476:	01892783          	lw	a5,24(s2)
 800047a:	c7d5                	beqz	a5,8000526 <__sfp+0xe6>
 800047c:	03c90913          	addi	s2,s2,60
 8000480:	54fd                	li	s1,-1
 8000482:	00492783          	lw	a5,4(s2)
 8000486:	00892403          	lw	s0,8(s2)
 800048a:	17fd                	addi	a5,a5,-1
 800048c:	0007d763          	bgez	a5,800049a <__sfp+0x5a>
 8000490:	a071                	j	800051c <__sfp+0xdc>
 8000492:	08040413          	addi	s0,s0,128
 8000496:	08978363          	beq	a5,s1,800051c <__sfp+0xdc>
 800049a:	00c41703          	lh	a4,12(s0)
 800049e:	17fd                	addi	a5,a5,-1
 80004a0:	fb6d                	bnez	a4,8000492 <__sfp+0x52>
 80004a2:	77c1                	lui	a5,0xffff0
 80004a4:	0785                	addi	a5,a5,1
 80004a6:	c45c                	sw	a5,12(s0)
 80004a8:	06042c23          	sw	zero,120(s0)
 80004ac:	06042023          	sw	zero,96(s0)
 80004b0:	06042223          	sw	zero,100(s0)
 80004b4:	06042423          	sw	zero,104(s0)
 80004b8:	06042623          	sw	zero,108(s0)
 80004bc:	854e                	mv	a0,s3
 80004be:	00007097          	auipc	ra,0x7
 80004c2:	a3a080e7          	jalr	-1478(ra) # 8006ef8 <pthread_mutex_unlock>
 80004c6:	4532                	lw	a0,12(sp)
 80004c8:	006c                	addi	a1,sp,12
 80004ca:	00007097          	auipc	ra,0x7
 80004ce:	af2080e7          	jalr	-1294(ra) # 8006fbc <pthread_setcancelstate>
 80004d2:	4621                	li	a2,8
 80004d4:	00042023          	sw	zero,0(s0)
 80004d8:	00042423          	sw	zero,8(s0)
 80004dc:	00042223          	sw	zero,4(s0)
 80004e0:	00042823          	sw	zero,16(s0)
 80004e4:	00042a23          	sw	zero,20(s0)
 80004e8:	00042c23          	sw	zero,24(s0)
 80004ec:	4581                	li	a1,0
 80004ee:	07040513          	addi	a0,s0,112
 80004f2:	00001097          	auipc	ra,0x1
 80004f6:	d22080e7          	jalr	-734(ra) # 8001214 <memset>
 80004fa:	02042a23          	sw	zero,52(s0)
 80004fe:	02042c23          	sw	zero,56(s0)
 8000502:	04042423          	sw	zero,72(s0)
 8000506:	04042623          	sw	zero,76(s0)
 800050a:	50b2                	lw	ra,44(sp)
 800050c:	8522                	mv	a0,s0
 800050e:	5422                	lw	s0,40(sp)
 8000510:	5492                	lw	s1,36(sp)
 8000512:	5902                	lw	s2,32(sp)
 8000514:	49f2                	lw	s3,28(sp)
 8000516:	4a62                	lw	s4,24(sp)
 8000518:	6145                	addi	sp,sp,48
 800051a:	8082                	ret
 800051c:	00092403          	lw	s0,0(s2)
 8000520:	c809                	beqz	s0,8000532 <__sfp+0xf2>
 8000522:	8922                	mv	s2,s0
 8000524:	bfb9                	j	8000482 <__sfp+0x42>
 8000526:	854a                	mv	a0,s2
 8000528:	00000097          	auipc	ra,0x0
 800052c:	e58080e7          	jalr	-424(ra) # 8000380 <__sinit>
 8000530:	b7b1                	j	800047c <__sfp+0x3c>
 8000532:	4591                	li	a1,4
 8000534:	8552                	mv	a0,s4
 8000536:	00000097          	auipc	ra,0x0
 800053a:	df0080e7          	jalr	-528(ra) # 8000326 <__sfmoreglue>
 800053e:	00a92023          	sw	a0,0(s2)
 8000542:	842a                	mv	s0,a0
 8000544:	fd79                	bnez	a0,8000522 <__sfp+0xe2>
 8000546:	854e                	mv	a0,s3
 8000548:	00007097          	auipc	ra,0x7
 800054c:	9b0080e7          	jalr	-1616(ra) # 8006ef8 <pthread_mutex_unlock>
 8000550:	4532                	lw	a0,12(sp)
 8000552:	006c                	addi	a1,sp,12
 8000554:	00007097          	auipc	ra,0x7
 8000558:	a68080e7          	jalr	-1432(ra) # 8006fbc <pthread_setcancelstate>
 800055c:	47b1                	li	a5,12
 800055e:	00fa2023          	sw	a5,0(s4)
 8000562:	b765                	j	800050a <__sfp+0xca>

08000564 <__sfp_lock_acquire>:
 8000564:	20001537          	lui	a0,0x20001
 8000568:	93c50513          	addi	a0,a0,-1732 # 2000093c <__sfp_recursive_mutex>
 800056c:	00007317          	auipc	t1,0x7
 8000570:	8a430067          	jr	-1884(t1) # 8006e10 <pthread_mutex_lock>

08000574 <__sfp_lock_release>:
 8000574:	20001537          	lui	a0,0x20001
 8000578:	93c50513          	addi	a0,a0,-1732 # 2000093c <__sfp_recursive_mutex>
 800057c:	00007317          	auipc	t1,0x7
 8000580:	97c30067          	jr	-1668(t1) # 8006ef8 <pthread_mutex_unlock>

08000584 <__sinit_lock_acquire>:
 8000584:	20001537          	lui	a0,0x20001
 8000588:	92c50513          	addi	a0,a0,-1748 # 2000092c <__sinit_recursive_mutex>
 800058c:	00007317          	auipc	t1,0x7
 8000590:	88430067          	jr	-1916(t1) # 8006e10 <pthread_mutex_lock>

08000594 <__sinit_lock_release>:
 8000594:	20001537          	lui	a0,0x20001
 8000598:	92c50513          	addi	a0,a0,-1748 # 2000092c <__sinit_recursive_mutex>
 800059c:	00007317          	auipc	t1,0x7
 80005a0:	95c30067          	jr	-1700(t1) # 8006ef8 <pthread_mutex_unlock>

080005a4 <__fp_lock_all>:
 80005a4:	20001537          	lui	a0,0x20001
 80005a8:	1141                	addi	sp,sp,-16
 80005aa:	93c50513          	addi	a0,a0,-1732 # 2000093c <__sfp_recursive_mutex>
 80005ae:	c606                	sw	ra,12(sp)
 80005b0:	00007097          	auipc	ra,0x7
 80005b4:	860080e7          	jalr	-1952(ra) # 8006e10 <pthread_mutex_lock>
 80005b8:	00005097          	auipc	ra,0x5
 80005bc:	d54080e7          	jalr	-684(ra) # 800530c <__getreent>
 80005c0:	40b2                	lw	ra,12(sp)
 80005c2:	080005b7          	lui	a1,0x8000
 80005c6:	2ce58593          	addi	a1,a1,718 # 80002ce <__fp_lock>
 80005ca:	0141                	addi	sp,sp,16
 80005cc:	00000317          	auipc	t1,0x0
 80005d0:	09830067          	jr	152(t1) # 8000664 <_fwalk>

080005d4 <__fp_unlock_all>:
 80005d4:	1141                	addi	sp,sp,-16
 80005d6:	c606                	sw	ra,12(sp)
 80005d8:	00005097          	auipc	ra,0x5
 80005dc:	d34080e7          	jalr	-716(ra) # 800530c <__getreent>
 80005e0:	080005b7          	lui	a1,0x8000
 80005e4:	2fa58593          	addi	a1,a1,762 # 80002fa <__fp_unlock>
 80005e8:	00000097          	auipc	ra,0x0
 80005ec:	07c080e7          	jalr	124(ra) # 8000664 <_fwalk>
 80005f0:	40b2                	lw	ra,12(sp)
 80005f2:	20001537          	lui	a0,0x20001
 80005f6:	93c50513          	addi	a0,a0,-1732 # 2000093c <__sfp_recursive_mutex>
 80005fa:	0141                	addi	sp,sp,16
 80005fc:	00007317          	auipc	t1,0x7
 8000600:	8fc30067          	jr	-1796(t1) # 8006ef8 <pthread_mutex_unlock>

08000604 <_fiprintf_r>:
 8000604:	7139                	addi	sp,sp,-64
 8000606:	02c10313          	addi	t1,sp,44
 800060a:	d636                	sw	a3,44(sp)
 800060c:	869a                	mv	a3,t1
 800060e:	ce06                	sw	ra,28(sp)
 8000610:	d83a                	sw	a4,48(sp)
 8000612:	da3e                	sw	a5,52(sp)
 8000614:	dc42                	sw	a6,56(sp)
 8000616:	de46                	sw	a7,60(sp)
 8000618:	c61a                	sw	t1,12(sp)
 800061a:	00001097          	auipc	ra,0x1
 800061e:	184080e7          	jalr	388(ra) # 800179e <_vfiprintf_r>
 8000622:	40f2                	lw	ra,28(sp)
 8000624:	6121                	addi	sp,sp,64
 8000626:	8082                	ret

08000628 <fiprintf>:
 8000628:	7139                	addi	sp,sp,-64
 800062a:	da3e                	sw	a5,52(sp)
 800062c:	103c                	addi	a5,sp,40
 800062e:	ce06                	sw	ra,28(sp)
 8000630:	cc22                	sw	s0,24(sp)
 8000632:	ca26                	sw	s1,20(sp)
 8000634:	842a                	mv	s0,a0
 8000636:	84ae                	mv	s1,a1
 8000638:	d432                	sw	a2,40(sp)
 800063a:	d636                	sw	a3,44(sp)
 800063c:	d83a                	sw	a4,48(sp)
 800063e:	dc42                	sw	a6,56(sp)
 8000640:	de46                	sw	a7,60(sp)
 8000642:	c63e                	sw	a5,12(sp)
 8000644:	00005097          	auipc	ra,0x5
 8000648:	cc8080e7          	jalr	-824(ra) # 800530c <__getreent>
 800064c:	46b2                	lw	a3,12(sp)
 800064e:	8626                	mv	a2,s1
 8000650:	85a2                	mv	a1,s0
 8000652:	00001097          	auipc	ra,0x1
 8000656:	14c080e7          	jalr	332(ra) # 800179e <_vfiprintf_r>
 800065a:	40f2                	lw	ra,28(sp)
 800065c:	4462                	lw	s0,24(sp)
 800065e:	44d2                	lw	s1,20(sp)
 8000660:	6121                	addi	sp,sp,64
 8000662:	8082                	ret

08000664 <_fwalk>:
 8000664:	1101                	addi	sp,sp,-32
 8000666:	c84a                	sw	s2,16(sp)
 8000668:	c64e                	sw	s3,12(sp)
 800066a:	c452                	sw	s4,8(sp)
 800066c:	c256                	sw	s5,4(sp)
 800066e:	c05a                	sw	s6,0(sp)
 8000670:	ce06                	sw	ra,28(sp)
 8000672:	cc22                	sw	s0,24(sp)
 8000674:	ca26                	sw	s1,20(sp)
 8000676:	8b2e                	mv	s6,a1
 8000678:	03c50a93          	addi	s5,a0,60
 800067c:	4a01                	li	s4,0
 800067e:	4985                	li	s3,1
 8000680:	597d                	li	s2,-1
 8000682:	004aa483          	lw	s1,4(s5)
 8000686:	008aa403          	lw	s0,8(s5)
 800068a:	14fd                	addi	s1,s1,-1
 800068c:	0204c363          	bltz	s1,80006b2 <_fwalk+0x4e>
 8000690:	00c45783          	lhu	a5,12(s0)
 8000694:	14fd                	addi	s1,s1,-1
 8000696:	00f9fa63          	bgeu	s3,a5,80006aa <_fwalk+0x46>
 800069a:	00e41783          	lh	a5,14(s0)
 800069e:	8522                	mv	a0,s0
 80006a0:	01278563          	beq	a5,s2,80006aa <_fwalk+0x46>
 80006a4:	9b02                	jalr	s6
 80006a6:	00aa6a33          	or	s4,s4,a0
 80006aa:	08040413          	addi	s0,s0,128
 80006ae:	ff2491e3          	bne	s1,s2,8000690 <_fwalk+0x2c>
 80006b2:	000aaa83          	lw	s5,0(s5)
 80006b6:	fc0a96e3          	bnez	s5,8000682 <_fwalk+0x1e>
 80006ba:	40f2                	lw	ra,28(sp)
 80006bc:	4462                	lw	s0,24(sp)
 80006be:	44d2                	lw	s1,20(sp)
 80006c0:	4942                	lw	s2,16(sp)
 80006c2:	49b2                	lw	s3,12(sp)
 80006c4:	4a92                	lw	s5,4(sp)
 80006c6:	4b02                	lw	s6,0(sp)
 80006c8:	8552                	mv	a0,s4
 80006ca:	4a22                	lw	s4,8(sp)
 80006cc:	6105                	addi	sp,sp,32
 80006ce:	8082                	ret

080006d0 <_fwalk_reent>:
 80006d0:	7179                	addi	sp,sp,-48
 80006d2:	d04a                	sw	s2,32(sp)
 80006d4:	ce4e                	sw	s3,28(sp)
 80006d6:	cc52                	sw	s4,24(sp)
 80006d8:	ca56                	sw	s5,20(sp)
 80006da:	c85a                	sw	s6,16(sp)
 80006dc:	c65e                	sw	s7,12(sp)
 80006de:	d606                	sw	ra,44(sp)
 80006e0:	d422                	sw	s0,40(sp)
 80006e2:	d226                	sw	s1,36(sp)
 80006e4:	8aaa                	mv	s5,a0
 80006e6:	8bae                	mv	s7,a1
 80006e8:	03c50b13          	addi	s6,a0,60
 80006ec:	4a01                	li	s4,0
 80006ee:	4985                	li	s3,1
 80006f0:	597d                	li	s2,-1
 80006f2:	004b2483          	lw	s1,4(s6)
 80006f6:	008b2403          	lw	s0,8(s6)
 80006fa:	14fd                	addi	s1,s1,-1
 80006fc:	0204c463          	bltz	s1,8000724 <_fwalk_reent+0x54>
 8000700:	00c45783          	lhu	a5,12(s0)
 8000704:	14fd                	addi	s1,s1,-1
 8000706:	00f9fb63          	bgeu	s3,a5,800071c <_fwalk_reent+0x4c>
 800070a:	00e41783          	lh	a5,14(s0)
 800070e:	85a2                	mv	a1,s0
 8000710:	8556                	mv	a0,s5
 8000712:	01278563          	beq	a5,s2,800071c <_fwalk_reent+0x4c>
 8000716:	9b82                	jalr	s7
 8000718:	00aa6a33          	or	s4,s4,a0
 800071c:	08040413          	addi	s0,s0,128
 8000720:	ff2490e3          	bne	s1,s2,8000700 <_fwalk_reent+0x30>
 8000724:	000b2b03          	lw	s6,0(s6)
 8000728:	fc0b15e3          	bnez	s6,80006f2 <_fwalk_reent+0x22>
 800072c:	50b2                	lw	ra,44(sp)
 800072e:	5422                	lw	s0,40(sp)
 8000730:	5492                	lw	s1,36(sp)
 8000732:	5902                	lw	s2,32(sp)
 8000734:	49f2                	lw	s3,28(sp)
 8000736:	4ad2                	lw	s5,20(sp)
 8000738:	4b42                	lw	s6,16(sp)
 800073a:	4bb2                	lw	s7,12(sp)
 800073c:	8552                	mv	a0,s4
 800073e:	4a62                	lw	s4,24(sp)
 8000740:	6145                	addi	sp,sp,48
 8000742:	8082                	ret

08000744 <__swhatbuf_r>:
 8000744:	7159                	addi	sp,sp,-112
 8000746:	d4a2                	sw	s0,104(sp)
 8000748:	842e                	mv	s0,a1
 800074a:	00e59583          	lh	a1,14(a1)
 800074e:	d2a6                	sw	s1,100(sp)
 8000750:	d0ca                	sw	s2,96(sp)
 8000752:	d686                	sw	ra,108(sp)
 8000754:	8932                	mv	s2,a2
 8000756:	84b6                	mv	s1,a3
 8000758:	0405c563          	bltz	a1,80007a2 <__swhatbuf_r+0x5e>
 800075c:	860a                	mv	a2,sp
 800075e:	00005097          	auipc	ra,0x5
 8000762:	0ea080e7          	jalr	234(ra) # 8005848 <_fstat_r>
 8000766:	02054e63          	bltz	a0,80007a2 <__swhatbuf_r+0x5e>
 800076a:	47a2                	lw	a5,8(sp)
 800076c:	673d                	lui	a4,0xf
 800076e:	46b6                	lw	a3,76(sp)
 8000770:	8f7d                	and	a4,a4,a5
 8000772:	77f9                	lui	a5,0xffffe
 8000774:	97ba                	add	a5,a5,a4
 8000776:	0017b793          	seqz	a5,a5
 800077a:	c09c                	sw	a5,0(s1)
 800077c:	06d05063          	blez	a3,80007dc <__swhatbuf_r+0x98>
 8000780:	00d92023          	sw	a3,0(s2)
 8000784:	c834                	sw	a3,80(s0)
 8000786:	67a1                	lui	a5,0x8
 8000788:	40000513          	li	a0,1024
 800078c:	02f70763          	beq	a4,a5,80007ba <__swhatbuf_r+0x76>
 8000790:	6505                	lui	a0,0x1
 8000792:	80050513          	addi	a0,a0,-2048 # 800 <_main_stack_size+0x400>
 8000796:	50b6                	lw	ra,108(sp)
 8000798:	5426                	lw	s0,104(sp)
 800079a:	5496                	lw	s1,100(sp)
 800079c:	5906                	lw	s2,96(sp)
 800079e:	6165                	addi	sp,sp,112
 80007a0:	8082                	ret
 80007a2:	00c45783          	lhu	a5,12(s0)
 80007a6:	0004a023          	sw	zero,0(s1)
 80007aa:	0807f793          	andi	a5,a5,128
 80007ae:	ef81                	bnez	a5,80007c6 <__swhatbuf_r+0x82>
 80007b0:	10000793          	li	a5,256
 80007b4:	00f92023          	sw	a5,0(s2)
 80007b8:	4501                	li	a0,0
 80007ba:	50b6                	lw	ra,108(sp)
 80007bc:	5426                	lw	s0,104(sp)
 80007be:	5496                	lw	s1,100(sp)
 80007c0:	5906                	lw	s2,96(sp)
 80007c2:	6165                	addi	sp,sp,112
 80007c4:	8082                	ret
 80007c6:	50b6                	lw	ra,108(sp)
 80007c8:	5426                	lw	s0,104(sp)
 80007ca:	04000793          	li	a5,64
 80007ce:	00f92023          	sw	a5,0(s2)
 80007d2:	5496                	lw	s1,100(sp)
 80007d4:	5906                	lw	s2,96(sp)
 80007d6:	4501                	li	a0,0
 80007d8:	6165                	addi	sp,sp,112
 80007da:	8082                	ret
 80007dc:	10000793          	li	a5,256
 80007e0:	6505                	lui	a0,0x1
 80007e2:	00f92023          	sw	a5,0(s2)
 80007e6:	80050513          	addi	a0,a0,-2048 # 800 <_main_stack_size+0x400>
 80007ea:	b775                	j	8000796 <__swhatbuf_r+0x52>

080007ec <__smakebuf_r>:
 80007ec:	00c5d783          	lhu	a5,12(a1)
 80007f0:	1101                	addi	sp,sp,-32
 80007f2:	cc22                	sw	s0,24(sp)
 80007f4:	ce06                	sw	ra,28(sp)
 80007f6:	ca26                	sw	s1,20(sp)
 80007f8:	c84a                	sw	s2,16(sp)
 80007fa:	8b89                	andi	a5,a5,2
 80007fc:	842e                	mv	s0,a1
 80007fe:	cf89                	beqz	a5,8000818 <__smakebuf_r+0x2c>
 8000800:	04758793          	addi	a5,a1,71
 8000804:	c19c                	sw	a5,0(a1)
 8000806:	c99c                	sw	a5,16(a1)
 8000808:	4785                	li	a5,1
 800080a:	c9dc                	sw	a5,20(a1)
 800080c:	40f2                	lw	ra,28(sp)
 800080e:	4462                	lw	s0,24(sp)
 8000810:	44d2                	lw	s1,20(sp)
 8000812:	4942                	lw	s2,16(sp)
 8000814:	6105                	addi	sp,sp,32
 8000816:	8082                	ret
 8000818:	0074                	addi	a3,sp,12
 800081a:	0030                	addi	a2,sp,8
 800081c:	84aa                	mv	s1,a0
 800081e:	00000097          	auipc	ra,0x0
 8000822:	f26080e7          	jalr	-218(ra) # 8000744 <__swhatbuf_r>
 8000826:	45a2                	lw	a1,8(sp)
 8000828:	892a                	mv	s2,a0
 800082a:	8526                	mv	a0,s1
 800082c:	00000097          	auipc	ra,0x0
 8000830:	19a080e7          	jalr	410(ra) # 80009c6 <_malloc_r>
 8000834:	00c41783          	lh	a5,12(s0)
 8000838:	c915                	beqz	a0,800086c <__smakebuf_r+0x80>
 800083a:	08000737          	lui	a4,0x8000
 800083e:	26870713          	addi	a4,a4,616 # 8000268 <_cleanup_r>
 8000842:	d098                	sw	a4,32(s1)
 8000844:	4722                	lw	a4,8(sp)
 8000846:	46b2                	lw	a3,12(sp)
 8000848:	0807e793          	ori	a5,a5,128
 800084c:	00f41623          	sh	a5,12(s0)
 8000850:	c008                	sw	a0,0(s0)
 8000852:	c808                	sw	a0,16(s0)
 8000854:	c858                	sw	a4,20(s0)
 8000856:	ea95                	bnez	a3,800088a <__smakebuf_r+0x9e>
 8000858:	0127e7b3          	or	a5,a5,s2
 800085c:	40f2                	lw	ra,28(sp)
 800085e:	00f41623          	sh	a5,12(s0)
 8000862:	4462                	lw	s0,24(sp)
 8000864:	44d2                	lw	s1,20(sp)
 8000866:	4942                	lw	s2,16(sp)
 8000868:	6105                	addi	sp,sp,32
 800086a:	8082                	ret
 800086c:	2007f713          	andi	a4,a5,512
 8000870:	ff51                	bnez	a4,800080c <__smakebuf_r+0x20>
 8000872:	9bf1                	andi	a5,a5,-4
 8000874:	0027e793          	ori	a5,a5,2
 8000878:	04740713          	addi	a4,s0,71
 800087c:	00f41623          	sh	a5,12(s0)
 8000880:	4785                	li	a5,1
 8000882:	c018                	sw	a4,0(s0)
 8000884:	c818                	sw	a4,16(s0)
 8000886:	c85c                	sw	a5,20(s0)
 8000888:	b751                	j	800080c <__smakebuf_r+0x20>
 800088a:	00e41583          	lh	a1,14(s0)
 800088e:	8526                	mv	a0,s1
 8000890:	00005097          	auipc	ra,0x5
 8000894:	10e080e7          	jalr	270(ra) # 800599e <_isatty_r>
 8000898:	e501                	bnez	a0,80008a0 <__smakebuf_r+0xb4>
 800089a:	00c41783          	lh	a5,12(s0)
 800089e:	bf6d                	j	8000858 <__smakebuf_r+0x6c>
 80008a0:	00c45703          	lhu	a4,12(s0)
 80008a4:	9b71                	andi	a4,a4,-4
 80008a6:	00176713          	ori	a4,a4,1
 80008aa:	01071793          	slli	a5,a4,0x10
 80008ae:	87c1                	srai	a5,a5,0x10
 80008b0:	b765                	j	8000858 <__smakebuf_r+0x6c>

080008b2 <__malloc_update_mallinfo>:
 80008b2:	20000537          	lui	a0,0x20000
 80008b6:	45050513          	addi	a0,a0,1104 # 20000450 <__malloc_av_>
 80008ba:	451c                	lw	a5,8(a0)
 80008bc:	200005b7          	lui	a1,0x20000
 80008c0:	45858593          	addi	a1,a1,1112 # 20000458 <__malloc_av_+0x8>
 80008c4:	0047a803          	lw	a6,4(a5) # 8004 <_main_stack_size+0x7c04>
 80008c8:	40050513          	addi	a0,a0,1024
 80008cc:	ffc87813          	andi	a6,a6,-4
 80008d0:	01082693          	slti	a3,a6,16
 80008d4:	8642                	mv	a2,a6
 80008d6:	0016c693          	xori	a3,a3,1
 80008da:	45dc                	lw	a5,12(a1)
 80008dc:	00b78963          	beq	a5,a1,80008ee <__malloc_update_mallinfo+0x3c>
 80008e0:	43d8                	lw	a4,4(a5)
 80008e2:	47dc                	lw	a5,12(a5)
 80008e4:	0685                	addi	a3,a3,1
 80008e6:	9b71                	andi	a4,a4,-4
 80008e8:	963a                	add	a2,a2,a4
 80008ea:	feb79be3          	bne	a5,a1,80008e0 <__malloc_update_mallinfo+0x2e>
 80008ee:	05a1                	addi	a1,a1,8
 80008f0:	feb515e3          	bne	a0,a1,80008da <__malloc_update_mallinfo+0x28>
 80008f4:	200017b7          	lui	a5,0x20001
 80008f8:	94c78793          	addi	a5,a5,-1716 # 2000094c <__malloc_current_mallinfo>
 80008fc:	4398                	lw	a4,0(a5)
 80008fe:	d390                	sw	a2,32(a5)
 8000900:	c3d4                	sw	a3,4(a5)
 8000902:	40c70633          	sub	a2,a4,a2
 8000906:	cfd0                	sw	a2,28(a5)
 8000908:	0307a223          	sw	a6,36(a5)
 800090c:	8082                	ret

0800090e <_mallinfo_r>:
 800090e:	1141                	addi	sp,sp,-16
 8000910:	c422                	sw	s0,8(sp)
 8000912:	842a                	mv	s0,a0
 8000914:	852e                	mv	a0,a1
 8000916:	c606                	sw	ra,12(sp)
 8000918:	c226                	sw	s1,4(sp)
 800091a:	84ae                	mv	s1,a1
 800091c:	00005097          	auipc	ra,0x5
 8000920:	9e0080e7          	jalr	-1568(ra) # 80052fc <__malloc_lock>
 8000924:	00000097          	auipc	ra,0x0
 8000928:	f8e080e7          	jalr	-114(ra) # 80008b2 <__malloc_update_mallinfo>
 800092c:	200017b7          	lui	a5,0x20001
 8000930:	94c78793          	addi	a5,a5,-1716 # 2000094c <__malloc_current_mallinfo>
 8000934:	0007ae83          	lw	t4,0(a5)
 8000938:	0047ae03          	lw	t3,4(a5)
 800093c:	0087a303          	lw	t1,8(a5)
 8000940:	00c7a883          	lw	a7,12(a5)
 8000944:	0107a803          	lw	a6,16(a5)
 8000948:	4bcc                	lw	a1,20(a5)
 800094a:	4f90                	lw	a2,24(a5)
 800094c:	4fd4                	lw	a3,28(a5)
 800094e:	5398                	lw	a4,32(a5)
 8000950:	53dc                	lw	a5,36(a5)
 8000952:	8526                	mv	a0,s1
 8000954:	01d42023          	sw	t4,0(s0)
 8000958:	01c42223          	sw	t3,4(s0)
 800095c:	00642423          	sw	t1,8(s0)
 8000960:	01142623          	sw	a7,12(s0)
 8000964:	01042823          	sw	a6,16(s0)
 8000968:	c84c                	sw	a1,20(s0)
 800096a:	cc10                	sw	a2,24(s0)
 800096c:	cc54                	sw	a3,28(s0)
 800096e:	d018                	sw	a4,32(s0)
 8000970:	d05c                	sw	a5,36(s0)
 8000972:	00005097          	auipc	ra,0x5
 8000976:	992080e7          	jalr	-1646(ra) # 8005304 <__malloc_unlock>
 800097a:	40b2                	lw	ra,12(sp)
 800097c:	8522                	mv	a0,s0
 800097e:	4422                	lw	s0,8(sp)
 8000980:	4492                	lw	s1,4(sp)
 8000982:	0141                	addi	sp,sp,16
 8000984:	8082                	ret

08000986 <malloc>:
 8000986:	1141                	addi	sp,sp,-16
 8000988:	c422                	sw	s0,8(sp)
 800098a:	c606                	sw	ra,12(sp)
 800098c:	842a                	mv	s0,a0
 800098e:	00005097          	auipc	ra,0x5
 8000992:	97e080e7          	jalr	-1666(ra) # 800530c <__getreent>
 8000996:	85a2                	mv	a1,s0
 8000998:	4422                	lw	s0,8(sp)
 800099a:	40b2                	lw	ra,12(sp)
 800099c:	0141                	addi	sp,sp,16
 800099e:	00000317          	auipc	t1,0x0
 80009a2:	02830067          	jr	40(t1) # 80009c6 <_malloc_r>

080009a6 <free>:
 80009a6:	1141                	addi	sp,sp,-16
 80009a8:	c422                	sw	s0,8(sp)
 80009aa:	c606                	sw	ra,12(sp)
 80009ac:	842a                	mv	s0,a0
 80009ae:	00005097          	auipc	ra,0x5
 80009b2:	95e080e7          	jalr	-1698(ra) # 800530c <__getreent>
 80009b6:	85a2                	mv	a1,s0
 80009b8:	4422                	lw	s0,8(sp)
 80009ba:	40b2                	lw	ra,12(sp)
 80009bc:	0141                	addi	sp,sp,16
 80009be:	00002317          	auipc	t1,0x2
 80009c2:	3ca30067          	jr	970(t1) # 8002d88 <_free_r>

080009c6 <_malloc_r>:
 80009c6:	7179                	addi	sp,sp,-48
 80009c8:	ce4e                	sw	s3,28(sp)
 80009ca:	d606                	sw	ra,44(sp)
 80009cc:	d422                	sw	s0,40(sp)
 80009ce:	d226                	sw	s1,36(sp)
 80009d0:	d04a                	sw	s2,32(sp)
 80009d2:	cc52                	sw	s4,24(sp)
 80009d4:	ca56                	sw	s5,20(sp)
 80009d6:	c85a                	sw	s6,16(sp)
 80009d8:	c65e                	sw	s7,12(sp)
 80009da:	c462                	sw	s8,8(sp)
 80009dc:	c266                	sw	s9,4(sp)
 80009de:	00b58793          	addi	a5,a1,11
 80009e2:	4759                	li	a4,22
 80009e4:	89aa                	mv	s3,a0
 80009e6:	04f76963          	bltu	a4,a5,8000a38 <_malloc_r+0x72>
 80009ea:	47c1                	li	a5,16
 80009ec:	16b7ed63          	bltu	a5,a1,8000b66 <_malloc_r+0x1a0>
 80009f0:	00005097          	auipc	ra,0x5
 80009f4:	90c080e7          	jalr	-1780(ra) # 80052fc <__malloc_lock>
 80009f8:	44c1                	li	s1,16
 80009fa:	4609                	li	a2,2
 80009fc:	47e1                	li	a5,24
 80009fe:	20000937          	lui	s2,0x20000
 8000a02:	45090913          	addi	s2,s2,1104 # 20000450 <__malloc_av_>
 8000a06:	97ca                	add	a5,a5,s2
 8000a08:	43c0                	lw	s0,4(a5)
 8000a0a:	ff878713          	addi	a4,a5,-8
 8000a0e:	18e40463          	beq	s0,a4,8000b96 <_malloc_r+0x1d0>
 8000a12:	405c                	lw	a5,4(s0)
 8000a14:	4454                	lw	a3,12(s0)
 8000a16:	4410                	lw	a2,8(s0)
 8000a18:	9bf1                	andi	a5,a5,-4
 8000a1a:	97a2                	add	a5,a5,s0
 8000a1c:	43d8                	lw	a4,4(a5)
 8000a1e:	c654                	sw	a3,12(a2)
 8000a20:	c690                	sw	a2,8(a3)
 8000a22:	00176713          	ori	a4,a4,1
 8000a26:	854e                	mv	a0,s3
 8000a28:	c3d8                	sw	a4,4(a5)
 8000a2a:	00005097          	auipc	ra,0x5
 8000a2e:	8da080e7          	jalr	-1830(ra) # 8005304 <__malloc_unlock>
 8000a32:	00840513          	addi	a0,s0,8
 8000a36:	aa25                	j	8000b6e <_malloc_r+0x1a8>
 8000a38:	ff87f493          	andi	s1,a5,-8
 8000a3c:	1207c563          	bltz	a5,8000b66 <_malloc_r+0x1a0>
 8000a40:	12b4e363          	bltu	s1,a1,8000b66 <_malloc_r+0x1a0>
 8000a44:	00005097          	auipc	ra,0x5
 8000a48:	8b8080e7          	jalr	-1864(ra) # 80052fc <__malloc_lock>
 8000a4c:	1f700793          	li	a5,503
 8000a50:	3497fe63          	bgeu	a5,s1,8000dac <_malloc_r+0x3e6>
 8000a54:	0094d793          	srli	a5,s1,0x9
 8000a58:	12078863          	beqz	a5,8000b88 <_malloc_r+0x1c2>
 8000a5c:	4711                	li	a4,4
 8000a5e:	2ef76463          	bltu	a4,a5,8000d46 <_malloc_r+0x380>
 8000a62:	0064d793          	srli	a5,s1,0x6
 8000a66:	03978613          	addi	a2,a5,57
 8000a6a:	03878513          	addi	a0,a5,56
 8000a6e:	00361693          	slli	a3,a2,0x3
 8000a72:	20000937          	lui	s2,0x20000
 8000a76:	45090913          	addi	s2,s2,1104 # 20000450 <__malloc_av_>
 8000a7a:	96ca                	add	a3,a3,s2
 8000a7c:	42c0                	lw	s0,4(a3)
 8000a7e:	16e1                	addi	a3,a3,-8
 8000a80:	02868063          	beq	a3,s0,8000aa0 <_malloc_r+0xda>
 8000a84:	45bd                	li	a1,15
 8000a86:	a031                	j	8000a92 <_malloc_r+0xcc>
 8000a88:	26075b63          	bgez	a4,8000cfe <_malloc_r+0x338>
 8000a8c:	4440                	lw	s0,12(s0)
 8000a8e:	00868963          	beq	a3,s0,8000aa0 <_malloc_r+0xda>
 8000a92:	405c                	lw	a5,4(s0)
 8000a94:	9bf1                	andi	a5,a5,-4
 8000a96:	40978733          	sub	a4,a5,s1
 8000a9a:	fee5d7e3          	bge	a1,a4,8000a88 <_malloc_r+0xc2>
 8000a9e:	862a                	mv	a2,a0
 8000aa0:	01092403          	lw	s0,16(s2)
 8000aa4:	00890893          	addi	a7,s2,8
 8000aa8:	11140163          	beq	s0,a7,8000baa <_malloc_r+0x1e4>
 8000aac:	4048                	lw	a0,4(s0)
 8000aae:	46bd                	li	a3,15
 8000ab0:	9971                	andi	a0,a0,-4
 8000ab2:	409507b3          	sub	a5,a0,s1
 8000ab6:	30f6ce63          	blt	a3,a5,8000dd2 <_malloc_r+0x40c>
 8000aba:	01192a23          	sw	a7,20(s2)
 8000abe:	01192823          	sw	a7,16(s2)
 8000ac2:	2e07da63          	bgez	a5,8000db6 <_malloc_r+0x3f0>
 8000ac6:	1ff00793          	li	a5,511
 8000aca:	22a7ed63          	bltu	a5,a0,8000d04 <_malloc_r+0x33e>
 8000ace:	ff857793          	andi	a5,a0,-8
 8000ad2:	07a1                	addi	a5,a5,8
 8000ad4:	00492583          	lw	a1,4(s2)
 8000ad8:	97ca                	add	a5,a5,s2
 8000ada:	4394                	lw	a3,0(a5)
 8000adc:	8115                	srli	a0,a0,0x5
 8000ade:	4705                	li	a4,1
 8000ae0:	00a71733          	sll	a4,a4,a0
 8000ae4:	8f4d                	or	a4,a4,a1
 8000ae6:	ff878593          	addi	a1,a5,-8
 8000aea:	c44c                	sw	a1,12(s0)
 8000aec:	c414                	sw	a3,8(s0)
 8000aee:	00e92223          	sw	a4,4(s2)
 8000af2:	c380                	sw	s0,0(a5)
 8000af4:	c6c0                	sw	s0,12(a3)
 8000af6:	40265793          	srai	a5,a2,0x2
 8000afa:	4585                	li	a1,1
 8000afc:	00f595b3          	sll	a1,a1,a5
 8000b00:	0ab76e63          	bltu	a4,a1,8000bbc <_malloc_r+0x1f6>
 8000b04:	00e5f7b3          	and	a5,a1,a4
 8000b08:	ef81                	bnez	a5,8000b20 <_malloc_r+0x15a>
 8000b0a:	0586                	slli	a1,a1,0x1
 8000b0c:	9a71                	andi	a2,a2,-4
 8000b0e:	00e5f7b3          	and	a5,a1,a4
 8000b12:	0611                	addi	a2,a2,4
 8000b14:	e791                	bnez	a5,8000b20 <_malloc_r+0x15a>
 8000b16:	0586                	slli	a1,a1,0x1
 8000b18:	00e5f7b3          	and	a5,a1,a4
 8000b1c:	0611                	addi	a2,a2,4
 8000b1e:	dfe5                	beqz	a5,8000b16 <_malloc_r+0x150>
 8000b20:	483d                	li	a6,15
 8000b22:	00361313          	slli	t1,a2,0x3
 8000b26:	934a                	add	t1,t1,s2
 8000b28:	851a                	mv	a0,t1
 8000b2a:	455c                	lw	a5,12(a0)
 8000b2c:	8e32                	mv	t3,a2
 8000b2e:	22f50c63          	beq	a0,a5,8000d66 <_malloc_r+0x3a0>
 8000b32:	43d8                	lw	a4,4(a5)
 8000b34:	843e                	mv	s0,a5
 8000b36:	47dc                	lw	a5,12(a5)
 8000b38:	9b71                	andi	a4,a4,-4
 8000b3a:	409706b3          	sub	a3,a4,s1
 8000b3e:	22d84b63          	blt	a6,a3,8000d74 <_malloc_r+0x3ae>
 8000b42:	fe06c6e3          	bltz	a3,8000b2e <_malloc_r+0x168>
 8000b46:	9722                	add	a4,a4,s0
 8000b48:	4354                	lw	a3,4(a4)
 8000b4a:	4410                	lw	a2,8(s0)
 8000b4c:	854e                	mv	a0,s3
 8000b4e:	0016e693          	ori	a3,a3,1
 8000b52:	c354                	sw	a3,4(a4)
 8000b54:	c65c                	sw	a5,12(a2)
 8000b56:	c790                	sw	a2,8(a5)
 8000b58:	00004097          	auipc	ra,0x4
 8000b5c:	7ac080e7          	jalr	1964(ra) # 8005304 <__malloc_unlock>
 8000b60:	00840513          	addi	a0,s0,8
 8000b64:	a029                	j	8000b6e <_malloc_r+0x1a8>
 8000b66:	47b1                	li	a5,12
 8000b68:	00f9a023          	sw	a5,0(s3)
 8000b6c:	4501                	li	a0,0
 8000b6e:	50b2                	lw	ra,44(sp)
 8000b70:	5422                	lw	s0,40(sp)
 8000b72:	5492                	lw	s1,36(sp)
 8000b74:	5902                	lw	s2,32(sp)
 8000b76:	49f2                	lw	s3,28(sp)
 8000b78:	4a62                	lw	s4,24(sp)
 8000b7a:	4ad2                	lw	s5,20(sp)
 8000b7c:	4b42                	lw	s6,16(sp)
 8000b7e:	4bb2                	lw	s7,12(sp)
 8000b80:	4c22                	lw	s8,8(sp)
 8000b82:	4c92                	lw	s9,4(sp)
 8000b84:	6145                	addi	sp,sp,48
 8000b86:	8082                	ret
 8000b88:	20000693          	li	a3,512
 8000b8c:	04000613          	li	a2,64
 8000b90:	03f00513          	li	a0,63
 8000b94:	bdf9                	j	8000a72 <_malloc_r+0xac>
 8000b96:	47c0                	lw	s0,12(a5)
 8000b98:	0609                	addi	a2,a2,2
 8000b9a:	e6879ce3          	bne	a5,s0,8000a12 <_malloc_r+0x4c>
 8000b9e:	01092403          	lw	s0,16(s2)
 8000ba2:	00890893          	addi	a7,s2,8
 8000ba6:	f11413e3          	bne	s0,a7,8000aac <_malloc_r+0xe6>
 8000baa:	00492703          	lw	a4,4(s2)
 8000bae:	40265793          	srai	a5,a2,0x2
 8000bb2:	4585                	li	a1,1
 8000bb4:	00f595b3          	sll	a1,a1,a5
 8000bb8:	f4b776e3          	bgeu	a4,a1,8000b04 <_malloc_r+0x13e>
 8000bbc:	00892403          	lw	s0,8(s2)
 8000bc0:	00442a83          	lw	s5,4(s0)
 8000bc4:	ffcafb93          	andi	s7,s5,-4
 8000bc8:	009be763          	bltu	s7,s1,8000bd6 <_malloc_r+0x210>
 8000bcc:	409b87b3          	sub	a5,s7,s1
 8000bd0:	473d                	li	a4,15
 8000bd2:	10f74563          	blt	a4,a5,8000cdc <_malloc_r+0x316>
 8000bd6:	200017b7          	lui	a5,0x20001
 8000bda:	a107a783          	lw	a5,-1520(a5) # 20000a10 <__malloc_top_pad>
 8000bde:	20001cb7          	lui	s9,0x20001
 8000be2:	864ca683          	lw	a3,-1948(s9) # 20000864 <__malloc_sbrk_base>
 8000be6:	97a6                	add	a5,a5,s1
 8000be8:	40f78a93          	addi	s5,a5,1039
 8000bec:	577d                	li	a4,-1
 8000bee:	01740a33          	add	s4,s0,s7
 8000bf2:	c00afa93          	andi	s5,s5,-1024
 8000bf6:	28e68b63          	beq	a3,a4,8000e8c <_malloc_r+0x4c6>
 8000bfa:	85d6                	mv	a1,s5
 8000bfc:	854e                	mv	a0,s3
 8000bfe:	00004097          	auipc	ra,0x4
 8000c02:	6ba080e7          	jalr	1722(ra) # 80052b8 <_sbrk_r>
 8000c06:	57fd                	li	a5,-1
 8000c08:	8b2a                	mv	s6,a0
 8000c0a:	20f50763          	beq	a0,a5,8000e18 <_malloc_r+0x452>
 8000c0e:	21456363          	bltu	a0,s4,8000e14 <_malloc_r+0x44e>
 8000c12:	20001c37          	lui	s8,0x20001
 8000c16:	94cc0c13          	addi	s8,s8,-1716 # 2000094c <__malloc_current_mallinfo>
 8000c1a:	000c2583          	lw	a1,0(s8)
 8000c1e:	95d6                	add	a1,a1,s5
 8000c20:	00bc2023          	sw	a1,0(s8)
 8000c24:	872e                	mv	a4,a1
 8000c26:	2eaa0563          	beq	s4,a0,8000f10 <_malloc_r+0x54a>
 8000c2a:	864ca683          	lw	a3,-1948(s9)
 8000c2e:	57fd                	li	a5,-1
 8000c30:	2ef68c63          	beq	a3,a5,8000f28 <_malloc_r+0x562>
 8000c34:	414b07b3          	sub	a5,s6,s4
 8000c38:	97ba                	add	a5,a5,a4
 8000c3a:	00fc2023          	sw	a5,0(s8)
 8000c3e:	007b7c93          	andi	s9,s6,7
 8000c42:	260c8263          	beqz	s9,8000ea6 <_malloc_r+0x4e0>
 8000c46:	419b0b33          	sub	s6,s6,s9
 8000c4a:	0b21                	addi	s6,s6,8
 8000c4c:	40800593          	li	a1,1032
 8000c50:	419585b3          	sub	a1,a1,s9
 8000c54:	9ada                	add	s5,s5,s6
 8000c56:	415585b3          	sub	a1,a1,s5
 8000c5a:	3ff5fa13          	andi	s4,a1,1023
 8000c5e:	85d2                	mv	a1,s4
 8000c60:	854e                	mv	a0,s3
 8000c62:	00004097          	auipc	ra,0x4
 8000c66:	656080e7          	jalr	1622(ra) # 80052b8 <_sbrk_r>
 8000c6a:	57fd                	li	a5,-1
 8000c6c:	30f50063          	beq	a0,a5,8000f6c <_malloc_r+0x5a6>
 8000c70:	41650533          	sub	a0,a0,s6
 8000c74:	01450ab3          	add	s5,a0,s4
 8000c78:	000c2583          	lw	a1,0(s8)
 8000c7c:	01692423          	sw	s6,8(s2)
 8000c80:	001aea93          	ori	s5,s5,1
 8000c84:	95d2                	add	a1,a1,s4
 8000c86:	00bc2023          	sw	a1,0(s8)
 8000c8a:	015b2223          	sw	s5,4(s6)
 8000c8e:	2b240063          	beq	s0,s2,8000f2e <_malloc_r+0x568>
 8000c92:	46bd                	li	a3,15
 8000c94:	2976ff63          	bgeu	a3,s7,8000f32 <_malloc_r+0x56c>
 8000c98:	4058                	lw	a4,4(s0)
 8000c9a:	ff4b8793          	addi	a5,s7,-12
 8000c9e:	9be1                	andi	a5,a5,-8
 8000ca0:	8b05                	andi	a4,a4,1
 8000ca2:	8f5d                	or	a4,a4,a5
 8000ca4:	c058                	sw	a4,4(s0)
 8000ca6:	4615                	li	a2,5
 8000ca8:	00f40733          	add	a4,s0,a5
 8000cac:	c350                	sw	a2,4(a4)
 8000cae:	c710                	sw	a2,8(a4)
 8000cb0:	2cf6e463          	bltu	a3,a5,8000f78 <_malloc_r+0x5b2>
 8000cb4:	004b2a83          	lw	s5,4(s6)
 8000cb8:	845a                	mv	s0,s6
 8000cba:	200017b7          	lui	a5,0x20001
 8000cbe:	a0c7a703          	lw	a4,-1524(a5) # 20000a0c <__malloc_max_sbrked_mem>
 8000cc2:	00b77463          	bgeu	a4,a1,8000cca <_malloc_r+0x304>
 8000cc6:	a0b7a623          	sw	a1,-1524(a5)
 8000cca:	200017b7          	lui	a5,0x20001
 8000cce:	a087a703          	lw	a4,-1528(a5) # 20000a08 <__malloc_max_total_mem>
 8000cd2:	14b77763          	bgeu	a4,a1,8000e20 <_malloc_r+0x45a>
 8000cd6:	a0b7a423          	sw	a1,-1528(a5)
 8000cda:	a299                	j	8000e20 <_malloc_r+0x45a>
 8000cdc:	0014e713          	ori	a4,s1,1
 8000ce0:	c058                	sw	a4,4(s0)
 8000ce2:	94a2                	add	s1,s1,s0
 8000ce4:	00992423          	sw	s1,8(s2)
 8000ce8:	0017e793          	ori	a5,a5,1
 8000cec:	854e                	mv	a0,s3
 8000cee:	c0dc                	sw	a5,4(s1)
 8000cf0:	00004097          	auipc	ra,0x4
 8000cf4:	614080e7          	jalr	1556(ra) # 8005304 <__malloc_unlock>
 8000cf8:	00840513          	addi	a0,s0,8
 8000cfc:	bd8d                	j	8000b6e <_malloc_r+0x1a8>
 8000cfe:	4454                	lw	a3,12(s0)
 8000d00:	4410                	lw	a2,8(s0)
 8000d02:	bb21                	j	8000a1a <_malloc_r+0x54>
 8000d04:	00955793          	srli	a5,a0,0x9
 8000d08:	4711                	li	a4,4
 8000d0a:	0ef77d63          	bgeu	a4,a5,8000e04 <_malloc_r+0x43e>
 8000d0e:	4751                	li	a4,20
 8000d10:	1af76c63          	bltu	a4,a5,8000ec8 <_malloc_r+0x502>
 8000d14:	05c78693          	addi	a3,a5,92
 8000d18:	05b78593          	addi	a1,a5,91
 8000d1c:	068e                	slli	a3,a3,0x3
 8000d1e:	96ca                	add	a3,a3,s2
 8000d20:	429c                	lw	a5,0(a3)
 8000d22:	16e1                	addi	a3,a3,-8
 8000d24:	16f68763          	beq	a3,a5,8000e92 <_malloc_r+0x4cc>
 8000d28:	43d8                	lw	a4,4(a5)
 8000d2a:	9b71                	andi	a4,a4,-4
 8000d2c:	00e57563          	bgeu	a0,a4,8000d36 <_malloc_r+0x370>
 8000d30:	479c                	lw	a5,8(a5)
 8000d32:	fef69be3          	bne	a3,a5,8000d28 <_malloc_r+0x362>
 8000d36:	47d4                	lw	a3,12(a5)
 8000d38:	00492703          	lw	a4,4(s2)
 8000d3c:	c454                	sw	a3,12(s0)
 8000d3e:	c41c                	sw	a5,8(s0)
 8000d40:	c680                	sw	s0,8(a3)
 8000d42:	c7c0                	sw	s0,12(a5)
 8000d44:	bb4d                	j	8000af6 <_malloc_r+0x130>
 8000d46:	4751                	li	a4,20
 8000d48:	0ef77c63          	bgeu	a4,a5,8000e40 <_malloc_r+0x47a>
 8000d4c:	05400713          	li	a4,84
 8000d50:	18f76863          	bltu	a4,a5,8000ee0 <_malloc_r+0x51a>
 8000d54:	00c4d793          	srli	a5,s1,0xc
 8000d58:	06f78613          	addi	a2,a5,111
 8000d5c:	06e78513          	addi	a0,a5,110
 8000d60:	00361693          	slli	a3,a2,0x3
 8000d64:	b339                	j	8000a72 <_malloc_r+0xac>
 8000d66:	0e05                	addi	t3,t3,1
 8000d68:	003e7793          	andi	a5,t3,3
 8000d6c:	0521                	addi	a0,a0,8
 8000d6e:	c7ed                	beqz	a5,8000e58 <_malloc_r+0x492>
 8000d70:	455c                	lw	a5,12(a0)
 8000d72:	bb75                	j	8000b2e <_malloc_r+0x168>
 8000d74:	4410                	lw	a2,8(s0)
 8000d76:	0014e593          	ori	a1,s1,1
 8000d7a:	c04c                	sw	a1,4(s0)
 8000d7c:	c65c                	sw	a5,12(a2)
 8000d7e:	c790                	sw	a2,8(a5)
 8000d80:	94a2                	add	s1,s1,s0
 8000d82:	00992a23          	sw	s1,20(s2)
 8000d86:	00992823          	sw	s1,16(s2)
 8000d8a:	0016e793          	ori	a5,a3,1
 8000d8e:	0114a623          	sw	a7,12(s1)
 8000d92:	0114a423          	sw	a7,8(s1)
 8000d96:	c0dc                	sw	a5,4(s1)
 8000d98:	9722                	add	a4,a4,s0
 8000d9a:	854e                	mv	a0,s3
 8000d9c:	c314                	sw	a3,0(a4)
 8000d9e:	00004097          	auipc	ra,0x4
 8000da2:	566080e7          	jalr	1382(ra) # 8005304 <__malloc_unlock>
 8000da6:	00840513          	addi	a0,s0,8
 8000daa:	b3d1                	j	8000b6e <_malloc_r+0x1a8>
 8000dac:	0034d613          	srli	a2,s1,0x3
 8000db0:	00848793          	addi	a5,s1,8
 8000db4:	b1a9                	j	80009fe <_malloc_r+0x38>
 8000db6:	00a40733          	add	a4,s0,a0
 8000dba:	435c                	lw	a5,4(a4)
 8000dbc:	854e                	mv	a0,s3
 8000dbe:	0017e793          	ori	a5,a5,1
 8000dc2:	c35c                	sw	a5,4(a4)
 8000dc4:	00004097          	auipc	ra,0x4
 8000dc8:	540080e7          	jalr	1344(ra) # 8005304 <__malloc_unlock>
 8000dcc:	00840513          	addi	a0,s0,8
 8000dd0:	bb79                	j	8000b6e <_malloc_r+0x1a8>
 8000dd2:	0014e713          	ori	a4,s1,1
 8000dd6:	c058                	sw	a4,4(s0)
 8000dd8:	94a2                	add	s1,s1,s0
 8000dda:	00992a23          	sw	s1,20(s2)
 8000dde:	00992823          	sw	s1,16(s2)
 8000de2:	0017e713          	ori	a4,a5,1
 8000de6:	0114a623          	sw	a7,12(s1)
 8000dea:	0114a423          	sw	a7,8(s1)
 8000dee:	c0d8                	sw	a4,4(s1)
 8000df0:	9522                	add	a0,a0,s0
 8000df2:	c11c                	sw	a5,0(a0)
 8000df4:	854e                	mv	a0,s3
 8000df6:	00004097          	auipc	ra,0x4
 8000dfa:	50e080e7          	jalr	1294(ra) # 8005304 <__malloc_unlock>
 8000dfe:	00840513          	addi	a0,s0,8
 8000e02:	b3b5                	j	8000b6e <_malloc_r+0x1a8>
 8000e04:	00655793          	srli	a5,a0,0x6
 8000e08:	03978693          	addi	a3,a5,57
 8000e0c:	03878593          	addi	a1,a5,56
 8000e10:	068e                	slli	a3,a3,0x3
 8000e12:	b731                	j	8000d1e <_malloc_r+0x358>
 8000e14:	0f240363          	beq	s0,s2,8000efa <_malloc_r+0x534>
 8000e18:	00892403          	lw	s0,8(s2)
 8000e1c:	00442a83          	lw	s5,4(s0)
 8000e20:	ffcafa93          	andi	s5,s5,-4
 8000e24:	409a87b3          	sub	a5,s5,s1
 8000e28:	009ae563          	bltu	s5,s1,8000e32 <_malloc_r+0x46c>
 8000e2c:	473d                	li	a4,15
 8000e2e:	eaf747e3          	blt	a4,a5,8000cdc <_malloc_r+0x316>
 8000e32:	854e                	mv	a0,s3
 8000e34:	00004097          	auipc	ra,0x4
 8000e38:	4d0080e7          	jalr	1232(ra) # 8005304 <__malloc_unlock>
 8000e3c:	4501                	li	a0,0
 8000e3e:	bb05                	j	8000b6e <_malloc_r+0x1a8>
 8000e40:	05c78613          	addi	a2,a5,92
 8000e44:	05b78513          	addi	a0,a5,91
 8000e48:	00361693          	slli	a3,a2,0x3
 8000e4c:	b11d                	j	8000a72 <_malloc_r+0xac>
 8000e4e:	00832783          	lw	a5,8(t1)
 8000e52:	167d                	addi	a2,a2,-1
 8000e54:	16679863          	bne	a5,t1,8000fc4 <_malloc_r+0x5fe>
 8000e58:	00367793          	andi	a5,a2,3
 8000e5c:	1361                	addi	t1,t1,-8
 8000e5e:	fbe5                	bnez	a5,8000e4e <_malloc_r+0x488>
 8000e60:	00492703          	lw	a4,4(s2)
 8000e64:	fff5c793          	not	a5,a1
 8000e68:	8ff9                	and	a5,a5,a4
 8000e6a:	00f92223          	sw	a5,4(s2)
 8000e6e:	0586                	slli	a1,a1,0x1
 8000e70:	d4b7e6e3          	bltu	a5,a1,8000bbc <_malloc_r+0x1f6>
 8000e74:	d40584e3          	beqz	a1,8000bbc <_malloc_r+0x1f6>
 8000e78:	00f5f733          	and	a4,a1,a5
 8000e7c:	e711                	bnez	a4,8000e88 <_malloc_r+0x4c2>
 8000e7e:	0586                	slli	a1,a1,0x1
 8000e80:	00f5f733          	and	a4,a1,a5
 8000e84:	0e11                	addi	t3,t3,4
 8000e86:	df65                	beqz	a4,8000e7e <_malloc_r+0x4b8>
 8000e88:	8672                	mv	a2,t3
 8000e8a:	b961                	j	8000b22 <_malloc_r+0x15c>
 8000e8c:	01078a93          	addi	s5,a5,16
 8000e90:	b3ad                	j	8000bfa <_malloc_r+0x234>
 8000e92:	00492503          	lw	a0,4(s2)
 8000e96:	8589                	srai	a1,a1,0x2
 8000e98:	4705                	li	a4,1
 8000e9a:	00b71733          	sll	a4,a4,a1
 8000e9e:	8f49                	or	a4,a4,a0
 8000ea0:	00e92223          	sw	a4,4(s2)
 8000ea4:	bd61                	j	8000d3c <_malloc_r+0x376>
 8000ea6:	015b05b3          	add	a1,s6,s5
 8000eaa:	40b005b3          	neg	a1,a1
 8000eae:	3ff5fa13          	andi	s4,a1,1023
 8000eb2:	85d2                	mv	a1,s4
 8000eb4:	854e                	mv	a0,s3
 8000eb6:	00004097          	auipc	ra,0x4
 8000eba:	402080e7          	jalr	1026(ra) # 80052b8 <_sbrk_r>
 8000ebe:	57fd                	li	a5,-1
 8000ec0:	daf518e3          	bne	a0,a5,8000c70 <_malloc_r+0x2aa>
 8000ec4:	4a01                	li	s4,0
 8000ec6:	bb4d                	j	8000c78 <_malloc_r+0x2b2>
 8000ec8:	05400713          	li	a4,84
 8000ecc:	06f76763          	bltu	a4,a5,8000f3a <_malloc_r+0x574>
 8000ed0:	00c55793          	srli	a5,a0,0xc
 8000ed4:	06f78693          	addi	a3,a5,111
 8000ed8:	06e78593          	addi	a1,a5,110
 8000edc:	068e                	slli	a3,a3,0x3
 8000ede:	b581                	j	8000d1e <_malloc_r+0x358>
 8000ee0:	15400713          	li	a4,340
 8000ee4:	06f76763          	bltu	a4,a5,8000f52 <_malloc_r+0x58c>
 8000ee8:	00f4d793          	srli	a5,s1,0xf
 8000eec:	07878613          	addi	a2,a5,120
 8000ef0:	07778513          	addi	a0,a5,119
 8000ef4:	00361693          	slli	a3,a2,0x3
 8000ef8:	bead                	j	8000a72 <_malloc_r+0xac>
 8000efa:	20001c37          	lui	s8,0x20001
 8000efe:	94cc0c13          	addi	s8,s8,-1716 # 2000094c <__malloc_current_mallinfo>
 8000f02:	000c2783          	lw	a5,0(s8)
 8000f06:	00fa8733          	add	a4,s5,a5
 8000f0a:	00ec2023          	sw	a4,0(s8)
 8000f0e:	bb31                	j	8000c2a <_malloc_r+0x264>
 8000f10:	3ffa7793          	andi	a5,s4,1023
 8000f14:	d0079be3          	bnez	a5,8000c2a <_malloc_r+0x264>
 8000f18:	00892403          	lw	s0,8(s2)
 8000f1c:	9ade                	add	s5,s5,s7
 8000f1e:	001aea93          	ori	s5,s5,1
 8000f22:	01542223          	sw	s5,4(s0)
 8000f26:	bb51                	j	8000cba <_malloc_r+0x2f4>
 8000f28:	876ca223          	sw	s6,-1948(s9)
 8000f2c:	bb09                	j	8000c3e <_malloc_r+0x278>
 8000f2e:	845a                	mv	s0,s6
 8000f30:	b369                	j	8000cba <_malloc_r+0x2f4>
 8000f32:	4785                	li	a5,1
 8000f34:	00fb2223          	sw	a5,4(s6)
 8000f38:	bded                	j	8000e32 <_malloc_r+0x46c>
 8000f3a:	15400713          	li	a4,340
 8000f3e:	04f76b63          	bltu	a4,a5,8000f94 <_malloc_r+0x5ce>
 8000f42:	00f55793          	srli	a5,a0,0xf
 8000f46:	07878693          	addi	a3,a5,120
 8000f4a:	07778593          	addi	a1,a5,119
 8000f4e:	068e                	slli	a3,a3,0x3
 8000f50:	b3f9                	j	8000d1e <_malloc_r+0x358>
 8000f52:	55400713          	li	a4,1364
 8000f56:	04f76b63          	bltu	a4,a5,8000fac <_malloc_r+0x5e6>
 8000f5a:	0124d793          	srli	a5,s1,0x12
 8000f5e:	07d78613          	addi	a2,a5,125
 8000f62:	07c78513          	addi	a0,a5,124
 8000f66:	00361693          	slli	a3,a2,0x3
 8000f6a:	b621                	j	8000a72 <_malloc_r+0xac>
 8000f6c:	1ce1                	addi	s9,s9,-8
 8000f6e:	9ae6                	add	s5,s5,s9
 8000f70:	416a8ab3          	sub	s5,s5,s6
 8000f74:	4a01                	li	s4,0
 8000f76:	b309                	j	8000c78 <_malloc_r+0x2b2>
 8000f78:	00840593          	addi	a1,s0,8
 8000f7c:	854e                	mv	a0,s3
 8000f7e:	00002097          	auipc	ra,0x2
 8000f82:	e0a080e7          	jalr	-502(ra) # 8002d88 <_free_r>
 8000f86:	00892403          	lw	s0,8(s2)
 8000f8a:	000c2583          	lw	a1,0(s8)
 8000f8e:	00442a83          	lw	s5,4(s0)
 8000f92:	b325                	j	8000cba <_malloc_r+0x2f4>
 8000f94:	55400713          	li	a4,1364
 8000f98:	02f76163          	bltu	a4,a5,8000fba <_malloc_r+0x5f4>
 8000f9c:	01255793          	srli	a5,a0,0x12
 8000fa0:	07d78693          	addi	a3,a5,125
 8000fa4:	07c78593          	addi	a1,a5,124
 8000fa8:	068e                	slli	a3,a3,0x3
 8000faa:	bb95                	j	8000d1e <_malloc_r+0x358>
 8000fac:	3f800693          	li	a3,1016
 8000fb0:	07f00613          	li	a2,127
 8000fb4:	07e00513          	li	a0,126
 8000fb8:	bc6d                	j	8000a72 <_malloc_r+0xac>
 8000fba:	3f800693          	li	a3,1016
 8000fbe:	07e00593          	li	a1,126
 8000fc2:	bbb1                	j	8000d1e <_malloc_r+0x358>
 8000fc4:	00492783          	lw	a5,4(s2)
 8000fc8:	b55d                	j	8000e6e <_malloc_r+0x4a8>

08000fca <memchr>:
 8000fca:	00357793          	andi	a5,a0,3
 8000fce:	0ff5f693          	andi	a3,a1,255
 8000fd2:	c395                	beqz	a5,8000ff6 <memchr+0x2c>
 8000fd4:	fff60793          	addi	a5,a2,-1
 8000fd8:	c605                	beqz	a2,8001000 <memchr+0x36>
 8000fda:	567d                	li	a2,-1
 8000fdc:	a801                	j	8000fec <memchr+0x22>
 8000fde:	0505                	addi	a0,a0,1
 8000fe0:	00357713          	andi	a4,a0,3
 8000fe4:	cb11                	beqz	a4,8000ff8 <memchr+0x2e>
 8000fe6:	17fd                	addi	a5,a5,-1
 8000fe8:	00c78c63          	beq	a5,a2,8001000 <memchr+0x36>
 8000fec:	00054703          	lbu	a4,0(a0)
 8000ff0:	fed717e3          	bne	a4,a3,8000fde <memchr+0x14>
 8000ff4:	8082                	ret
 8000ff6:	87b2                	mv	a5,a2
 8000ff8:	470d                	li	a4,3
 8000ffa:	00f76f63          	bltu	a4,a5,8001018 <memchr+0x4e>
 8000ffe:	e399                	bnez	a5,8001004 <memchr+0x3a>
 8001000:	4501                	li	a0,0
 8001002:	8082                	ret
 8001004:	97aa                	add	a5,a5,a0
 8001006:	a021                	j	800100e <memchr+0x44>
 8001008:	0505                	addi	a0,a0,1
 800100a:	fea78be3          	beq	a5,a0,8001000 <memchr+0x36>
 800100e:	00054703          	lbu	a4,0(a0)
 8001012:	fed71be3          	bne	a4,a3,8001008 <memchr+0x3e>
 8001016:	8082                	ret
 8001018:	6741                	lui	a4,0x10
 800101a:	00859893          	slli	a7,a1,0x8
 800101e:	177d                	addi	a4,a4,-1
 8001020:	00e8f8b3          	and	a7,a7,a4
 8001024:	0ff5f593          	andi	a1,a1,255
 8001028:	00b8e5b3          	or	a1,a7,a1
 800102c:	01059893          	slli	a7,a1,0x10
 8001030:	00b8e8b3          	or	a7,a7,a1
 8001034:	feff0837          	lui	a6,0xfeff0
 8001038:	808085b7          	lui	a1,0x80808
 800103c:	eff80813          	addi	a6,a6,-257 # fefefeff <_heap_end+0xdefe7eff>
 8001040:	08058593          	addi	a1,a1,128 # 80808080 <_heap_end+0x60800080>
 8001044:	430d                	li	t1,3
 8001046:	4118                	lw	a4,0(a0)
 8001048:	00e8c733          	xor	a4,a7,a4
 800104c:	01070633          	add	a2,a4,a6
 8001050:	fff74713          	not	a4,a4
 8001054:	8f71                	and	a4,a4,a2
 8001056:	8f6d                	and	a4,a4,a1
 8001058:	f755                	bnez	a4,8001004 <memchr+0x3a>
 800105a:	17f1                	addi	a5,a5,-4
 800105c:	0511                	addi	a0,a0,4
 800105e:	fef364e3          	bltu	t1,a5,8001046 <memchr+0x7c>
 8001062:	f3cd                	bnez	a5,8001004 <memchr+0x3a>
 8001064:	bf71                	j	8001000 <memchr+0x36>

08001066 <memcpy>:
 8001066:	00a5c7b3          	xor	a5,a1,a0
 800106a:	8b8d                	andi	a5,a5,3
 800106c:	00c508b3          	add	a7,a0,a2
 8001070:	e7a1                	bnez	a5,80010b8 <memcpy+0x52>
 8001072:	478d                	li	a5,3
 8001074:	04c7f263          	bgeu	a5,a2,80010b8 <memcpy+0x52>
 8001078:	00357793          	andi	a5,a0,3
 800107c:	872a                	mv	a4,a0
 800107e:	eba9                	bnez	a5,80010d0 <memcpy+0x6a>
 8001080:	ffc8f613          	andi	a2,a7,-4
 8001084:	fe060793          	addi	a5,a2,-32
 8001088:	06f76763          	bltu	a4,a5,80010f6 <memcpy+0x90>
 800108c:	02c77363          	bgeu	a4,a2,80010b2 <memcpy+0x4c>
 8001090:	86ae                	mv	a3,a1
 8001092:	87ba                	mv	a5,a4
 8001094:	0006a803          	lw	a6,0(a3)
 8001098:	0791                	addi	a5,a5,4
 800109a:	0691                	addi	a3,a3,4
 800109c:	ff07ae23          	sw	a6,-4(a5)
 80010a0:	fec7eae3          	bltu	a5,a2,8001094 <memcpy+0x2e>
 80010a4:	fff60793          	addi	a5,a2,-1
 80010a8:	8f99                	sub	a5,a5,a4
 80010aa:	9bf1                	andi	a5,a5,-4
 80010ac:	0791                	addi	a5,a5,4
 80010ae:	973e                	add	a4,a4,a5
 80010b0:	95be                	add	a1,a1,a5
 80010b2:	01176663          	bltu	a4,a7,80010be <memcpy+0x58>
 80010b6:	8082                	ret
 80010b8:	872a                	mv	a4,a0
 80010ba:	ff157ee3          	bgeu	a0,a7,80010b6 <memcpy+0x50>
 80010be:	0005c783          	lbu	a5,0(a1)
 80010c2:	0705                	addi	a4,a4,1
 80010c4:	0585                	addi	a1,a1,1
 80010c6:	fef70fa3          	sb	a5,-1(a4) # ffff <_main_stack_size+0xfbff>
 80010ca:	ff176ae3          	bltu	a4,a7,80010be <memcpy+0x58>
 80010ce:	8082                	ret
 80010d0:	0005c683          	lbu	a3,0(a1)
 80010d4:	0705                	addi	a4,a4,1
 80010d6:	00377793          	andi	a5,a4,3
 80010da:	fed70fa3          	sb	a3,-1(a4)
 80010de:	0585                	addi	a1,a1,1
 80010e0:	d3c5                	beqz	a5,8001080 <memcpy+0x1a>
 80010e2:	0005c683          	lbu	a3,0(a1)
 80010e6:	0705                	addi	a4,a4,1
 80010e8:	00377793          	andi	a5,a4,3
 80010ec:	fed70fa3          	sb	a3,-1(a4)
 80010f0:	0585                	addi	a1,a1,1
 80010f2:	fff9                	bnez	a5,80010d0 <memcpy+0x6a>
 80010f4:	b771                	j	8001080 <memcpy+0x1a>
 80010f6:	41d4                	lw	a3,4(a1)
 80010f8:	0005a283          	lw	t0,0(a1)
 80010fc:	0085af83          	lw	t6,8(a1)
 8001100:	00c5af03          	lw	t5,12(a1)
 8001104:	0105ae83          	lw	t4,16(a1)
 8001108:	0145ae03          	lw	t3,20(a1)
 800110c:	0185a303          	lw	t1,24(a1)
 8001110:	01c5a803          	lw	a6,28(a1)
 8001114:	c354                	sw	a3,4(a4)
 8001116:	5194                	lw	a3,32(a1)
 8001118:	00572023          	sw	t0,0(a4)
 800111c:	01f72423          	sw	t6,8(a4)
 8001120:	01e72623          	sw	t5,12(a4)
 8001124:	01d72823          	sw	t4,16(a4)
 8001128:	01c72a23          	sw	t3,20(a4)
 800112c:	00672c23          	sw	t1,24(a4)
 8001130:	01072e23          	sw	a6,28(a4)
 8001134:	d314                	sw	a3,32(a4)
 8001136:	02470713          	addi	a4,a4,36
 800113a:	02458593          	addi	a1,a1,36
 800113e:	faf76ce3          	bltu	a4,a5,80010f6 <memcpy+0x90>
 8001142:	b7a9                	j	800108c <memcpy+0x26>

08001144 <memmove>:
 8001144:	02a5f263          	bgeu	a1,a0,8001168 <memmove+0x24>
 8001148:	00c587b3          	add	a5,a1,a2
 800114c:	00f57e63          	bgeu	a0,a5,8001168 <memmove+0x24>
 8001150:	00c50733          	add	a4,a0,a2
 8001154:	ca45                	beqz	a2,8001204 <memmove+0xc0>
 8001156:	fff7c683          	lbu	a3,-1(a5)
 800115a:	17fd                	addi	a5,a5,-1
 800115c:	177d                	addi	a4,a4,-1
 800115e:	00d70023          	sb	a3,0(a4)
 8001162:	fef59ae3          	bne	a1,a5,8001156 <memmove+0x12>
 8001166:	8082                	ret
 8001168:	47bd                	li	a5,15
 800116a:	02c7e163          	bltu	a5,a2,800118c <memmove+0x48>
 800116e:	87aa                	mv	a5,a0
 8001170:	fff60693          	addi	a3,a2,-1
 8001174:	ce49                	beqz	a2,800120e <memmove+0xca>
 8001176:	0685                	addi	a3,a3,1
 8001178:	96be                	add	a3,a3,a5
 800117a:	0005c703          	lbu	a4,0(a1)
 800117e:	0785                	addi	a5,a5,1
 8001180:	0585                	addi	a1,a1,1
 8001182:	fee78fa3          	sb	a4,-1(a5)
 8001186:	fed79ae3          	bne	a5,a3,800117a <memmove+0x36>
 800118a:	8082                	ret
 800118c:	00a5e7b3          	or	a5,a1,a0
 8001190:	8b8d                	andi	a5,a5,3
 8001192:	ebb5                	bnez	a5,8001206 <memmove+0xc2>
 8001194:	ff060893          	addi	a7,a2,-16
 8001198:	ff08f893          	andi	a7,a7,-16
 800119c:	08c1                	addi	a7,a7,16
 800119e:	01150833          	add	a6,a0,a7
 80011a2:	872e                	mv	a4,a1
 80011a4:	87aa                	mv	a5,a0
 80011a6:	4314                	lw	a3,0(a4)
 80011a8:	0741                	addi	a4,a4,16
 80011aa:	07c1                	addi	a5,a5,16
 80011ac:	fed7a823          	sw	a3,-16(a5)
 80011b0:	ff472683          	lw	a3,-12(a4)
 80011b4:	fed7aa23          	sw	a3,-12(a5)
 80011b8:	ff872683          	lw	a3,-8(a4)
 80011bc:	fed7ac23          	sw	a3,-8(a5)
 80011c0:	ffc72683          	lw	a3,-4(a4)
 80011c4:	fed7ae23          	sw	a3,-4(a5)
 80011c8:	fcf81fe3          	bne	a6,a5,80011a6 <memmove+0x62>
 80011cc:	00c67713          	andi	a4,a2,12
 80011d0:	95c6                	add	a1,a1,a7
 80011d2:	00f67813          	andi	a6,a2,15
 80011d6:	cf0d                	beqz	a4,8001210 <memmove+0xcc>
 80011d8:	872e                	mv	a4,a1
 80011da:	88be                	mv	a7,a5
 80011dc:	4e0d                	li	t3,3
 80011de:	00072303          	lw	t1,0(a4)
 80011e2:	0711                	addi	a4,a4,4
 80011e4:	40e806b3          	sub	a3,a6,a4
 80011e8:	0068a023          	sw	t1,0(a7)
 80011ec:	96ae                	add	a3,a3,a1
 80011ee:	0891                	addi	a7,a7,4
 80011f0:	fede67e3          	bltu	t3,a3,80011de <memmove+0x9a>
 80011f4:	ffc80713          	addi	a4,a6,-4
 80011f8:	9b71                	andi	a4,a4,-4
 80011fa:	0711                	addi	a4,a4,4
 80011fc:	8a0d                	andi	a2,a2,3
 80011fe:	97ba                	add	a5,a5,a4
 8001200:	95ba                	add	a1,a1,a4
 8001202:	b7bd                	j	8001170 <memmove+0x2c>
 8001204:	8082                	ret
 8001206:	fff60693          	addi	a3,a2,-1
 800120a:	87aa                	mv	a5,a0
 800120c:	b7ad                	j	8001176 <memmove+0x32>
 800120e:	8082                	ret
 8001210:	8642                	mv	a2,a6
 8001212:	bfb9                	j	8001170 <memmove+0x2c>

08001214 <memset>:
 8001214:	433d                	li	t1,15
 8001216:	872a                	mv	a4,a0
 8001218:	02c37363          	bgeu	t1,a2,800123e <memset+0x2a>
 800121c:	00f77793          	andi	a5,a4,15
 8001220:	efbd                	bnez	a5,800129e <memset+0x8a>
 8001222:	e5ad                	bnez	a1,800128c <memset+0x78>
 8001224:	ff067693          	andi	a3,a2,-16
 8001228:	8a3d                	andi	a2,a2,15
 800122a:	96ba                	add	a3,a3,a4
 800122c:	c30c                	sw	a1,0(a4)
 800122e:	c34c                	sw	a1,4(a4)
 8001230:	c70c                	sw	a1,8(a4)
 8001232:	c74c                	sw	a1,12(a4)
 8001234:	0741                	addi	a4,a4,16
 8001236:	fed76be3          	bltu	a4,a3,800122c <memset+0x18>
 800123a:	e211                	bnez	a2,800123e <memset+0x2a>
 800123c:	8082                	ret
 800123e:	40c306b3          	sub	a3,t1,a2
 8001242:	068a                	slli	a3,a3,0x2
 8001244:	00000297          	auipc	t0,0x0
 8001248:	9696                	add	a3,a3,t0
 800124a:	00a68067          	jr	10(a3)
 800124e:	00b70723          	sb	a1,14(a4)
 8001252:	00b706a3          	sb	a1,13(a4)
 8001256:	00b70623          	sb	a1,12(a4)
 800125a:	00b705a3          	sb	a1,11(a4)
 800125e:	00b70523          	sb	a1,10(a4)
 8001262:	00b704a3          	sb	a1,9(a4)
 8001266:	00b70423          	sb	a1,8(a4)
 800126a:	00b703a3          	sb	a1,7(a4)
 800126e:	00b70323          	sb	a1,6(a4)
 8001272:	00b702a3          	sb	a1,5(a4)
 8001276:	00b70223          	sb	a1,4(a4)
 800127a:	00b701a3          	sb	a1,3(a4)
 800127e:	00b70123          	sb	a1,2(a4)
 8001282:	00b700a3          	sb	a1,1(a4)
 8001286:	00b70023          	sb	a1,0(a4)
 800128a:	8082                	ret
 800128c:	0ff5f593          	andi	a1,a1,255
 8001290:	00859693          	slli	a3,a1,0x8
 8001294:	8dd5                	or	a1,a1,a3
 8001296:	01059693          	slli	a3,a1,0x10
 800129a:	8dd5                	or	a1,a1,a3
 800129c:	b761                	j	8001224 <memset+0x10>
 800129e:	00279693          	slli	a3,a5,0x2
 80012a2:	00000297          	auipc	t0,0x0
 80012a6:	9696                	add	a3,a3,t0
 80012a8:	8286                	mv	t0,ra
 80012aa:	fa8680e7          	jalr	-88(a3)
 80012ae:	8096                	mv	ra,t0
 80012b0:	17c1                	addi	a5,a5,-16
 80012b2:	8f1d                	sub	a4,a4,a5
 80012b4:	963e                	add	a2,a2,a5
 80012b6:	f8c374e3          	bgeu	t1,a2,800123e <memset+0x2a>
 80012ba:	b7a5                	j	8001222 <memset+0xe>

080012bc <raise>:
 80012bc:	1141                	addi	sp,sp,-16
 80012be:	c606                	sw	ra,12(sp)
 80012c0:	c422                	sw	s0,8(sp)
 80012c2:	c226                	sw	s1,4(sp)
 80012c4:	84aa                	mv	s1,a0
 80012c6:	00004097          	auipc	ra,0x4
 80012ca:	046080e7          	jalr	70(ra) # 800530c <__getreent>
 80012ce:	842a                	mv	s0,a0
 80012d0:	00005097          	auipc	ra,0x5
 80012d4:	9b2080e7          	jalr	-1614(ra) # 8005c82 <_getpid_r>
 80012d8:	85aa                	mv	a1,a0
 80012da:	8522                	mv	a0,s0
 80012dc:	4422                	lw	s0,8(sp)
 80012de:	40b2                	lw	ra,12(sp)
 80012e0:	8626                	mv	a2,s1
 80012e2:	4492                	lw	s1,4(sp)
 80012e4:	0141                	addi	sp,sp,16
 80012e6:	00005317          	auipc	t1,0x5
 80012ea:	98830067          	jr	-1656(t1) # 8005c6e <_kill_r>

080012ee <_raise_r>:
 80012ee:	1141                	addi	sp,sp,-16
 80012f0:	c422                	sw	s0,8(sp)
 80012f2:	c226                	sw	s1,4(sp)
 80012f4:	c606                	sw	ra,12(sp)
 80012f6:	84ae                	mv	s1,a1
 80012f8:	842a                	mv	s0,a0
 80012fa:	00005097          	auipc	ra,0x5
 80012fe:	988080e7          	jalr	-1656(ra) # 8005c82 <_getpid_r>
 8001302:	85aa                	mv	a1,a0
 8001304:	8522                	mv	a0,s0
 8001306:	4422                	lw	s0,8(sp)
 8001308:	40b2                	lw	ra,12(sp)
 800130a:	8626                	mv	a2,s1
 800130c:	4492                	lw	s1,4(sp)
 800130e:	0141                	addi	sp,sp,16
 8001310:	00005317          	auipc	t1,0x5
 8001314:	95e30067          	jr	-1698(t1) # 8005c6e <_kill_r>

08001318 <cleanup_glue>:
 8001318:	1141                	addi	sp,sp,-16
 800131a:	c422                	sw	s0,8(sp)
 800131c:	842e                	mv	s0,a1
 800131e:	418c                	lw	a1,0(a1)
 8001320:	c226                	sw	s1,4(sp)
 8001322:	c606                	sw	ra,12(sp)
 8001324:	84aa                	mv	s1,a0
 8001326:	c589                	beqz	a1,8001330 <cleanup_glue+0x18>
 8001328:	00000097          	auipc	ra,0x0
 800132c:	ff0080e7          	jalr	-16(ra) # 8001318 <cleanup_glue>
 8001330:	85a2                	mv	a1,s0
 8001332:	4422                	lw	s0,8(sp)
 8001334:	40b2                	lw	ra,12(sp)
 8001336:	8526                	mv	a0,s1
 8001338:	4492                	lw	s1,4(sp)
 800133a:	0141                	addi	sp,sp,16
 800133c:	00002317          	auipc	t1,0x2
 8001340:	a4c30067          	jr	-1460(t1) # 8002d88 <_free_r>

08001344 <_reclaim_reent>:
 8001344:	200017b7          	lui	a5,0x20001
 8001348:	8607a783          	lw	a5,-1952(a5) # 20000860 <_impure_ptr>
 800134c:	10a78363          	beq	a5,a0,8001452 <_reclaim_reent+0x10e>
 8001350:	4d5c                	lw	a5,28(a0)
 8001352:	1101                	addi	sp,sp,-32
 8001354:	ca26                	sw	s1,20(sp)
 8001356:	ce06                	sw	ra,28(sp)
 8001358:	cc22                	sw	s0,24(sp)
 800135a:	c84a                	sw	s2,16(sp)
 800135c:	c64e                	sw	s3,12(sp)
 800135e:	84aa                	mv	s1,a0
 8001360:	cff9                	beqz	a5,800143e <_reclaim_reent+0xfa>
 8001362:	47cc                	lw	a1,12(a5)
 8001364:	c99d                	beqz	a1,800139a <_reclaim_reent+0x56>
 8001366:	4901                	li	s2,0
 8001368:	08000993          	li	s3,128
 800136c:	012587b3          	add	a5,a1,s2
 8001370:	4380                	lw	s0,0(a5)
 8001372:	c819                	beqz	s0,8001388 <_reclaim_reent+0x44>
 8001374:	85a2                	mv	a1,s0
 8001376:	4000                	lw	s0,0(s0)
 8001378:	8526                	mv	a0,s1
 800137a:	00002097          	auipc	ra,0x2
 800137e:	a0e080e7          	jalr	-1522(ra) # 8002d88 <_free_r>
 8001382:	f86d                	bnez	s0,8001374 <_reclaim_reent+0x30>
 8001384:	4cdc                	lw	a5,28(s1)
 8001386:	47cc                	lw	a1,12(a5)
 8001388:	0911                	addi	s2,s2,4
 800138a:	ff3911e3          	bne	s2,s3,800136c <_reclaim_reent+0x28>
 800138e:	8526                	mv	a0,s1
 8001390:	00002097          	auipc	ra,0x2
 8001394:	9f8080e7          	jalr	-1544(ra) # 8002d88 <_free_r>
 8001398:	4cdc                	lw	a5,28(s1)
 800139a:	438c                	lw	a1,0(a5)
 800139c:	cdc5                	beqz	a1,8001454 <_reclaim_reent+0x110>
 800139e:	8526                	mv	a0,s1
 80013a0:	00002097          	auipc	ra,0x2
 80013a4:	9e8080e7          	jalr	-1560(ra) # 8002d88 <_free_r>
 80013a8:	48cc                	lw	a1,20(s1)
 80013aa:	c591                	beqz	a1,80013b6 <_reclaim_reent+0x72>
 80013ac:	8526                	mv	a0,s1
 80013ae:	00002097          	auipc	ra,0x2
 80013b2:	9da080e7          	jalr	-1574(ra) # 8002d88 <_free_r>
 80013b6:	4cdc                	lw	a5,28(s1)
 80013b8:	c799                	beqz	a5,80013c6 <_reclaim_reent+0x82>
 80013ba:	85be                	mv	a1,a5
 80013bc:	8526                	mv	a0,s1
 80013be:	00002097          	auipc	ra,0x2
 80013c2:	9ca080e7          	jalr	-1590(ra) # 8002d88 <_free_r>
 80013c6:	588c                	lw	a1,48(s1)
 80013c8:	c591                	beqz	a1,80013d4 <_reclaim_reent+0x90>
 80013ca:	8526                	mv	a0,s1
 80013cc:	00002097          	auipc	ra,0x2
 80013d0:	9bc080e7          	jalr	-1604(ra) # 8002d88 <_free_r>
 80013d4:	58cc                	lw	a1,52(s1)
 80013d6:	c591                	beqz	a1,80013e2 <_reclaim_reent+0x9e>
 80013d8:	8526                	mv	a0,s1
 80013da:	00002097          	auipc	ra,0x2
 80013de:	9ae080e7          	jalr	-1618(ra) # 8002d88 <_free_r>
 80013e2:	5c8c                	lw	a1,56(s1)
 80013e4:	c591                	beqz	a1,80013f0 <_reclaim_reent+0xac>
 80013e6:	8526                	mv	a0,s1
 80013e8:	00002097          	auipc	ra,0x2
 80013ec:	9a0080e7          	jalr	-1632(ra) # 8002d88 <_free_r>
 80013f0:	44ec                	lw	a1,76(s1)
 80013f2:	c591                	beqz	a1,80013fe <_reclaim_reent+0xba>
 80013f4:	8526                	mv	a0,s1
 80013f6:	00002097          	auipc	ra,0x2
 80013fa:	992080e7          	jalr	-1646(ra) # 8002d88 <_free_r>
 80013fe:	44ac                	lw	a1,72(s1)
 8001400:	c591                	beqz	a1,800140c <_reclaim_reent+0xc8>
 8001402:	8526                	mv	a0,s1
 8001404:	00002097          	auipc	ra,0x2
 8001408:	984080e7          	jalr	-1660(ra) # 8002d88 <_free_r>
 800140c:	54cc                	lw	a1,44(s1)
 800140e:	c591                	beqz	a1,800141a <_reclaim_reent+0xd6>
 8001410:	8526                	mv	a0,s1
 8001412:	00002097          	auipc	ra,0x2
 8001416:	976080e7          	jalr	-1674(ra) # 8002d88 <_free_r>
 800141a:	4c9c                	lw	a5,24(s1)
 800141c:	c785                	beqz	a5,8001444 <_reclaim_reent+0x100>
 800141e:	509c                	lw	a5,32(s1)
 8001420:	8526                	mv	a0,s1
 8001422:	9782                	jalr	a5
 8001424:	5ccc                	lw	a1,60(s1)
 8001426:	cd99                	beqz	a1,8001444 <_reclaim_reent+0x100>
 8001428:	4462                	lw	s0,24(sp)
 800142a:	40f2                	lw	ra,28(sp)
 800142c:	4942                	lw	s2,16(sp)
 800142e:	49b2                	lw	s3,12(sp)
 8001430:	8526                	mv	a0,s1
 8001432:	44d2                	lw	s1,20(sp)
 8001434:	6105                	addi	sp,sp,32
 8001436:	00000317          	auipc	t1,0x0
 800143a:	ee230067          	jr	-286(t1) # 8001318 <cleanup_glue>
 800143e:	494c                	lw	a1,20(a0)
 8001440:	f5b5                	bnez	a1,80013ac <_reclaim_reent+0x68>
 8001442:	b751                	j	80013c6 <_reclaim_reent+0x82>
 8001444:	40f2                	lw	ra,28(sp)
 8001446:	4462                	lw	s0,24(sp)
 8001448:	44d2                	lw	s1,20(sp)
 800144a:	4942                	lw	s2,16(sp)
 800144c:	49b2                	lw	s3,12(sp)
 800144e:	6105                	addi	sp,sp,32
 8001450:	8082                	ret
 8001452:	8082                	ret
 8001454:	48cc                	lw	a1,20(s1)
 8001456:	f9b9                	bnez	a1,80013ac <_reclaim_reent+0x68>
 8001458:	b78d                	j	80013ba <_reclaim_reent+0x76>

0800145a <__sread>:
 800145a:	1141                	addi	sp,sp,-16
 800145c:	c422                	sw	s0,8(sp)
 800145e:	842e                	mv	s0,a1
 8001460:	00e59583          	lh	a1,14(a1)
 8001464:	c606                	sw	ra,12(sp)
 8001466:	00004097          	auipc	ra,0x4
 800146a:	122080e7          	jalr	290(ra) # 8005588 <_read_r>
 800146e:	02054263          	bltz	a0,8001492 <__sread+0x38>
 8001472:	4c3c                	lw	a5,88(s0)
 8001474:	4c74                	lw	a3,92(s0)
 8001476:	41f55713          	srai	a4,a0,0x1f
 800147a:	00a78633          	add	a2,a5,a0
 800147e:	00f637b3          	sltu	a5,a2,a5
 8001482:	9736                	add	a4,a4,a3
 8001484:	97ba                	add	a5,a5,a4
 8001486:	40b2                	lw	ra,12(sp)
 8001488:	cc30                	sw	a2,88(s0)
 800148a:	cc7c                	sw	a5,92(s0)
 800148c:	4422                	lw	s0,8(sp)
 800148e:	0141                	addi	sp,sp,16
 8001490:	8082                	ret
 8001492:	00c45783          	lhu	a5,12(s0)
 8001496:	777d                	lui	a4,0xfffff
 8001498:	177d                	addi	a4,a4,-1
 800149a:	8ff9                	and	a5,a5,a4
 800149c:	40b2                	lw	ra,12(sp)
 800149e:	00f41623          	sh	a5,12(s0)
 80014a2:	4422                	lw	s0,8(sp)
 80014a4:	0141                	addi	sp,sp,16
 80014a6:	8082                	ret

080014a8 <__seofread>:
 80014a8:	4501                	li	a0,0
 80014aa:	8082                	ret

080014ac <__swrite>:
 80014ac:	00c59783          	lh	a5,12(a1)
 80014b0:	1101                	addi	sp,sp,-32
 80014b2:	cc22                	sw	s0,24(sp)
 80014b4:	ca26                	sw	s1,20(sp)
 80014b6:	c84a                	sw	s2,16(sp)
 80014b8:	c64e                	sw	s3,12(sp)
 80014ba:	ce06                	sw	ra,28(sp)
 80014bc:	1007f713          	andi	a4,a5,256
 80014c0:	842e                	mv	s0,a1
 80014c2:	84aa                	mv	s1,a0
 80014c4:	00e59583          	lh	a1,14(a1)
 80014c8:	8932                	mv	s2,a2
 80014ca:	89b6                	mv	s3,a3
 80014cc:	e31d                	bnez	a4,80014f2 <__swrite+0x46>
 80014ce:	777d                	lui	a4,0xfffff
 80014d0:	177d                	addi	a4,a4,-1
 80014d2:	8ff9                	and	a5,a5,a4
 80014d4:	00f41623          	sh	a5,12(s0)
 80014d8:	4462                	lw	s0,24(sp)
 80014da:	40f2                	lw	ra,28(sp)
 80014dc:	86ce                	mv	a3,s3
 80014de:	864a                	mv	a2,s2
 80014e0:	49b2                	lw	s3,12(sp)
 80014e2:	4942                	lw	s2,16(sp)
 80014e4:	8526                	mv	a0,s1
 80014e6:	44d2                	lw	s1,20(sp)
 80014e8:	6105                	addi	sp,sp,32
 80014ea:	00004317          	auipc	t1,0x4
 80014ee:	f0a30067          	jr	-246(t1) # 80053f4 <_write_r>
 80014f2:	4709                	li	a4,2
 80014f4:	4601                	li	a2,0
 80014f6:	4681                	li	a3,0
 80014f8:	00004097          	auipc	ra,0x4
 80014fc:	1f2080e7          	jalr	498(ra) # 80056ea <_lseek_r>
 8001500:	00c41783          	lh	a5,12(s0)
 8001504:	00e41583          	lh	a1,14(s0)
 8001508:	b7d9                	j	80014ce <__swrite+0x22>

0800150a <__sseek>:
 800150a:	1141                	addi	sp,sp,-16
 800150c:	c422                	sw	s0,8(sp)
 800150e:	842e                	mv	s0,a1
 8001510:	00e59583          	lh	a1,14(a1)
 8001514:	8736                	mv	a4,a3
 8001516:	41f65693          	srai	a3,a2,0x1f
 800151a:	c606                	sw	ra,12(sp)
 800151c:	00004097          	auipc	ra,0x4
 8001520:	1ce080e7          	jalr	462(ra) # 80056ea <_lseek_r>
 8001524:	57fd                	li	a5,-1
 8001526:	00f50e63          	beq	a0,a5,8001542 <__sseek+0x38>
 800152a:	00c45783          	lhu	a5,12(s0)
 800152e:	6705                	lui	a4,0x1
 8001530:	40b2                	lw	ra,12(sp)
 8001532:	8fd9                	or	a5,a5,a4
 8001534:	cc28                	sw	a0,88(s0)
 8001536:	00f41623          	sh	a5,12(s0)
 800153a:	cc6c                	sw	a1,92(s0)
 800153c:	4422                	lw	s0,8(sp)
 800153e:	0141                	addi	sp,sp,16
 8001540:	8082                	ret
 8001542:	fea594e3          	bne	a1,a0,800152a <__sseek+0x20>
 8001546:	00c45783          	lhu	a5,12(s0)
 800154a:	777d                	lui	a4,0xfffff
 800154c:	177d                	addi	a4,a4,-1
 800154e:	8ff9                	and	a5,a5,a4
 8001550:	40b2                	lw	ra,12(sp)
 8001552:	00f41623          	sh	a5,12(s0)
 8001556:	4422                	lw	s0,8(sp)
 8001558:	0141                	addi	sp,sp,16
 800155a:	8082                	ret

0800155c <__sclose>:
 800155c:	00e59583          	lh	a1,14(a1)
 8001560:	00004317          	auipc	t1,0x4
 8001564:	db630067          	jr	-586(t1) # 8005316 <_close_r>

08001568 <strcmp>:
 8001568:	00b56733          	or	a4,a0,a1
 800156c:	53fd                	li	t2,-1
 800156e:	8b0d                	andi	a4,a4,3
 8001570:	e779                	bnez	a4,800163e <strcmp+0xd6>
 8001572:	7f7f87b7          	lui	a5,0x7f7f8
 8001576:	f7f78793          	addi	a5,a5,-129 # 7f7f7f7f <_heap_end+0x5f7eff7f>
 800157a:	4110                	lw	a2,0(a0)
 800157c:	4194                	lw	a3,0(a1)
 800157e:	00f672b3          	and	t0,a2,a5
 8001582:	00f66333          	or	t1,a2,a5
 8001586:	92be                	add	t0,t0,a5
 8001588:	0062e2b3          	or	t0,t0,t1
 800158c:	0c729763          	bne	t0,t2,800165a <strcmp+0xf2>
 8001590:	06d61863          	bne	a2,a3,8001600 <strcmp+0x98>
 8001594:	4150                	lw	a2,4(a0)
 8001596:	41d4                	lw	a3,4(a1)
 8001598:	00f672b3          	and	t0,a2,a5
 800159c:	00f66333          	or	t1,a2,a5
 80015a0:	92be                	add	t0,t0,a5
 80015a2:	0062e2b3          	or	t0,t0,t1
 80015a6:	0a729863          	bne	t0,t2,8001656 <strcmp+0xee>
 80015aa:	04d61b63          	bne	a2,a3,8001600 <strcmp+0x98>
 80015ae:	4510                	lw	a2,8(a0)
 80015b0:	4594                	lw	a3,8(a1)
 80015b2:	00f672b3          	and	t0,a2,a5
 80015b6:	00f66333          	or	t1,a2,a5
 80015ba:	92be                	add	t0,t0,a5
 80015bc:	0062e2b3          	or	t0,t0,t1
 80015c0:	0a729163          	bne	t0,t2,8001662 <strcmp+0xfa>
 80015c4:	02d61e63          	bne	a2,a3,8001600 <strcmp+0x98>
 80015c8:	4550                	lw	a2,12(a0)
 80015ca:	45d4                	lw	a3,12(a1)
 80015cc:	00f672b3          	and	t0,a2,a5
 80015d0:	00f66333          	or	t1,a2,a5
 80015d4:	92be                	add	t0,t0,a5
 80015d6:	0062e2b3          	or	t0,t0,t1
 80015da:	08729a63          	bne	t0,t2,800166e <strcmp+0x106>
 80015de:	02d61163          	bne	a2,a3,8001600 <strcmp+0x98>
 80015e2:	4910                	lw	a2,16(a0)
 80015e4:	4994                	lw	a3,16(a1)
 80015e6:	00f672b3          	and	t0,a2,a5
 80015ea:	00f66333          	or	t1,a2,a5
 80015ee:	92be                	add	t0,t0,a5
 80015f0:	0062e2b3          	or	t0,t0,t1
 80015f4:	08729363          	bne	t0,t2,800167a <strcmp+0x112>
 80015f8:	0551                	addi	a0,a0,20
 80015fa:	05d1                	addi	a1,a1,20
 80015fc:	f6d60fe3          	beq	a2,a3,800157a <strcmp+0x12>
 8001600:	01061713          	slli	a4,a2,0x10
 8001604:	01069793          	slli	a5,a3,0x10
 8001608:	00f71c63          	bne	a4,a5,8001620 <strcmp+0xb8>
 800160c:	01065713          	srli	a4,a2,0x10
 8001610:	0106d793          	srli	a5,a3,0x10
 8001614:	40f70533          	sub	a0,a4,a5
 8001618:	0ff57593          	andi	a1,a0,255
 800161c:	e991                	bnez	a1,8001630 <strcmp+0xc8>
 800161e:	8082                	ret
 8001620:	8341                	srli	a4,a4,0x10
 8001622:	83c1                	srli	a5,a5,0x10
 8001624:	40f70533          	sub	a0,a4,a5
 8001628:	0ff57593          	andi	a1,a0,255
 800162c:	e191                	bnez	a1,8001630 <strcmp+0xc8>
 800162e:	8082                	ret
 8001630:	0ff77713          	andi	a4,a4,255
 8001634:	0ff7f793          	andi	a5,a5,255
 8001638:	40f70533          	sub	a0,a4,a5
 800163c:	8082                	ret
 800163e:	00054603          	lbu	a2,0(a0)
 8001642:	0005c683          	lbu	a3,0(a1)
 8001646:	0505                	addi	a0,a0,1
 8001648:	0585                	addi	a1,a1,1
 800164a:	00d61363          	bne	a2,a3,8001650 <strcmp+0xe8>
 800164e:	fa65                	bnez	a2,800163e <strcmp+0xd6>
 8001650:	40d60533          	sub	a0,a2,a3
 8001654:	8082                	ret
 8001656:	0511                	addi	a0,a0,4
 8001658:	0591                	addi	a1,a1,4
 800165a:	fed612e3          	bne	a2,a3,800163e <strcmp+0xd6>
 800165e:	4501                	li	a0,0
 8001660:	8082                	ret
 8001662:	0521                	addi	a0,a0,8
 8001664:	05a1                	addi	a1,a1,8
 8001666:	fcd61ce3          	bne	a2,a3,800163e <strcmp+0xd6>
 800166a:	4501                	li	a0,0
 800166c:	8082                	ret
 800166e:	0531                	addi	a0,a0,12
 8001670:	05b1                	addi	a1,a1,12
 8001672:	fcd616e3          	bne	a2,a3,800163e <strcmp+0xd6>
 8001676:	4501                	li	a0,0
 8001678:	8082                	ret
 800167a:	0541                	addi	a0,a0,16
 800167c:	05c1                	addi	a1,a1,16
 800167e:	fcd610e3          	bne	a2,a3,800163e <strcmp+0xd6>
 8001682:	4501                	li	a0,0
 8001684:	8082                	ret

08001686 <strlen>:
 8001686:	00357793          	andi	a5,a0,3
 800168a:	872a                	mv	a4,a0
 800168c:	ef95                	bnez	a5,80016c8 <strlen+0x42>
 800168e:	7f7f86b7          	lui	a3,0x7f7f8
 8001692:	f7f68693          	addi	a3,a3,-129 # 7f7f7f7f <_heap_end+0x5f7eff7f>
 8001696:	55fd                	li	a1,-1
 8001698:	4310                	lw	a2,0(a4)
 800169a:	0711                	addi	a4,a4,4
 800169c:	00d677b3          	and	a5,a2,a3
 80016a0:	97b6                	add	a5,a5,a3
 80016a2:	8fd1                	or	a5,a5,a2
 80016a4:	8fd5                	or	a5,a5,a3
 80016a6:	feb789e3          	beq	a5,a1,8001698 <strlen+0x12>
 80016aa:	ffc74683          	lbu	a3,-4(a4) # ffffeffc <_heap_end+0xdfff6ffc>
 80016ae:	ffd74603          	lbu	a2,-3(a4)
 80016b2:	ffe74783          	lbu	a5,-2(a4)
 80016b6:	8f09                	sub	a4,a4,a0
 80016b8:	c68d                	beqz	a3,80016e2 <strlen+0x5c>
 80016ba:	c20d                	beqz	a2,80016dc <strlen+0x56>
 80016bc:	00f03533          	snez	a0,a5
 80016c0:	953a                	add	a0,a0,a4
 80016c2:	1579                	addi	a0,a0,-2
 80016c4:	8082                	ret
 80016c6:	d6e1                	beqz	a3,800168e <strlen+0x8>
 80016c8:	00074783          	lbu	a5,0(a4)
 80016cc:	0705                	addi	a4,a4,1
 80016ce:	00377693          	andi	a3,a4,3
 80016d2:	fbf5                	bnez	a5,80016c6 <strlen+0x40>
 80016d4:	8f09                	sub	a4,a4,a0
 80016d6:	fff70513          	addi	a0,a4,-1
 80016da:	8082                	ret
 80016dc:	ffd70513          	addi	a0,a4,-3
 80016e0:	8082                	ret
 80016e2:	ffc70513          	addi	a0,a4,-4
 80016e6:	8082                	ret

080016e8 <__sprint_r.part.0>:
 80016e8:	5dbc                	lw	a5,120(a1)
 80016ea:	7179                	addi	sp,sp,-48
 80016ec:	c85a                	sw	s6,16(sp)
 80016ee:	d606                	sw	ra,44(sp)
 80016f0:	d422                	sw	s0,40(sp)
 80016f2:	d226                	sw	s1,36(sp)
 80016f4:	d04a                	sw	s2,32(sp)
 80016f6:	ce4e                	sw	s3,28(sp)
 80016f8:	cc52                	sw	s4,24(sp)
 80016fa:	ca56                	sw	s5,20(sp)
 80016fc:	c65e                	sw	s7,12(sp)
 80016fe:	c462                	sw	s8,8(sp)
 8001700:	01279713          	slli	a4,a5,0x12
 8001704:	8b32                	mv	s6,a2
 8001706:	06075d63          	bgez	a4,8001780 <__sprint_r.part.0+0x98>
 800170a:	461c                	lw	a5,8(a2)
 800170c:	00062b83          	lw	s7,0(a2)
 8001710:	892e                	mv	s2,a1
 8001712:	89aa                	mv	s3,a0
 8001714:	5afd                	li	s5,-1
 8001716:	c3bd                	beqz	a5,800177c <__sprint_r.part.0+0x94>
 8001718:	004bac03          	lw	s8,4(s7)
 800171c:	000ba403          	lw	s0,0(s7)
 8001720:	002c5a13          	srli	s4,s8,0x2
 8001724:	040a0463          	beqz	s4,800176c <__sprint_r.part.0+0x84>
 8001728:	4481                	li	s1,0
 800172a:	a021                	j	8001732 <__sprint_r.part.0+0x4a>
 800172c:	0411                	addi	s0,s0,4
 800172e:	029a0d63          	beq	s4,s1,8001768 <__sprint_r.part.0+0x80>
 8001732:	400c                	lw	a1,0(s0)
 8001734:	864a                	mv	a2,s2
 8001736:	854e                	mv	a0,s3
 8001738:	00001097          	auipc	ra,0x1
 800173c:	478080e7          	jalr	1144(ra) # 8002bb0 <_fputwc_r>
 8001740:	0485                	addi	s1,s1,1
 8001742:	ff5515e3          	bne	a0,s5,800172c <__sprint_r.part.0+0x44>
 8001746:	557d                	li	a0,-1
 8001748:	50b2                	lw	ra,44(sp)
 800174a:	5422                	lw	s0,40(sp)
 800174c:	000b2423          	sw	zero,8(s6)
 8001750:	000b2223          	sw	zero,4(s6)
 8001754:	5492                	lw	s1,36(sp)
 8001756:	5902                	lw	s2,32(sp)
 8001758:	49f2                	lw	s3,28(sp)
 800175a:	4a62                	lw	s4,24(sp)
 800175c:	4ad2                	lw	s5,20(sp)
 800175e:	4b42                	lw	s6,16(sp)
 8001760:	4bb2                	lw	s7,12(sp)
 8001762:	4c22                	lw	s8,8(sp)
 8001764:	6145                	addi	sp,sp,48
 8001766:	8082                	ret
 8001768:	008b2783          	lw	a5,8(s6)
 800176c:	ffcc7c13          	andi	s8,s8,-4
 8001770:	418787b3          	sub	a5,a5,s8
 8001774:	00fb2423          	sw	a5,8(s6)
 8001778:	0ba1                	addi	s7,s7,8
 800177a:	ffd9                	bnez	a5,8001718 <__sprint_r.part.0+0x30>
 800177c:	4501                	li	a0,0
 800177e:	b7e9                	j	8001748 <__sprint_r.part.0+0x60>
 8001780:	00002097          	auipc	ra,0x2
 8001784:	85e080e7          	jalr	-1954(ra) # 8002fde <__sfvwrite_r>
 8001788:	b7c1                	j	8001748 <__sprint_r.part.0+0x60>

0800178a <__sprint_r>:
 800178a:	4618                	lw	a4,8(a2)
 800178c:	c709                	beqz	a4,8001796 <__sprint_r+0xc>
 800178e:	00000317          	auipc	t1,0x0
 8001792:	f5a30067          	jr	-166(t1) # 80016e8 <__sprint_r.part.0>
 8001796:	00062223          	sw	zero,4(a2)
 800179a:	4501                	li	a0,0
 800179c:	8082                	ret

0800179e <_vfiprintf_r>:
 800179e:	7115                	addi	sp,sp,-224
 80017a0:	c9ca                	sw	s2,208(sp)
 80017a2:	c3d6                	sw	s5,196(sp)
 80017a4:	d76e                	sw	s11,172(sp)
 80017a6:	cf86                	sw	ra,220(sp)
 80017a8:	cda2                	sw	s0,216(sp)
 80017aa:	cba6                	sw	s1,212(sp)
 80017ac:	c7ce                	sw	s3,204(sp)
 80017ae:	c5d2                	sw	s4,200(sp)
 80017b0:	c1da                	sw	s6,192(sp)
 80017b2:	df5e                	sw	s7,188(sp)
 80017b4:	dd62                	sw	s8,184(sp)
 80017b6:	db66                	sw	s9,180(sp)
 80017b8:	d96a                	sw	s10,176(sp)
 80017ba:	c436                	sw	a3,8(sp)
 80017bc:	8aaa                	mv	s5,a0
 80017be:	892e                	mv	s2,a1
 80017c0:	8db2                	mv	s11,a2
 80017c2:	c501                	beqz	a0,80017ca <_vfiprintf_r+0x2c>
 80017c4:	4d1c                	lw	a5,24(a0)
 80017c6:	40078563          	beqz	a5,8001bd0 <_vfiprintf_r+0x432>
 80017ca:	102c                	addi	a1,sp,40
 80017cc:	4505                	li	a0,1
 80017ce:	00005097          	auipc	ra,0x5
 80017d2:	7ee080e7          	jalr	2030(ra) # 8006fbc <pthread_setcancelstate>
 80017d6:	07892783          	lw	a5,120(s2)
 80017da:	00c91703          	lh	a4,12(s2)
 80017de:	8b85                	andi	a5,a5,1
 80017e0:	38079363          	bnez	a5,8001b66 <_vfiprintf_r+0x3c8>
 80017e4:	01071793          	slli	a5,a4,0x10
 80017e8:	20077693          	andi	a3,a4,512
 80017ec:	83c1                	srli	a5,a5,0x10
 80017ee:	36068463          	beqz	a3,8001b56 <_vfiprintf_r+0x3b8>
 80017f2:	01279693          	slli	a3,a5,0x12
 80017f6:	0006cf63          	bltz	a3,8001814 <_vfiprintf_r+0x76>
 80017fa:	07892683          	lw	a3,120(s2)
 80017fe:	6789                	lui	a5,0x2
 8001800:	8fd9                	or	a5,a5,a4
 8001802:	7779                	lui	a4,0xffffe
 8001804:	177d                	addi	a4,a4,-1
 8001806:	8f75                	and	a4,a4,a3
 8001808:	00f91623          	sh	a5,12(s2)
 800180c:	07c2                	slli	a5,a5,0x10
 800180e:	06e92c23          	sw	a4,120(s2)
 8001812:	83c1                	srli	a5,a5,0x10
 8001814:	0087f713          	andi	a4,a5,8
 8001818:	24070b63          	beqz	a4,8001a6e <_vfiprintf_r+0x2d0>
 800181c:	01092703          	lw	a4,16(s2)
 8001820:	24070763          	beqz	a4,8001a6e <_vfiprintf_r+0x2d0>
 8001824:	01a7f713          	andi	a4,a5,26
 8001828:	46a9                	li	a3,10
 800182a:	26d70163          	beq	a4,a3,8001a8c <_vfiprintf_r+0x2ee>
 800182e:	0800a7b7          	lui	a5,0x800a
 8001832:	1084                	addi	s1,sp,96
 8001834:	a9c78793          	addi	a5,a5,-1380 # 8009a9c <_ZN6miosixL3verE+0x90>
 8001838:	0800ac37          	lui	s8,0x800a
 800183c:	0800a9b7          	lui	s3,0x800a
 8001840:	d626                	sw	s1,44(sp)
 8001842:	da02                	sw	zero,52(sp)
 8001844:	d802                	sw	zero,48(sp)
 8001846:	8726                	mv	a4,s1
 8001848:	c602                	sw	zero,12(sp)
 800184a:	c202                	sw	zero,4(sp)
 800184c:	c83e                	sw	a5,16(sp)
 800184e:	c00c0c13          	addi	s8,s8,-1024 # 8009c00 <blanks.4823>
 8001852:	c1098993          	addi	s3,s3,-1008 # 8009c10 <zeroes.4824>
 8001856:	000dc783          	lbu	a5,0(s11)
 800185a:	1c078563          	beqz	a5,8001a24 <_vfiprintf_r+0x286>
 800185e:	846e                	mv	s0,s11
 8001860:	02500693          	li	a3,37
 8001864:	2ed78263          	beq	a5,a3,8001b48 <_vfiprintf_r+0x3aa>
 8001868:	00144783          	lbu	a5,1(s0)
 800186c:	0405                	addi	s0,s0,1
 800186e:	fbfd                	bnez	a5,8001864 <_vfiprintf_r+0xc6>
 8001870:	41b40a33          	sub	s4,s0,s11
 8001874:	1bb40863          	beq	s0,s11,8001a24 <_vfiprintf_r+0x286>
 8001878:	56d2                	lw	a3,52(sp)
 800187a:	57c2                	lw	a5,48(sp)
 800187c:	01b72023          	sw	s11,0(a4) # ffffe000 <_heap_end+0xdfff6000>
 8001880:	96d2                	add	a3,a3,s4
 8001882:	0785                	addi	a5,a5,1
 8001884:	01472223          	sw	s4,4(a4)
 8001888:	da36                	sw	a3,52(sp)
 800188a:	d83e                	sw	a5,48(sp)
 800188c:	461d                	li	a2,7
 800188e:	0721                	addi	a4,a4,8
 8001890:	00f65e63          	bge	a2,a5,80018ac <_vfiprintf_r+0x10e>
 8001894:	180680e3          	beqz	a3,8002214 <_vfiprintf_r+0xa76>
 8001898:	1070                	addi	a2,sp,44
 800189a:	85ca                	mv	a1,s2
 800189c:	8556                	mv	a0,s5
 800189e:	00000097          	auipc	ra,0x0
 80018a2:	e4a080e7          	jalr	-438(ra) # 80016e8 <__sprint_r.part.0>
 80018a6:	18051363          	bnez	a0,8001a2c <_vfiprintf_r+0x28e>
 80018aa:	8726                	mv	a4,s1
 80018ac:	4692                	lw	a3,4(sp)
 80018ae:	00044783          	lbu	a5,0(s0)
 80018b2:	96d2                	add	a3,a3,s4
 80018b4:	c236                	sw	a3,4(sp)
 80018b6:	16078763          	beqz	a5,8001a24 <_vfiprintf_r+0x286>
 80018ba:	00144783          	lbu	a5,1(s0)
 80018be:	00140d93          	addi	s11,s0,1
 80018c2:	020101a3          	sb	zero,35(sp)
 80018c6:	4301                	li	t1,0
 80018c8:	4e01                	li	t3,0
 80018ca:	5d7d                	li	s10,-1
 80018cc:	4401                	li	s0,0
 80018ce:	4e81                	li	t4,0
 80018d0:	05800593          	li	a1,88
 80018d4:	4525                	li	a0,9
 80018d6:	02a00f93          	li	t6,42
 80018da:	06c00f13          	li	t5,108
 80018de:	0d85                	addi	s11,s11,1
 80018e0:	fe078693          	addi	a3,a5,-32
 80018e4:	02d5ea63          	bltu	a1,a3,8001918 <_vfiprintf_r+0x17a>
 80018e8:	4642                	lw	a2,16(sp)
 80018ea:	068a                	slli	a3,a3,0x2
 80018ec:	96b2                	add	a3,a3,a2
 80018ee:	4294                	lw	a3,0(a3)
 80018f0:	8682                	jr	a3
 80018f2:	4401                	li	s0,0
 80018f4:	fd078693          	addi	a3,a5,-48
 80018f8:	000dc783          	lbu	a5,0(s11)
 80018fc:	00241613          	slli	a2,s0,0x2
 8001900:	9432                	add	s0,s0,a2
 8001902:	0406                	slli	s0,s0,0x1
 8001904:	9436                	add	s0,s0,a3
 8001906:	fd078693          	addi	a3,a5,-48
 800190a:	0d85                	addi	s11,s11,1
 800190c:	fed576e3          	bgeu	a0,a3,80018f8 <_vfiprintf_r+0x15a>
 8001910:	fe078693          	addi	a3,a5,-32
 8001914:	fcd5fae3          	bgeu	a1,a3,80018e8 <_vfiprintf_r+0x14a>
 8001918:	2e031ae3          	bnez	t1,800240c <_vfiprintf_r+0xc6e>
 800191c:	10078463          	beqz	a5,8001a24 <_vfiprintf_r+0x286>
 8001920:	02f10c23          	sb	a5,56(sp)
 8001924:	020101a3          	sb	zero,35(sp)
 8001928:	4a05                	li	s4,1
 800192a:	4c85                	li	s9,1
 800192c:	03810b13          	addi	s6,sp,56
 8001930:	8bf6                	mv	s7,t4
 8001932:	4d01                	li	s10,0
 8001934:	002bff13          	andi	t5,s7,2
 8001938:	000f0363          	beqz	t5,800193e <_vfiprintf_r+0x1a0>
 800193c:	0a09                	addi	s4,s4,2
 800193e:	56c2                	lw	a3,48(sp)
 8001940:	084bfe93          	andi	t4,s7,132
 8001944:	57d2                	lw	a5,52(sp)
 8001946:	00168613          	addi	a2,a3,1
 800194a:	85b2                	mv	a1,a2
 800194c:	000e9663          	bnez	t4,8001958 <_vfiprintf_r+0x1ba>
 8001950:	41440333          	sub	t1,s0,s4
 8001954:	006041e3          	bgtz	t1,8002156 <_vfiprintf_r+0x9b8>
 8001958:	02314503          	lbu	a0,35(sp)
 800195c:	00870613          	addi	a2,a4,8
 8001960:	c105                	beqz	a0,8001980 <_vfiprintf_r+0x1e2>
 8001962:	02310693          	addi	a3,sp,35
 8001966:	c314                	sw	a3,0(a4)
 8001968:	0785                	addi	a5,a5,1
 800196a:	4685                	li	a3,1
 800196c:	c354                	sw	a3,4(a4)
 800196e:	da3e                	sw	a5,52(sp)
 8001970:	d82e                	sw	a1,48(sp)
 8001972:	471d                	li	a4,7
 8001974:	76b74463          	blt	a4,a1,80020dc <_vfiprintf_r+0x93e>
 8001978:	86ae                	mv	a3,a1
 800197a:	8732                	mv	a4,a2
 800197c:	0585                	addi	a1,a1,1
 800197e:	0621                	addi	a2,a2,8
 8001980:	020f0e63          	beqz	t5,80019bc <_vfiprintf_r+0x21e>
 8001984:	1054                	addi	a3,sp,36
 8001986:	c314                	sw	a3,0(a4)
 8001988:	0789                	addi	a5,a5,2
 800198a:	4689                	li	a3,2
 800198c:	c354                	sw	a3,4(a4)
 800198e:	da3e                	sw	a5,52(sp)
 8001990:	d82e                	sw	a1,48(sp)
 8001992:	471d                	li	a4,7
 8001994:	78b75863          	bge	a4,a1,8002124 <_vfiprintf_r+0x986>
 8001998:	08078ae3          	beqz	a5,800222c <_vfiprintf_r+0xa8e>
 800199c:	1070                	addi	a2,sp,44
 800199e:	85ca                	mv	a1,s2
 80019a0:	8556                	mv	a0,s5
 80019a2:	ca76                	sw	t4,20(sp)
 80019a4:	00000097          	auipc	ra,0x0
 80019a8:	d44080e7          	jalr	-700(ra) # 80016e8 <__sprint_r.part.0>
 80019ac:	e141                	bnez	a0,8001a2c <_vfiprintf_r+0x28e>
 80019ae:	56c2                	lw	a3,48(sp)
 80019b0:	57d2                	lw	a5,52(sp)
 80019b2:	4ed2                	lw	t4,20(sp)
 80019b4:	10b0                	addi	a2,sp,104
 80019b6:	00168593          	addi	a1,a3,1
 80019ba:	8726                	mv	a4,s1
 80019bc:	08000513          	li	a0,128
 80019c0:	5cae8e63          	beq	t4,a0,8001f9c <_vfiprintf_r+0x7fe>
 80019c4:	419d0d33          	sub	s10,s10,s9
 80019c8:	67a04b63          	bgtz	s10,800203e <_vfiprintf_r+0x8a0>
 80019cc:	97e6                	add	a5,a5,s9
 80019ce:	01672023          	sw	s6,0(a4)
 80019d2:	01972223          	sw	s9,4(a4)
 80019d6:	da3e                	sw	a5,52(sp)
 80019d8:	d82e                	sw	a1,48(sp)
 80019da:	471d                	li	a4,7
 80019dc:	00b75e63          	bge	a4,a1,80019f8 <_vfiprintf_r+0x25a>
 80019e0:	1e078d63          	beqz	a5,8001bda <_vfiprintf_r+0x43c>
 80019e4:	1070                	addi	a2,sp,44
 80019e6:	85ca                	mv	a1,s2
 80019e8:	8556                	mv	a0,s5
 80019ea:	00000097          	auipc	ra,0x0
 80019ee:	cfe080e7          	jalr	-770(ra) # 80016e8 <__sprint_r.part.0>
 80019f2:	ed0d                	bnez	a0,8001a2c <_vfiprintf_r+0x28e>
 80019f4:	57d2                	lw	a5,52(sp)
 80019f6:	8626                	mv	a2,s1
 80019f8:	004bfb93          	andi	s7,s7,4
 80019fc:	000b8663          	beqz	s7,8001a08 <_vfiprintf_r+0x26a>
 8001a00:	41440bb3          	sub	s7,s0,s4
 8001a04:	1f704563          	bgtz	s7,8001bee <_vfiprintf_r+0x450>
 8001a08:	01445363          	bge	s0,s4,8001a0e <_vfiprintf_r+0x270>
 8001a0c:	8452                	mv	s0,s4
 8001a0e:	4712                	lw	a4,4(sp)
 8001a10:	9722                	add	a4,a4,s0
 8001a12:	c23a                	sw	a4,4(sp)
 8001a14:	6a079663          	bnez	a5,80020c0 <_vfiprintf_r+0x922>
 8001a18:	000dc783          	lbu	a5,0(s11)
 8001a1c:	d802                	sw	zero,48(sp)
 8001a1e:	8726                	mv	a4,s1
 8001a20:	e2079fe3          	bnez	a5,800185e <_vfiprintf_r+0xc0>
 8001a24:	57d2                	lw	a5,52(sp)
 8001a26:	1e0797e3          	bnez	a5,8002414 <_vfiprintf_r+0xc76>
 8001a2a:	d802                	sw	zero,48(sp)
 8001a2c:	07892783          	lw	a5,120(s2)
 8001a30:	8b85                	andi	a5,a5,1
 8001a32:	12078e63          	beqz	a5,8001b6e <_vfiprintf_r+0x3d0>
 8001a36:	5522                	lw	a0,40(sp)
 8001a38:	102c                	addi	a1,sp,40
 8001a3a:	00005097          	auipc	ra,0x5
 8001a3e:	582080e7          	jalr	1410(ra) # 8006fbc <pthread_setcancelstate>
 8001a42:	00c95783          	lhu	a5,12(s2)
 8001a46:	0407f793          	andi	a5,a5,64
 8001a4a:	240793e3          	bnez	a5,8002490 <_vfiprintf_r+0xcf2>
 8001a4e:	40fe                	lw	ra,220(sp)
 8001a50:	446e                	lw	s0,216(sp)
 8001a52:	4512                	lw	a0,4(sp)
 8001a54:	44de                	lw	s1,212(sp)
 8001a56:	494e                	lw	s2,208(sp)
 8001a58:	49be                	lw	s3,204(sp)
 8001a5a:	4a2e                	lw	s4,200(sp)
 8001a5c:	4a9e                	lw	s5,196(sp)
 8001a5e:	4b0e                	lw	s6,192(sp)
 8001a60:	5bfa                	lw	s7,188(sp)
 8001a62:	5c6a                	lw	s8,184(sp)
 8001a64:	5cda                	lw	s9,180(sp)
 8001a66:	5d4a                	lw	s10,176(sp)
 8001a68:	5dba                	lw	s11,172(sp)
 8001a6a:	612d                	addi	sp,sp,224
 8001a6c:	8082                	ret
 8001a6e:	85ca                	mv	a1,s2
 8001a70:	8556                	mv	a0,s5
 8001a72:	00001097          	auipc	ra,0x1
 8001a76:	b56080e7          	jalr	-1194(ra) # 80025c8 <__swsetup_r>
 8001a7a:	7c051263          	bnez	a0,800223e <_vfiprintf_r+0xaa0>
 8001a7e:	00c95783          	lhu	a5,12(s2)
 8001a82:	46a9                	li	a3,10
 8001a84:	01a7f713          	andi	a4,a5,26
 8001a88:	dad713e3          	bne	a4,a3,800182e <_vfiprintf_r+0x90>
 8001a8c:	00e91703          	lh	a4,14(s2)
 8001a90:	d8074fe3          	bltz	a4,800182e <_vfiprintf_r+0x90>
 8001a94:	07892703          	lw	a4,120(s2)
 8001a98:	8b05                	andi	a4,a4,1
 8001a9a:	e709                	bnez	a4,8001aa4 <_vfiprintf_r+0x306>
 8001a9c:	2007f793          	andi	a5,a5,512
 8001aa0:	180786e3          	beqz	a5,800242c <_vfiprintf_r+0xc8e>
 8001aa4:	5522                	lw	a0,40(sp)
 8001aa6:	102c                	addi	a1,sp,40
 8001aa8:	00005097          	auipc	ra,0x5
 8001aac:	514080e7          	jalr	1300(ra) # 8006fbc <pthread_setcancelstate>
 8001ab0:	46a2                	lw	a3,8(sp)
 8001ab2:	866e                	mv	a2,s11
 8001ab4:	85ca                	mv	a1,s2
 8001ab6:	8556                	mv	a0,s5
 8001ab8:	00001097          	auipc	ra,0x1
 8001abc:	a2c080e7          	jalr	-1492(ra) # 80024e4 <__sbprintf>
 8001ac0:	c22a                	sw	a0,4(sp)
 8001ac2:	b771                	j	8001a4e <_vfiprintf_r+0x2b0>
 8001ac4:	010eee93          	ori	t4,t4,16
 8001ac8:	020ef793          	andi	a5,t4,32
 8001acc:	cfd5                	beqz	a5,8001b88 <_vfiprintf_r+0x3ea>
 8001ace:	47a2                	lw	a5,8(sp)
 8001ad0:	4685                	li	a3,1
 8001ad2:	00778b13          	addi	s6,a5,7
 8001ad6:	ff8b7b13          	andi	s6,s6,-8
 8001ada:	000b2c83          	lw	s9,0(s6)
 8001ade:	004b2a03          	lw	s4,4(s6)
 8001ae2:	008b0793          	addi	a5,s6,8
 8001ae6:	c43e                	sw	a5,8(sp)
 8001ae8:	020101a3          	sb	zero,35(sp)
 8001aec:	57fd                	li	a5,-1
 8001aee:	4f01                	li	t5,0
 8001af0:	2cfd0363          	beq	s10,a5,8001db6 <_vfiprintf_r+0x618>
 8001af4:	014ce7b3          	or	a5,s9,s4
 8001af8:	f7fefb93          	andi	s7,t4,-129
 8001afc:	62079b63          	bnez	a5,8002132 <_vfiprintf_r+0x994>
 8001b00:	440d1a63          	bnez	s10,8001f54 <_vfiprintf_r+0x7b6>
 8001b04:	72069a63          	bnez	a3,8002238 <_vfiprintf_r+0xa9a>
 8001b08:	001efc93          	andi	s9,t4,1
 8001b0c:	8b26                	mv	s6,s1
 8001b0e:	740c9c63          	bnez	s9,8002266 <_vfiprintf_r+0xac8>
 8001b12:	8a6a                	mv	s4,s10
 8001b14:	019d5363          	bge	s10,s9,8001b1a <_vfiprintf_r+0x37c>
 8001b18:	8a66                	mv	s4,s9
 8001b1a:	01e03f33          	snez	t5,t5
 8001b1e:	9a7a                	add	s4,s4,t5
 8001b20:	bd11                	j	8001934 <_vfiprintf_r+0x196>
 8001b22:	010eee93          	ori	t4,t4,16
 8001b26:	020ef793          	andi	a5,t4,32
 8001b2a:	c3c9                	beqz	a5,8001bac <_vfiprintf_r+0x40e>
 8001b2c:	47a2                	lw	a5,8(sp)
 8001b2e:	4681                	li	a3,0
 8001b30:	00778b13          	addi	s6,a5,7
 8001b34:	ff8b7b13          	andi	s6,s6,-8
 8001b38:	008b0793          	addi	a5,s6,8
 8001b3c:	000b2c83          	lw	s9,0(s6)
 8001b40:	004b2a03          	lw	s4,4(s6)
 8001b44:	c43e                	sw	a5,8(sp)
 8001b46:	b74d                	j	8001ae8 <_vfiprintf_r+0x34a>
 8001b48:	41b40a33          	sub	s4,s0,s11
 8001b4c:	d3b416e3          	bne	s0,s11,8001878 <_vfiprintf_r+0xda>
 8001b50:	00044783          	lbu	a5,0(s0)
 8001b54:	b38d                	j	80018b6 <_vfiprintf_r+0x118>
 8001b56:	06090513          	addi	a0,s2,96
 8001b5a:	00005097          	auipc	ra,0x5
 8001b5e:	2b6080e7          	jalr	694(ra) # 8006e10 <pthread_mutex_lock>
 8001b62:	00c91703          	lh	a4,12(s2)
 8001b66:	01071793          	slli	a5,a4,0x10
 8001b6a:	83c1                	srli	a5,a5,0x10
 8001b6c:	b159                	j	80017f2 <_vfiprintf_r+0x54>
 8001b6e:	00c95783          	lhu	a5,12(s2)
 8001b72:	2007f793          	andi	a5,a5,512
 8001b76:	ec0790e3          	bnez	a5,8001a36 <_vfiprintf_r+0x298>
 8001b7a:	06090513          	addi	a0,s2,96
 8001b7e:	00005097          	auipc	ra,0x5
 8001b82:	37a080e7          	jalr	890(ra) # 8006ef8 <pthread_mutex_unlock>
 8001b86:	bd45                	j	8001a36 <_vfiprintf_r+0x298>
 8001b88:	4622                	lw	a2,8(sp)
 8001b8a:	010ef793          	andi	a5,t4,16
 8001b8e:	00460693          	addi	a3,a2,4
 8001b92:	74079063          	bnez	a5,80022d2 <_vfiprintf_r+0xb34>
 8001b96:	040ef793          	andi	a5,t4,64
 8001b9a:	020787e3          	beqz	a5,80023c8 <_vfiprintf_r+0xc2a>
 8001b9e:	47a2                	lw	a5,8(sp)
 8001ba0:	4a01                	li	s4,0
 8001ba2:	c436                	sw	a3,8(sp)
 8001ba4:	0007dc83          	lhu	s9,0(a5)
 8001ba8:	4685                	li	a3,1
 8001baa:	bf3d                	j	8001ae8 <_vfiprintf_r+0x34a>
 8001bac:	4622                	lw	a2,8(sp)
 8001bae:	010ef793          	andi	a5,t4,16
 8001bb2:	00460693          	addi	a3,a2,4
 8001bb6:	72079463          	bnez	a5,80022de <_vfiprintf_r+0xb40>
 8001bba:	040ef793          	andi	a5,t4,64
 8001bbe:	00078de3          	beqz	a5,80023d8 <_vfiprintf_r+0xc3a>
 8001bc2:	47a2                	lw	a5,8(sp)
 8001bc4:	4a01                	li	s4,0
 8001bc6:	c436                	sw	a3,8(sp)
 8001bc8:	0007dc83          	lhu	s9,0(a5)
 8001bcc:	4681                	li	a3,0
 8001bce:	bf29                	j	8001ae8 <_vfiprintf_r+0x34a>
 8001bd0:	ffffe097          	auipc	ra,0xffffe
 8001bd4:	7b0080e7          	jalr	1968(ra) # 8000380 <__sinit>
 8001bd8:	becd                	j	80017ca <_vfiprintf_r+0x2c>
 8001bda:	d802                	sw	zero,48(sp)
 8001bdc:	004bfb93          	andi	s7,s7,4
 8001be0:	600b8163          	beqz	s7,80021e2 <_vfiprintf_r+0xa44>
 8001be4:	41440bb3          	sub	s7,s0,s4
 8001be8:	5f705d63          	blez	s7,80021e2 <_vfiprintf_r+0xa44>
 8001bec:	8626                	mv	a2,s1
 8001bee:	4741                	li	a4,16
 8001bf0:	56c2                	lw	a3,48(sp)
 8001bf2:	097756e3          	bge	a4,s7,800247e <_vfiprintf_r+0xce0>
 8001bf6:	4cc1                	li	s9,16
 8001bf8:	4b1d                	li	s6,7
 8001bfa:	a801                	j	8001c0a <_vfiprintf_r+0x46c>
 8001bfc:	00268593          	addi	a1,a3,2
 8001c00:	0621                	addi	a2,a2,8
 8001c02:	86ba                	mv	a3,a4
 8001c04:	1bc1                	addi	s7,s7,-16
 8001c06:	057cd063          	bge	s9,s7,8001c46 <_vfiprintf_r+0x4a8>
 8001c0a:	07c1                	addi	a5,a5,16
 8001c0c:	00168713          	addi	a4,a3,1
 8001c10:	01862023          	sw	s8,0(a2)
 8001c14:	01962223          	sw	s9,4(a2)
 8001c18:	da3e                	sw	a5,52(sp)
 8001c1a:	d83a                	sw	a4,48(sp)
 8001c1c:	feeb50e3          	bge	s6,a4,8001bfc <_vfiprintf_r+0x45e>
 8001c20:	36078a63          	beqz	a5,8001f94 <_vfiprintf_r+0x7f6>
 8001c24:	1070                	addi	a2,sp,44
 8001c26:	85ca                	mv	a1,s2
 8001c28:	8556                	mv	a0,s5
 8001c2a:	00000097          	auipc	ra,0x0
 8001c2e:	abe080e7          	jalr	-1346(ra) # 80016e8 <__sprint_r.part.0>
 8001c32:	de051de3          	bnez	a0,8001a2c <_vfiprintf_r+0x28e>
 8001c36:	56c2                	lw	a3,48(sp)
 8001c38:	1bc1                	addi	s7,s7,-16
 8001c3a:	57d2                	lw	a5,52(sp)
 8001c3c:	8626                	mv	a2,s1
 8001c3e:	00168593          	addi	a1,a3,1
 8001c42:	fd7cc4e3          	blt	s9,s7,8001c0a <_vfiprintf_r+0x46c>
 8001c46:	97de                	add	a5,a5,s7
 8001c48:	01862023          	sw	s8,0(a2)
 8001c4c:	01762223          	sw	s7,4(a2)
 8001c50:	da3e                	sw	a5,52(sp)
 8001c52:	d82e                	sw	a1,48(sp)
 8001c54:	471d                	li	a4,7
 8001c56:	dab759e3          	bge	a4,a1,8001a08 <_vfiprintf_r+0x26a>
 8001c5a:	58078463          	beqz	a5,80021e2 <_vfiprintf_r+0xa44>
 8001c5e:	1070                	addi	a2,sp,44
 8001c60:	85ca                	mv	a1,s2
 8001c62:	8556                	mv	a0,s5
 8001c64:	00000097          	auipc	ra,0x0
 8001c68:	a84080e7          	jalr	-1404(ra) # 80016e8 <__sprint_r.part.0>
 8001c6c:	dc0510e3          	bnez	a0,8001a2c <_vfiprintf_r+0x28e>
 8001c70:	57d2                	lw	a5,52(sp)
 8001c72:	bb59                	j	8001a08 <_vfiprintf_r+0x26a>
 8001c74:	7e031963          	bnez	t1,8002466 <_vfiprintf_r+0xcc8>
 8001c78:	020ef793          	andi	a5,t4,32
 8001c7c:	c7fd                	beqz	a5,8001d6a <_vfiprintf_r+0x5cc>
 8001c7e:	47a2                	lw	a5,8(sp)
 8001c80:	00778b13          	addi	s6,a5,7
 8001c84:	ff8b7b13          	andi	s6,s6,-8
 8001c88:	004b2783          	lw	a5,4(s6)
 8001c8c:	000b2c83          	lw	s9,0(s6)
 8001c90:	008b0693          	addi	a3,s6,8
 8001c94:	c436                	sw	a3,8(sp)
 8001c96:	8a3e                	mv	s4,a5
 8001c98:	0e07cd63          	bltz	a5,8001d92 <_vfiprintf_r+0x5f4>
 8001c9c:	57fd                	li	a5,-1
 8001c9e:	64fd0d63          	beq	s10,a5,80022f8 <_vfiprintf_r+0xb5a>
 8001ca2:	014ce7b3          	or	a5,s9,s4
 8001ca6:	02314f03          	lbu	t5,35(sp)
 8001caa:	f7fefe93          	andi	t4,t4,-129
 8001cae:	48079663          	bnez	a5,800213a <_vfiprintf_r+0x99c>
 8001cb2:	480d1963          	bnez	s10,8002144 <_vfiprintf_r+0x9a6>
 8001cb6:	4c81                	li	s9,0
 8001cb8:	8bf6                	mv	s7,t4
 8001cba:	8b26                	mv	s6,s1
 8001cbc:	bd99                	j	8001b12 <_vfiprintf_r+0x374>
 8001cbe:	000dc783          	lbu	a5,0(s11)
 8001cc2:	040eee93          	ori	t4,t4,64
 8001cc6:	b921                	j	80018de <_vfiprintf_r+0x140>
 8001cc8:	7a031863          	bnez	t1,8002478 <_vfiprintf_r+0xcda>
 8001ccc:	0800a6b7          	lui	a3,0x800a
 8001cd0:	6cc68693          	addi	a3,a3,1740 # 800a6cc <_ZTVSt9bad_alloc+0x68>
 8001cd4:	c636                	sw	a3,12(sp)
 8001cd6:	020ef693          	andi	a3,t4,32
 8001cda:	1e068563          	beqz	a3,8001ec4 <_vfiprintf_r+0x726>
 8001cde:	46a2                	lw	a3,8(sp)
 8001ce0:	00768b13          	addi	s6,a3,7
 8001ce4:	ff8b7b13          	andi	s6,s6,-8
 8001ce8:	000b2c83          	lw	s9,0(s6)
 8001cec:	004b2a03          	lw	s4,4(s6)
 8001cf0:	008b0693          	addi	a3,s6,8
 8001cf4:	c436                	sw	a3,8(sp)
 8001cf6:	001ef613          	andi	a2,t4,1
 8001cfa:	4689                	li	a3,2
 8001cfc:	de0606e3          	beqz	a2,8001ae8 <_vfiprintf_r+0x34a>
 8001d00:	014ce633          	or	a2,s9,s4
 8001d04:	de0602e3          	beqz	a2,8001ae8 <_vfiprintf_r+0x34a>
 8001d08:	03000613          	li	a2,48
 8001d0c:	02c10223          	sb	a2,36(sp)
 8001d10:	02f102a3          	sb	a5,37(sp)
 8001d14:	002eee93          	ori	t4,t4,2
 8001d18:	bbc1                	j	8001ae8 <_vfiprintf_r+0x34a>
 8001d1a:	47a2                	lw	a5,8(sp)
 8001d1c:	020101a3          	sb	zero,35(sp)
 8001d20:	0007ab03          	lw	s6,0(a5)
 8001d24:	00478b93          	addi	s7,a5,4
 8001d28:	620b0863          	beqz	s6,8002358 <_vfiprintf_r+0xbba>
 8001d2c:	57fd                	li	a5,-1
 8001d2e:	64fd0e63          	beq	s10,a5,800238a <_vfiprintf_r+0xbec>
 8001d32:	866a                	mv	a2,s10
 8001d34:	4581                	li	a1,0
 8001d36:	855a                	mv	a0,s6
 8001d38:	ca3a                	sw	a4,20(sp)
 8001d3a:	c476                	sw	t4,8(sp)
 8001d3c:	fffff097          	auipc	ra,0xfffff
 8001d40:	28e080e7          	jalr	654(ra) # 8000fca <memchr>
 8001d44:	4ea2                	lw	t4,8(sp)
 8001d46:	4752                	lw	a4,20(sp)
 8001d48:	02314f03          	lbu	t5,35(sp)
 8001d4c:	6e050e63          	beqz	a0,8002448 <_vfiprintf_r+0xcaa>
 8001d50:	c45e                	sw	s7,8(sp)
 8001d52:	41650cb3          	sub	s9,a0,s6
 8001d56:	8bf6                	mv	s7,t4
 8001d58:	4d01                	li	s10,0
 8001d5a:	bb65                	j	8001b12 <_vfiprintf_r+0x374>
 8001d5c:	6a031363          	bnez	t1,8002402 <_vfiprintf_r+0xc64>
 8001d60:	010eee93          	ori	t4,t4,16
 8001d64:	020ef793          	andi	a5,t4,32
 8001d68:	fb99                	bnez	a5,8001c7e <_vfiprintf_r+0x4e0>
 8001d6a:	4622                	lw	a2,8(sp)
 8001d6c:	010ef793          	andi	a5,t4,16
 8001d70:	00460693          	addi	a3,a2,4
 8001d74:	54079163          	bnez	a5,80022b6 <_vfiprintf_r+0xb18>
 8001d78:	040ef793          	andi	a5,t4,64
 8001d7c:	62078e63          	beqz	a5,80023b8 <_vfiprintf_r+0xc1a>
 8001d80:	47a2                	lw	a5,8(sp)
 8001d82:	c436                	sw	a3,8(sp)
 8001d84:	00079c83          	lh	s9,0(a5)
 8001d88:	41fcda13          	srai	s4,s9,0x1f
 8001d8c:	87d2                	mv	a5,s4
 8001d8e:	f007d7e3          	bgez	a5,8001c9c <_vfiprintf_r+0x4fe>
 8001d92:	019037b3          	snez	a5,s9
 8001d96:	41400333          	neg	t1,s4
 8001d9a:	40f30a33          	sub	s4,t1,a5
 8001d9e:	02d00793          	li	a5,45
 8001da2:	02f101a3          	sb	a5,35(sp)
 8001da6:	57fd                	li	a5,-1
 8001da8:	41900cb3          	neg	s9,s9
 8001dac:	02d00f13          	li	t5,45
 8001db0:	4685                	li	a3,1
 8001db2:	d4fd11e3          	bne	s10,a5,8001af4 <_vfiprintf_r+0x356>
 8001db6:	4785                	li	a5,1
 8001db8:	38f68163          	beq	a3,a5,800213a <_vfiprintf_r+0x99c>
 8001dbc:	4789                	li	a5,2
 8001dbe:	1af68263          	beq	a3,a5,8001f62 <_vfiprintf_r+0x7c4>
 8001dc2:	8b26                	mv	s6,s1
 8001dc4:	01da1693          	slli	a3,s4,0x1d
 8001dc8:	007cf793          	andi	a5,s9,7
 8001dcc:	003cdc93          	srli	s9,s9,0x3
 8001dd0:	03078793          	addi	a5,a5,48
 8001dd4:	0196ecb3          	or	s9,a3,s9
 8001dd8:	003a5a13          	srli	s4,s4,0x3
 8001ddc:	fefb0fa3          	sb	a5,-1(s6)
 8001de0:	014ce6b3          	or	a3,s9,s4
 8001de4:	865a                	mv	a2,s6
 8001de6:	1b7d                	addi	s6,s6,-1
 8001de8:	fef1                	bnez	a3,8001dc4 <_vfiprintf_r+0x626>
 8001dea:	001ef693          	andi	a3,t4,1
 8001dee:	18068f63          	beqz	a3,8001f8c <_vfiprintf_r+0x7ee>
 8001df2:	03000693          	li	a3,48
 8001df6:	18d78b63          	beq	a5,a3,8001f8c <_vfiprintf_r+0x7ee>
 8001dfa:	1679                	addi	a2,a2,-2
 8001dfc:	fedb0fa3          	sb	a3,-1(s6)
 8001e00:	40c48cb3          	sub	s9,s1,a2
 8001e04:	8bf6                	mv	s7,t4
 8001e06:	8b32                	mv	s6,a2
 8001e08:	b329                	j	8001b12 <_vfiprintf_r+0x374>
 8001e0a:	000dc783          	lbu	a5,0(s11)
 8001e0e:	080eee93          	ori	t4,t4,128
 8001e12:	b4f1                	j	80018de <_vfiprintf_r+0x140>
 8001e14:	000dc783          	lbu	a5,0(s11)
 8001e18:	001d8613          	addi	a2,s11,1
 8001e1c:	67f78e63          	beq	a5,t6,8002498 <_vfiprintf_r+0xcfa>
 8001e20:	fd078693          	addi	a3,a5,-48
 8001e24:	8db2                	mv	s11,a2
 8001e26:	4d01                	li	s10,0
 8001e28:	aad56ce3          	bltu	a0,a3,80018e0 <_vfiprintf_r+0x142>
 8001e2c:	000dc783          	lbu	a5,0(s11)
 8001e30:	002d1613          	slli	a2,s10,0x2
 8001e34:	01a60833          	add	a6,a2,s10
 8001e38:	0806                	slli	a6,a6,0x1
 8001e3a:	00d80d33          	add	s10,a6,a3
 8001e3e:	fd078693          	addi	a3,a5,-48
 8001e42:	0d85                	addi	s11,s11,1
 8001e44:	fed574e3          	bgeu	a0,a3,8001e2c <_vfiprintf_r+0x68e>
 8001e48:	bc61                	j	80018e0 <_vfiprintf_r+0x142>
 8001e4a:	000dc783          	lbu	a5,0(s11)
 8001e4e:	004eee93          	ori	t4,t4,4
 8001e52:	b471                	j	80018de <_vfiprintf_r+0x140>
 8001e54:	000dc783          	lbu	a5,0(s11)
 8001e58:	4305                	li	t1,1
 8001e5a:	02b00e13          	li	t3,43
 8001e5e:	b441                	j	80018de <_vfiprintf_r+0x140>
 8001e60:	46a2                	lw	a3,8(sp)
 8001e62:	000dc783          	lbu	a5,0(s11)
 8001e66:	4280                	lw	s0,0(a3)
 8001e68:	0691                	addi	a3,a3,4
 8001e6a:	c436                	sw	a3,8(sp)
 8001e6c:	a60459e3          	bgez	s0,80018de <_vfiprintf_r+0x140>
 8001e70:	40800433          	neg	s0,s0
 8001e74:	004eee93          	ori	t4,t4,4
 8001e78:	b49d                	j	80018de <_vfiprintf_r+0x140>
 8001e7a:	000dc783          	lbu	a5,0(s11)
 8001e7e:	001eee93          	ori	t4,t4,1
 8001e82:	bcb1                	j	80018de <_vfiprintf_r+0x140>
 8001e84:	000dc783          	lbu	a5,0(s11)
 8001e88:	a40e1be3          	bnez	t3,80018de <_vfiprintf_r+0x140>
 8001e8c:	4305                	li	t1,1
 8001e8e:	02000e13          	li	t3,32
 8001e92:	b4b1                	j	80018de <_vfiprintf_r+0x140>
 8001e94:	46a2                	lw	a3,8(sp)
 8001e96:	020101a3          	sb	zero,35(sp)
 8001e9a:	4a05                	li	s4,1
 8001e9c:	429c                	lw	a5,0(a3)
 8001e9e:	0691                	addi	a3,a3,4
 8001ea0:	c436                	sw	a3,8(sp)
 8001ea2:	02f10c23          	sb	a5,56(sp)
 8001ea6:	4c85                	li	s9,1
 8001ea8:	03810b13          	addi	s6,sp,56
 8001eac:	b451                	j	8001930 <_vfiprintf_r+0x192>
 8001eae:	5a031f63          	bnez	t1,800246c <_vfiprintf_r+0xcce>
 8001eb2:	0800a6b7          	lui	a3,0x800a
 8001eb6:	6b868693          	addi	a3,a3,1720 # 800a6b8 <_ZTVSt9bad_alloc+0x54>
 8001eba:	c636                	sw	a3,12(sp)
 8001ebc:	020ef693          	andi	a3,t4,32
 8001ec0:	e0069fe3          	bnez	a3,8001cde <_vfiprintf_r+0x540>
 8001ec4:	45a2                	lw	a1,8(sp)
 8001ec6:	010ef693          	andi	a3,t4,16
 8001eca:	00458613          	addi	a2,a1,4
 8001ece:	3c069f63          	bnez	a3,80022ac <_vfiprintf_r+0xb0e>
 8001ed2:	040ef693          	andi	a3,t4,64
 8001ed6:	4c068b63          	beqz	a3,80023ac <_vfiprintf_r+0xc0e>
 8001eda:	46a2                	lw	a3,8(sp)
 8001edc:	4a01                	li	s4,0
 8001ede:	c432                	sw	a2,8(sp)
 8001ee0:	0006dc83          	lhu	s9,0(a3)
 8001ee4:	bd09                	j	8001cf6 <_vfiprintf_r+0x558>
 8001ee6:	58031663          	bnez	t1,8002472 <_vfiprintf_r+0xcd4>
 8001eea:	4622                	lw	a2,8(sp)
 8001eec:	020ef793          	andi	a5,t4,32
 8001ef0:	4214                	lw	a3,0(a2)
 8001ef2:	0611                	addi	a2,a2,4
 8001ef4:	c432                	sw	a2,8(sp)
 8001ef6:	3c079763          	bnez	a5,80022c4 <_vfiprintf_r+0xb26>
 8001efa:	010ef793          	andi	a5,t4,16
 8001efe:	46079963          	bnez	a5,8002370 <_vfiprintf_r+0xbd2>
 8001f02:	040efe93          	andi	t4,t4,64
 8001f06:	460e8563          	beqz	t4,8002370 <_vfiprintf_r+0xbd2>
 8001f0a:	4792                	lw	a5,4(sp)
 8001f0c:	00f69023          	sh	a5,0(a3)
 8001f10:	b299                	j	8001856 <_vfiprintf_r+0xb8>
 8001f12:	000dc783          	lbu	a5,0(s11)
 8001f16:	43e78a63          	beq	a5,t5,800234a <_vfiprintf_r+0xbac>
 8001f1a:	010eee93          	ori	t4,t4,16
 8001f1e:	b2c1                	j	80018de <_vfiprintf_r+0x140>
 8001f20:	000dc783          	lbu	a5,0(s11)
 8001f24:	020eee93          	ori	t4,t4,32
 8001f28:	ba5d                	j	80018de <_vfiprintf_r+0x140>
 8001f2a:	46a2                	lw	a3,8(sp)
 8001f2c:	77e1                	lui	a5,0xffff8
 8001f2e:	8307c793          	xori	a5,a5,-2000
 8001f32:	02f11223          	sh	a5,36(sp)
 8001f36:	00468793          	addi	a5,a3,4
 8001f3a:	c43e                	sw	a5,8(sp)
 8001f3c:	0800a7b7          	lui	a5,0x800a
 8001f40:	6cc78793          	addi	a5,a5,1740 # 800a6cc <_ZTVSt9bad_alloc+0x68>
 8001f44:	0006ac83          	lw	s9,0(a3)
 8001f48:	4a01                	li	s4,0
 8001f4a:	002eee93          	ori	t4,t4,2
 8001f4e:	c63e                	sw	a5,12(sp)
 8001f50:	4689                	li	a3,2
 8001f52:	be59                	j	8001ae8 <_vfiprintf_r+0x34a>
 8001f54:	4785                	li	a5,1
 8001f56:	52f68b63          	beq	a3,a5,800248c <_vfiprintf_r+0xcee>
 8001f5a:	4789                	li	a5,2
 8001f5c:	8ede                	mv	t4,s7
 8001f5e:	e6f692e3          	bne	a3,a5,8001dc2 <_vfiprintf_r+0x624>
 8001f62:	8b26                	mv	s6,s1
 8001f64:	46b2                	lw	a3,12(sp)
 8001f66:	00fcf793          	andi	a5,s9,15
 8001f6a:	004cdc93          	srli	s9,s9,0x4
 8001f6e:	97b6                	add	a5,a5,a3
 8001f70:	0007c683          	lbu	a3,0(a5)
 8001f74:	01ca1793          	slli	a5,s4,0x1c
 8001f78:	0197ecb3          	or	s9,a5,s9
 8001f7c:	004a5a13          	srli	s4,s4,0x4
 8001f80:	fedb0fa3          	sb	a3,-1(s6)
 8001f84:	014ce7b3          	or	a5,s9,s4
 8001f88:	1b7d                	addi	s6,s6,-1
 8001f8a:	ffe9                	bnez	a5,8001f64 <_vfiprintf_r+0x7c6>
 8001f8c:	41648cb3          	sub	s9,s1,s6
 8001f90:	8bf6                	mv	s7,t4
 8001f92:	b641                	j	8001b12 <_vfiprintf_r+0x374>
 8001f94:	4585                	li	a1,1
 8001f96:	4681                	li	a3,0
 8001f98:	8626                	mv	a2,s1
 8001f9a:	b1ad                	j	8001c04 <_vfiprintf_r+0x466>
 8001f9c:	41440333          	sub	t1,s0,s4
 8001fa0:	a26052e3          	blez	t1,80019c4 <_vfiprintf_r+0x226>
 8001fa4:	4541                	li	a0,16
 8001fa6:	4e655063          	bge	a0,t1,8002486 <_vfiprintf_r+0xce8>
 8001faa:	4ec1                	li	t4,16
 8001fac:	4f1d                	li	t5,7
 8001fae:	a801                	j	8001fbe <_vfiprintf_r+0x820>
 8001fb0:	00268513          	addi	a0,a3,2
 8001fb4:	0721                	addi	a4,a4,8
 8001fb6:	86b2                	mv	a3,a2
 8001fb8:	1341                	addi	t1,t1,-16
 8001fba:	046ed463          	bge	t4,t1,8002002 <_vfiprintf_r+0x864>
 8001fbe:	07c1                	addi	a5,a5,16
 8001fc0:	00168613          	addi	a2,a3,1
 8001fc4:	01372023          	sw	s3,0(a4)
 8001fc8:	01d72223          	sw	t4,4(a4)
 8001fcc:	da3e                	sw	a5,52(sp)
 8001fce:	d832                	sw	a2,48(sp)
 8001fd0:	fecf50e3          	bge	t5,a2,8001fb0 <_vfiprintf_r+0x812>
 8001fd4:	10078063          	beqz	a5,80020d4 <_vfiprintf_r+0x936>
 8001fd8:	1070                	addi	a2,sp,44
 8001fda:	85ca                	mv	a1,s2
 8001fdc:	8556                	mv	a0,s5
 8001fde:	ca1a                	sw	t1,20(sp)
 8001fe0:	fffff097          	auipc	ra,0xfffff
 8001fe4:	708080e7          	jalr	1800(ra) # 80016e8 <__sprint_r.part.0>
 8001fe8:	a40512e3          	bnez	a0,8001a2c <_vfiprintf_r+0x28e>
 8001fec:	4352                	lw	t1,20(sp)
 8001fee:	56c2                	lw	a3,48(sp)
 8001ff0:	4ec1                	li	t4,16
 8001ff2:	1341                	addi	t1,t1,-16
 8001ff4:	57d2                	lw	a5,52(sp)
 8001ff6:	8726                	mv	a4,s1
 8001ff8:	00168513          	addi	a0,a3,1
 8001ffc:	4f1d                	li	t5,7
 8001ffe:	fc6ec0e3          	blt	t4,t1,8001fbe <_vfiprintf_r+0x820>
 8002002:	00870e93          	addi	t4,a4,8
 8002006:	979a                	add	a5,a5,t1
 8002008:	01372023          	sw	s3,0(a4)
 800200c:	00672223          	sw	t1,4(a4)
 8002010:	da3e                	sw	a5,52(sp)
 8002012:	d82a                	sw	a0,48(sp)
 8002014:	471d                	li	a4,7
 8002016:	28a75363          	bge	a4,a0,800229c <_vfiprintf_r+0xafe>
 800201a:	42078163          	beqz	a5,800243c <_vfiprintf_r+0xc9e>
 800201e:	1070                	addi	a2,sp,44
 8002020:	85ca                	mv	a1,s2
 8002022:	8556                	mv	a0,s5
 8002024:	fffff097          	auipc	ra,0xfffff
 8002028:	6c4080e7          	jalr	1732(ra) # 80016e8 <__sprint_r.part.0>
 800202c:	a00510e3          	bnez	a0,8001a2c <_vfiprintf_r+0x28e>
 8002030:	56c2                	lw	a3,48(sp)
 8002032:	57d2                	lw	a5,52(sp)
 8002034:	10b0                	addi	a2,sp,104
 8002036:	00168593          	addi	a1,a3,1
 800203a:	8726                	mv	a4,s1
 800203c:	b261                	j	80019c4 <_vfiprintf_r+0x226>
 800203e:	4541                	li	a0,16
 8002040:	3ba55463          	bge	a0,s10,80023e8 <_vfiprintf_r+0xc4a>
 8002044:	4341                	li	t1,16
 8002046:	4e9d                	li	t4,7
 8002048:	a801                	j	8002058 <_vfiprintf_r+0x8ba>
 800204a:	00268593          	addi	a1,a3,2
 800204e:	0721                	addi	a4,a4,8
 8002050:	86b2                	mv	a3,a2
 8002052:	1d41                	addi	s10,s10,-16
 8002054:	05a35163          	bge	t1,s10,8002096 <_vfiprintf_r+0x8f8>
 8002058:	07c1                	addi	a5,a5,16
 800205a:	00168613          	addi	a2,a3,1
 800205e:	01372023          	sw	s3,0(a4)
 8002062:	00672223          	sw	t1,4(a4)
 8002066:	da3e                	sw	a5,52(sp)
 8002068:	d832                	sw	a2,48(sp)
 800206a:	feced0e3          	bge	t4,a2,800204a <_vfiprintf_r+0x8ac>
 800206e:	c7a9                	beqz	a5,80020b8 <_vfiprintf_r+0x91a>
 8002070:	1070                	addi	a2,sp,44
 8002072:	85ca                	mv	a1,s2
 8002074:	8556                	mv	a0,s5
 8002076:	fffff097          	auipc	ra,0xfffff
 800207a:	672080e7          	jalr	1650(ra) # 80016e8 <__sprint_r.part.0>
 800207e:	9a0517e3          	bnez	a0,8001a2c <_vfiprintf_r+0x28e>
 8002082:	56c2                	lw	a3,48(sp)
 8002084:	4341                	li	t1,16
 8002086:	1d41                	addi	s10,s10,-16
 8002088:	57d2                	lw	a5,52(sp)
 800208a:	8726                	mv	a4,s1
 800208c:	00168593          	addi	a1,a3,1
 8002090:	4e9d                	li	t4,7
 8002092:	fda343e3          	blt	t1,s10,8002058 <_vfiprintf_r+0x8ba>
 8002096:	00870693          	addi	a3,a4,8
 800209a:	97ea                	add	a5,a5,s10
 800209c:	01372023          	sw	s3,0(a4)
 80020a0:	01a72223          	sw	s10,4(a4)
 80020a4:	da3e                	sw	a5,52(sp)
 80020a6:	d82e                	sw	a1,48(sp)
 80020a8:	471d                	li	a4,7
 80020aa:	14b74363          	blt	a4,a1,80021f0 <_vfiprintf_r+0xa52>
 80020ae:	0585                	addi	a1,a1,1
 80020b0:	00868613          	addi	a2,a3,8
 80020b4:	8736                	mv	a4,a3
 80020b6:	ba19                	j	80019cc <_vfiprintf_r+0x22e>
 80020b8:	4585                	li	a1,1
 80020ba:	4681                	li	a3,0
 80020bc:	8726                	mv	a4,s1
 80020be:	bf51                	j	8002052 <_vfiprintf_r+0x8b4>
 80020c0:	1070                	addi	a2,sp,44
 80020c2:	85ca                	mv	a1,s2
 80020c4:	8556                	mv	a0,s5
 80020c6:	fffff097          	auipc	ra,0xfffff
 80020ca:	622080e7          	jalr	1570(ra) # 80016e8 <__sprint_r.part.0>
 80020ce:	940505e3          	beqz	a0,8001a18 <_vfiprintf_r+0x27a>
 80020d2:	baa9                	j	8001a2c <_vfiprintf_r+0x28e>
 80020d4:	4505                	li	a0,1
 80020d6:	4681                	li	a3,0
 80020d8:	8726                	mv	a4,s1
 80020da:	bdf9                	j	8001fb8 <_vfiprintf_r+0x81a>
 80020dc:	14078063          	beqz	a5,800221c <_vfiprintf_r+0xa7e>
 80020e0:	1070                	addi	a2,sp,44
 80020e2:	85ca                	mv	a1,s2
 80020e4:	8556                	mv	a0,s5
 80020e6:	cc76                	sw	t4,24(sp)
 80020e8:	ca7a                	sw	t5,20(sp)
 80020ea:	fffff097          	auipc	ra,0xfffff
 80020ee:	5fe080e7          	jalr	1534(ra) # 80016e8 <__sprint_r.part.0>
 80020f2:	92051de3          	bnez	a0,8001a2c <_vfiprintf_r+0x28e>
 80020f6:	56c2                	lw	a3,48(sp)
 80020f8:	57d2                	lw	a5,52(sp)
 80020fa:	4ee2                	lw	t4,24(sp)
 80020fc:	4f52                	lw	t5,20(sp)
 80020fe:	10b0                	addi	a2,sp,104
 8002100:	00168593          	addi	a1,a3,1
 8002104:	8726                	mv	a4,s1
 8002106:	b8ad                	j	8001980 <_vfiprintf_r+0x1e2>
 8002108:	16079663          	bnez	a5,8002274 <_vfiprintf_r+0xad6>
 800210c:	02314703          	lbu	a4,35(sp)
 8002110:	2e071063          	bnez	a4,80023f0 <_vfiprintf_r+0xc52>
 8002114:	100f0663          	beqz	t5,8002220 <_vfiprintf_r+0xa82>
 8002118:	105c                	addi	a5,sp,36
 800211a:	d0be                	sw	a5,96(sp)
 800211c:	4789                	li	a5,2
 800211e:	d2be                	sw	a5,100(sp)
 8002120:	10b0                	addi	a2,sp,104
 8002122:	4585                	li	a1,1
 8002124:	8732                	mv	a4,a2
 8002126:	86ae                	mv	a3,a1
 8002128:	00168593          	addi	a1,a3,1
 800212c:	00870613          	addi	a2,a4,8
 8002130:	b071                	j	80019bc <_vfiprintf_r+0x21e>
 8002132:	4785                	li	a5,1
 8002134:	8ede                	mv	t4,s7
 8002136:	c8f693e3          	bne	a3,a5,8001dbc <_vfiprintf_r+0x61e>
 800213a:	1c0a1363          	bnez	s4,8002300 <_vfiprintf_r+0xb62>
 800213e:	47a5                	li	a5,9
 8002140:	1d97e063          	bltu	a5,s9,8002300 <_vfiprintf_r+0xb62>
 8002144:	030c8c93          	addi	s9,s9,48
 8002148:	05910fa3          	sb	s9,95(sp)
 800214c:	8bf6                	mv	s7,t4
 800214e:	4c85                	li	s9,1
 8002150:	05f10b13          	addi	s6,sp,95
 8002154:	ba7d                	j	8001b12 <_vfiprintf_r+0x374>
 8002156:	45c1                	li	a1,16
 8002158:	3065d563          	bge	a1,t1,8002462 <_vfiprintf_r+0xcc4>
 800215c:	4fc1                	li	t6,16
 800215e:	429d                	li	t0,7
 8002160:	a811                	j	8002174 <_vfiprintf_r+0x9d6>
 8002162:	00268513          	addi	a0,a3,2
 8002166:	0721                	addi	a4,a4,8
 8002168:	86b2                	mv	a3,a2
 800216a:	1341                	addi	t1,t1,-16
 800216c:	046fd763          	bge	t6,t1,80021ba <_vfiprintf_r+0xa1c>
 8002170:	00168613          	addi	a2,a3,1
 8002174:	07c1                	addi	a5,a5,16
 8002176:	01872023          	sw	s8,0(a4)
 800217a:	01f72223          	sw	t6,4(a4)
 800217e:	da3e                	sw	a5,52(sp)
 8002180:	d832                	sw	a2,48(sp)
 8002182:	fec2d0e3          	bge	t0,a2,8002162 <_vfiprintf_r+0x9c4>
 8002186:	cbb1                	beqz	a5,80021da <_vfiprintf_r+0xa3c>
 8002188:	1070                	addi	a2,sp,44
 800218a:	85ca                	mv	a1,s2
 800218c:	8556                	mv	a0,s5
 800218e:	ce1a                	sw	t1,28(sp)
 8002190:	cc76                	sw	t4,24(sp)
 8002192:	ca7a                	sw	t5,20(sp)
 8002194:	fffff097          	auipc	ra,0xfffff
 8002198:	554080e7          	jalr	1364(ra) # 80016e8 <__sprint_r.part.0>
 800219c:	880518e3          	bnez	a0,8001a2c <_vfiprintf_r+0x28e>
 80021a0:	4372                	lw	t1,28(sp)
 80021a2:	56c2                	lw	a3,48(sp)
 80021a4:	4fc1                	li	t6,16
 80021a6:	1341                	addi	t1,t1,-16
 80021a8:	57d2                	lw	a5,52(sp)
 80021aa:	4ee2                	lw	t4,24(sp)
 80021ac:	4f52                	lw	t5,20(sp)
 80021ae:	8726                	mv	a4,s1
 80021b0:	00168513          	addi	a0,a3,1
 80021b4:	429d                	li	t0,7
 80021b6:	fa6fcde3          	blt	t6,t1,8002170 <_vfiprintf_r+0x9d2>
 80021ba:	979a                	add	a5,a5,t1
 80021bc:	01872023          	sw	s8,0(a4)
 80021c0:	00672223          	sw	t1,4(a4)
 80021c4:	da3e                	sw	a5,52(sp)
 80021c6:	d82a                	sw	a0,48(sp)
 80021c8:	469d                	li	a3,7
 80021ca:	f2a6cfe3          	blt	a3,a0,8002108 <_vfiprintf_r+0x96a>
 80021ce:	0721                	addi	a4,a4,8
 80021d0:	00150593          	addi	a1,a0,1
 80021d4:	86aa                	mv	a3,a0
 80021d6:	f82ff06f          	j	8001958 <_vfiprintf_r+0x1ba>
 80021da:	4681                	li	a3,0
 80021dc:	4505                	li	a0,1
 80021de:	8726                	mv	a4,s1
 80021e0:	b769                	j	800216a <_vfiprintf_r+0x9cc>
 80021e2:	01445363          	bge	s0,s4,80021e8 <_vfiprintf_r+0xa4a>
 80021e6:	8452                	mv	s0,s4
 80021e8:	4792                	lw	a5,4(sp)
 80021ea:	97a2                	add	a5,a5,s0
 80021ec:	c23e                	sw	a5,4(sp)
 80021ee:	b02d                	j	8001a18 <_vfiprintf_r+0x27a>
 80021f0:	18078463          	beqz	a5,8002378 <_vfiprintf_r+0xbda>
 80021f4:	1070                	addi	a2,sp,44
 80021f6:	85ca                	mv	a1,s2
 80021f8:	8556                	mv	a0,s5
 80021fa:	fffff097          	auipc	ra,0xfffff
 80021fe:	4ee080e7          	jalr	1262(ra) # 80016e8 <__sprint_r.part.0>
 8002202:	820515e3          	bnez	a0,8001a2c <_vfiprintf_r+0x28e>
 8002206:	55c2                	lw	a1,48(sp)
 8002208:	57d2                	lw	a5,52(sp)
 800220a:	10b0                	addi	a2,sp,104
 800220c:	0585                	addi	a1,a1,1
 800220e:	8726                	mv	a4,s1
 8002210:	fbcff06f          	j	80019cc <_vfiprintf_r+0x22e>
 8002214:	d802                	sw	zero,48(sp)
 8002216:	8726                	mv	a4,s1
 8002218:	e94ff06f          	j	80018ac <_vfiprintf_r+0x10e>
 800221c:	0c0f1763          	bnez	t5,80022ea <_vfiprintf_r+0xb4c>
 8002220:	4681                	li	a3,0
 8002222:	10b0                	addi	a2,sp,104
 8002224:	4585                	li	a1,1
 8002226:	8726                	mv	a4,s1
 8002228:	f94ff06f          	j	80019bc <_vfiprintf_r+0x21e>
 800222c:	10b0                	addi	a2,sp,104
 800222e:	4585                	li	a1,1
 8002230:	4681                	li	a3,0
 8002232:	8726                	mv	a4,s1
 8002234:	f88ff06f          	j	80019bc <_vfiprintf_r+0x21e>
 8002238:	4c81                	li	s9,0
 800223a:	8b26                	mv	s6,s1
 800223c:	b8d9                	j	8001b12 <_vfiprintf_r+0x374>
 800223e:	07892783          	lw	a5,120(s2)
 8002242:	8b85                	andi	a5,a5,1
 8002244:	e799                	bnez	a5,8002252 <_vfiprintf_r+0xab4>
 8002246:	00c95783          	lhu	a5,12(s2)
 800224a:	2007f793          	andi	a5,a5,512
 800224e:	20078363          	beqz	a5,8002454 <_vfiprintf_r+0xcb6>
 8002252:	5522                	lw	a0,40(sp)
 8002254:	57fd                	li	a5,-1
 8002256:	102c                	addi	a1,sp,40
 8002258:	c23e                	sw	a5,4(sp)
 800225a:	00005097          	auipc	ra,0x5
 800225e:	d62080e7          	jalr	-670(ra) # 8006fbc <pthread_setcancelstate>
 8002262:	fecff06f          	j	8001a4e <_vfiprintf_r+0x2b0>
 8002266:	03000793          	li	a5,48
 800226a:	04f10fa3          	sb	a5,95(sp)
 800226e:	05f10b13          	addi	s6,sp,95
 8002272:	b045                	j	8001b12 <_vfiprintf_r+0x374>
 8002274:	1070                	addi	a2,sp,44
 8002276:	85ca                	mv	a1,s2
 8002278:	8556                	mv	a0,s5
 800227a:	cc76                	sw	t4,24(sp)
 800227c:	ca7a                	sw	t5,20(sp)
 800227e:	fffff097          	auipc	ra,0xfffff
 8002282:	46a080e7          	jalr	1130(ra) # 80016e8 <__sprint_r.part.0>
 8002286:	fa051363          	bnez	a0,8001a2c <_vfiprintf_r+0x28e>
 800228a:	56c2                	lw	a3,48(sp)
 800228c:	57d2                	lw	a5,52(sp)
 800228e:	4ee2                	lw	t4,24(sp)
 8002290:	4f52                	lw	t5,20(sp)
 8002292:	8726                	mv	a4,s1
 8002294:	00168593          	addi	a1,a3,1
 8002298:	ec0ff06f          	j	8001958 <_vfiprintf_r+0x1ba>
 800229c:	00150593          	addi	a1,a0,1
 80022a0:	008e8613          	addi	a2,t4,8
 80022a4:	86aa                	mv	a3,a0
 80022a6:	8776                	mv	a4,t4
 80022a8:	f1cff06f          	j	80019c4 <_vfiprintf_r+0x226>
 80022ac:	0005ac83          	lw	s9,0(a1)
 80022b0:	4a01                	li	s4,0
 80022b2:	c432                	sw	a2,8(sp)
 80022b4:	b489                	j	8001cf6 <_vfiprintf_r+0x558>
 80022b6:	00062c83          	lw	s9,0(a2)
 80022ba:	c436                	sw	a3,8(sp)
 80022bc:	41fcda13          	srai	s4,s9,0x1f
 80022c0:	87d2                	mv	a5,s4
 80022c2:	bad9                	j	8001c98 <_vfiprintf_r+0x4fa>
 80022c4:	4612                	lw	a2,4(sp)
 80022c6:	41f65793          	srai	a5,a2,0x1f
 80022ca:	c290                	sw	a2,0(a3)
 80022cc:	c2dc                	sw	a5,4(a3)
 80022ce:	d88ff06f          	j	8001856 <_vfiprintf_r+0xb8>
 80022d2:	c436                	sw	a3,8(sp)
 80022d4:	00062c83          	lw	s9,0(a2)
 80022d8:	4a01                	li	s4,0
 80022da:	4685                	li	a3,1
 80022dc:	b031                	j	8001ae8 <_vfiprintf_r+0x34a>
 80022de:	c436                	sw	a3,8(sp)
 80022e0:	00062c83          	lw	s9,0(a2)
 80022e4:	4a01                	li	s4,0
 80022e6:	4681                	li	a3,0
 80022e8:	b001                	j	8001ae8 <_vfiprintf_r+0x34a>
 80022ea:	105c                	addi	a5,sp,36
 80022ec:	d0be                	sw	a5,96(sp)
 80022ee:	4789                	li	a5,2
 80022f0:	d2be                	sw	a5,100(sp)
 80022f2:	10b8                	addi	a4,sp,104
 80022f4:	4685                	li	a3,1
 80022f6:	bd0d                	j	8002128 <_vfiprintf_r+0x98a>
 80022f8:	02314f03          	lbu	t5,35(sp)
 80022fc:	e40a01e3          	beqz	s4,800213e <_vfiprintf_r+0x9a0>
 8002300:	8b26                	mv	s6,s1
 8002302:	4ba5                	li	s7,9
 8002304:	4629                	li	a2,10
 8002306:	4681                	li	a3,0
 8002308:	8566                	mv	a0,s9
 800230a:	85d2                	mv	a1,s4
 800230c:	ce7a                	sw	t5,28(sp)
 800230e:	cc3a                	sw	a4,24(sp)
 8002310:	ca76                	sw	t4,20(sp)
 8002312:	00002097          	auipc	ra,0x2
 8002316:	ae8080e7          	jalr	-1304(ra) # 8003dfa <__umoddi3>
 800231a:	03050793          	addi	a5,a0,48
 800231e:	fefb0fa3          	sb	a5,-1(s6)
 8002322:	8566                	mv	a0,s9
 8002324:	85d2                	mv	a1,s4
 8002326:	4681                	li	a3,0
 8002328:	4629                	li	a2,10
 800232a:	00001097          	auipc	ra,0x1
 800232e:	72c080e7          	jalr	1836(ra) # 8003a56 <__udivdi3>
 8002332:	87d2                	mv	a5,s4
 8002334:	86e6                	mv	a3,s9
 8002336:	4ed2                	lw	t4,20(sp)
 8002338:	4762                	lw	a4,24(sp)
 800233a:	4f72                	lw	t5,28(sp)
 800233c:	1b7d                	addi	s6,s6,-1
 800233e:	8a2e                	mv	s4,a1
 8002340:	8caa                	mv	s9,a0
 8002342:	f3e9                	bnez	a5,8002304 <_vfiprintf_r+0xb66>
 8002344:	fcdbe0e3          	bltu	s7,a3,8002304 <_vfiprintf_r+0xb66>
 8002348:	b191                	j	8001f8c <_vfiprintf_r+0x7ee>
 800234a:	001dc783          	lbu	a5,1(s11)
 800234e:	020eee93          	ori	t4,t4,32
 8002352:	0d85                	addi	s11,s11,1
 8002354:	d8aff06f          	j	80018de <_vfiprintf_r+0x140>
 8002358:	4799                	li	a5,6
 800235a:	8cea                	mv	s9,s10
 800235c:	09a7e863          	bltu	a5,s10,80023ec <_vfiprintf_r+0xc4e>
 8002360:	0800ae37          	lui	t3,0x800a
 8002364:	8a66                	mv	s4,s9
 8002366:	c45e                	sw	s7,8(sp)
 8002368:	6e0e0b13          	addi	s6,t3,1760 # 800a6e0 <_ZTVSt9bad_alloc+0x7c>
 800236c:	dc4ff06f          	j	8001930 <_vfiprintf_r+0x192>
 8002370:	4792                	lw	a5,4(sp)
 8002372:	c29c                	sw	a5,0(a3)
 8002374:	ce2ff06f          	j	8001856 <_vfiprintf_r+0xb8>
 8002378:	4705                	li	a4,1
 800237a:	87e6                	mv	a5,s9
 800237c:	d0da                	sw	s6,96(sp)
 800237e:	d2e6                	sw	s9,100(sp)
 8002380:	da66                	sw	s9,52(sp)
 8002382:	d83a                	sw	a4,48(sp)
 8002384:	10b0                	addi	a2,sp,104
 8002386:	e72ff06f          	j	80019f8 <_vfiprintf_r+0x25a>
 800238a:	855a                	mv	a0,s6
 800238c:	cc3a                	sw	a4,24(sp)
 800238e:	ca76                	sw	t4,20(sp)
 8002390:	fffff097          	auipc	ra,0xfffff
 8002394:	2f6080e7          	jalr	758(ra) # 8001686 <strlen>
 8002398:	4ed2                	lw	t4,20(sp)
 800239a:	c45e                	sw	s7,8(sp)
 800239c:	02314f03          	lbu	t5,35(sp)
 80023a0:	4762                	lw	a4,24(sp)
 80023a2:	8caa                	mv	s9,a0
 80023a4:	8bf6                	mv	s7,t4
 80023a6:	4d01                	li	s10,0
 80023a8:	f6aff06f          	j	8001b12 <_vfiprintf_r+0x374>
 80023ac:	46a2                	lw	a3,8(sp)
 80023ae:	4a01                	li	s4,0
 80023b0:	c432                	sw	a2,8(sp)
 80023b2:	0006ac83          	lw	s9,0(a3)
 80023b6:	b281                	j	8001cf6 <_vfiprintf_r+0x558>
 80023b8:	47a2                	lw	a5,8(sp)
 80023ba:	c436                	sw	a3,8(sp)
 80023bc:	0007ac83          	lw	s9,0(a5)
 80023c0:	41fcda13          	srai	s4,s9,0x1f
 80023c4:	87d2                	mv	a5,s4
 80023c6:	b8c9                	j	8001c98 <_vfiprintf_r+0x4fa>
 80023c8:	47a2                	lw	a5,8(sp)
 80023ca:	4a01                	li	s4,0
 80023cc:	c436                	sw	a3,8(sp)
 80023ce:	0007ac83          	lw	s9,0(a5)
 80023d2:	4685                	li	a3,1
 80023d4:	f14ff06f          	j	8001ae8 <_vfiprintf_r+0x34a>
 80023d8:	47a2                	lw	a5,8(sp)
 80023da:	4a01                	li	s4,0
 80023dc:	c436                	sw	a3,8(sp)
 80023de:	0007ac83          	lw	s9,0(a5)
 80023e2:	4681                	li	a3,0
 80023e4:	f04ff06f          	j	8001ae8 <_vfiprintf_r+0x34a>
 80023e8:	86b2                	mv	a3,a2
 80023ea:	b945                	j	800209a <_vfiprintf_r+0x8fc>
 80023ec:	4c99                	li	s9,6
 80023ee:	bf8d                	j	8002360 <_vfiprintf_r+0xbc2>
 80023f0:	02310793          	addi	a5,sp,35
 80023f4:	d0be                	sw	a5,96(sp)
 80023f6:	4785                	li	a5,1
 80023f8:	d2be                	sw	a5,100(sp)
 80023fa:	10b0                	addi	a2,sp,104
 80023fc:	4585                	li	a1,1
 80023fe:	d7aff06f          	j	8001978 <_vfiprintf_r+0x1da>
 8002402:	03c101a3          	sb	t3,35(sp)
 8002406:	010eee93          	ori	t4,t4,16
 800240a:	baa9                	j	8001d64 <_vfiprintf_r+0x5c6>
 800240c:	03c101a3          	sb	t3,35(sp)
 8002410:	d0cff06f          	j	800191c <_vfiprintf_r+0x17e>
 8002414:	1070                	addi	a2,sp,44
 8002416:	85ca                	mv	a1,s2
 8002418:	8556                	mv	a0,s5
 800241a:	fffff097          	auipc	ra,0xfffff
 800241e:	2ce080e7          	jalr	718(ra) # 80016e8 <__sprint_r.part.0>
 8002422:	e0051563          	bnez	a0,8001a2c <_vfiprintf_r+0x28e>
 8002426:	d802                	sw	zero,48(sp)
 8002428:	e04ff06f          	j	8001a2c <_vfiprintf_r+0x28e>
 800242c:	06090513          	addi	a0,s2,96
 8002430:	00005097          	auipc	ra,0x5
 8002434:	ac8080e7          	jalr	-1336(ra) # 8006ef8 <pthread_mutex_unlock>
 8002438:	e6cff06f          	j	8001aa4 <_vfiprintf_r+0x306>
 800243c:	10b0                	addi	a2,sp,104
 800243e:	4585                	li	a1,1
 8002440:	4681                	li	a3,0
 8002442:	8726                	mv	a4,s1
 8002444:	d80ff06f          	j	80019c4 <_vfiprintf_r+0x226>
 8002448:	8cea                	mv	s9,s10
 800244a:	c45e                	sw	s7,8(sp)
 800244c:	4d01                	li	s10,0
 800244e:	8bf6                	mv	s7,t4
 8002450:	ec2ff06f          	j	8001b12 <_vfiprintf_r+0x374>
 8002454:	06090513          	addi	a0,s2,96
 8002458:	00005097          	auipc	ra,0x5
 800245c:	aa0080e7          	jalr	-1376(ra) # 8006ef8 <pthread_mutex_unlock>
 8002460:	bbcd                	j	8002252 <_vfiprintf_r+0xab4>
 8002462:	8532                	mv	a0,a2
 8002464:	bb99                	j	80021ba <_vfiprintf_r+0xa1c>
 8002466:	03c101a3          	sb	t3,35(sp)
 800246a:	b039                	j	8001c78 <_vfiprintf_r+0x4da>
 800246c:	03c101a3          	sb	t3,35(sp)
 8002470:	b489                	j	8001eb2 <_vfiprintf_r+0x714>
 8002472:	03c101a3          	sb	t3,35(sp)
 8002476:	bc95                	j	8001eea <_vfiprintf_r+0x74c>
 8002478:	03c101a3          	sb	t3,35(sp)
 800247c:	b881                	j	8001ccc <_vfiprintf_r+0x52e>
 800247e:	00168593          	addi	a1,a3,1
 8002482:	fc4ff06f          	j	8001c46 <_vfiprintf_r+0x4a8>
 8002486:	8eb2                	mv	t4,a2
 8002488:	852e                	mv	a0,a1
 800248a:	beb5                	j	8002006 <_vfiprintf_r+0x868>
 800248c:	8ede                	mv	t4,s7
 800248e:	b95d                	j	8002144 <_vfiprintf_r+0x9a6>
 8002490:	57fd                	li	a5,-1
 8002492:	c23e                	sw	a5,4(sp)
 8002494:	dbaff06f          	j	8001a4e <_vfiprintf_r+0x2b0>
 8002498:	47a2                	lw	a5,8(sp)
 800249a:	0007ad03          	lw	s10,0(a5)
 800249e:	00478b13          	addi	s6,a5,4
 80024a2:	000d5363          	bgez	s10,80024a8 <_vfiprintf_r+0xd0a>
 80024a6:	5d7d                	li	s10,-1
 80024a8:	001dc783          	lbu	a5,1(s11)
 80024ac:	c45a                	sw	s6,8(sp)
 80024ae:	8db2                	mv	s11,a2
 80024b0:	c2eff06f          	j	80018de <_vfiprintf_r+0x140>

080024b4 <vfiprintf>:
 80024b4:	1141                	addi	sp,sp,-16
 80024b6:	c422                	sw	s0,8(sp)
 80024b8:	c226                	sw	s1,4(sp)
 80024ba:	c04a                	sw	s2,0(sp)
 80024bc:	c606                	sw	ra,12(sp)
 80024be:	84ae                	mv	s1,a1
 80024c0:	8932                	mv	s2,a2
 80024c2:	842a                	mv	s0,a0
 80024c4:	00003097          	auipc	ra,0x3
 80024c8:	e48080e7          	jalr	-440(ra) # 800530c <__getreent>
 80024cc:	85a2                	mv	a1,s0
 80024ce:	4422                	lw	s0,8(sp)
 80024d0:	40b2                	lw	ra,12(sp)
 80024d2:	86ca                	mv	a3,s2
 80024d4:	8626                	mv	a2,s1
 80024d6:	4902                	lw	s2,0(sp)
 80024d8:	4492                	lw	s1,4(sp)
 80024da:	0141                	addi	sp,sp,16
 80024dc:	fffff317          	auipc	t1,0xfffff
 80024e0:	2c230067          	jr	706(t1) # 800179e <_vfiprintf_r>

080024e4 <__sbprintf>:
 80024e4:	00c5d783          	lhu	a5,12(a1)
 80024e8:	0785ae03          	lw	t3,120(a1)
 80024ec:	00e5d303          	lhu	t1,14(a1)
 80024f0:	0205a883          	lw	a7,32(a1)
 80024f4:	0285a803          	lw	a6,40(a1)
 80024f8:	7165                	addi	sp,sp,-400
 80024fa:	9bf5                	andi	a5,a5,-3
 80024fc:	10000713          	li	a4,256
 8002500:	18812423          	sw	s0,392(sp)
 8002504:	00f11623          	sh	a5,12(sp)
 8002508:	842e                	mv	s0,a1
 800250a:	011c                	addi	a5,sp,128
 800250c:	858a                	mv	a1,sp
 800250e:	18912223          	sw	s1,388(sp)
 8002512:	19212023          	sw	s2,384(sp)
 8002516:	18112623          	sw	ra,396(sp)
 800251a:	892a                	mv	s2,a0
 800251c:	dcf2                	sw	t3,120(sp)
 800251e:	00611723          	sh	t1,14(sp)
 8002522:	d046                	sw	a7,32(sp)
 8002524:	d442                	sw	a6,40(sp)
 8002526:	c03e                	sw	a5,0(sp)
 8002528:	c83e                	sw	a5,16(sp)
 800252a:	c43a                	sw	a4,8(sp)
 800252c:	ca3a                	sw	a4,20(sp)
 800252e:	cc02                	sw	zero,24(sp)
 8002530:	d082                	sw	zero,96(sp)
 8002532:	d282                	sw	zero,100(sp)
 8002534:	d482                	sw	zero,104(sp)
 8002536:	d682                	sw	zero,108(sp)
 8002538:	fffff097          	auipc	ra,0xfffff
 800253c:	266080e7          	jalr	614(ra) # 800179e <_vfiprintf_r>
 8002540:	84aa                	mv	s1,a0
 8002542:	02055d63          	bgez	a0,800257c <__sbprintf+0x98>
 8002546:	00c15783          	lhu	a5,12(sp)
 800254a:	0407f793          	andi	a5,a5,64
 800254e:	c799                	beqz	a5,800255c <__sbprintf+0x78>
 8002550:	00c45783          	lhu	a5,12(s0)
 8002554:	0407e793          	ori	a5,a5,64
 8002558:	00f41623          	sh	a5,12(s0)
 800255c:	1088                	addi	a0,sp,96
 800255e:	00005097          	auipc	ra,0x5
 8002562:	8a8080e7          	jalr	-1880(ra) # 8006e06 <pthread_mutex_destroy>
 8002566:	18c12083          	lw	ra,396(sp)
 800256a:	18812403          	lw	s0,392(sp)
 800256e:	18012903          	lw	s2,384(sp)
 8002572:	8526                	mv	a0,s1
 8002574:	18412483          	lw	s1,388(sp)
 8002578:	6159                	addi	sp,sp,400
 800257a:	8082                	ret
 800257c:	858a                	mv	a1,sp
 800257e:	854a                	mv	a0,s2
 8002580:	00000097          	auipc	ra,0x0
 8002584:	47e080e7          	jalr	1150(ra) # 80029fe <_fflush_r>
 8002588:	dd5d                	beqz	a0,8002546 <__sbprintf+0x62>
 800258a:	54fd                	li	s1,-1
 800258c:	bf6d                	j	8002546 <__sbprintf+0x62>

0800258e <viprintf>:
 800258e:	1141                	addi	sp,sp,-16
 8002590:	c422                	sw	s0,8(sp)
 8002592:	c226                	sw	s1,4(sp)
 8002594:	c606                	sw	ra,12(sp)
 8002596:	84ae                	mv	s1,a1
 8002598:	842a                	mv	s0,a0
 800259a:	00003097          	auipc	ra,0x3
 800259e:	d72080e7          	jalr	-654(ra) # 800530c <__getreent>
 80025a2:	8622                	mv	a2,s0
 80025a4:	4422                	lw	s0,8(sp)
 80025a6:	40b2                	lw	ra,12(sp)
 80025a8:	450c                	lw	a1,8(a0)
 80025aa:	86a6                	mv	a3,s1
 80025ac:	4492                	lw	s1,4(sp)
 80025ae:	0141                	addi	sp,sp,16
 80025b0:	fffff317          	auipc	t1,0xfffff
 80025b4:	1ee30067          	jr	494(t1) # 800179e <_vfiprintf_r>

080025b8 <_viprintf_r>:
 80025b8:	87ae                	mv	a5,a1
 80025ba:	450c                	lw	a1,8(a0)
 80025bc:	86b2                	mv	a3,a2
 80025be:	863e                	mv	a2,a5
 80025c0:	fffff317          	auipc	t1,0xfffff
 80025c4:	1de30067          	jr	478(t1) # 800179e <_vfiprintf_r>

080025c8 <__swsetup_r>:
 80025c8:	1141                	addi	sp,sp,-16
 80025ca:	c422                	sw	s0,8(sp)
 80025cc:	c226                	sw	s1,4(sp)
 80025ce:	c606                	sw	ra,12(sp)
 80025d0:	84aa                	mv	s1,a0
 80025d2:	842e                	mv	s0,a1
 80025d4:	00003097          	auipc	ra,0x3
 80025d8:	d38080e7          	jalr	-712(ra) # 800530c <__getreent>
 80025dc:	c119                	beqz	a0,80025e2 <__swsetup_r+0x1a>
 80025de:	4d1c                	lw	a5,24(a0)
 80025e0:	cfd9                	beqz	a5,800267e <__swsetup_r+0xb6>
 80025e2:	00c41703          	lh	a4,12(s0)
 80025e6:	01071793          	slli	a5,a4,0x10
 80025ea:	00877693          	andi	a3,a4,8
 80025ee:	83c1                	srli	a5,a5,0x10
 80025f0:	c29d                	beqz	a3,8002616 <__swsetup_r+0x4e>
 80025f2:	4814                	lw	a3,16(s0)
 80025f4:	ce9d                	beqz	a3,8002632 <__swsetup_r+0x6a>
 80025f6:	0017f613          	andi	a2,a5,1
 80025fa:	c22d                	beqz	a2,800265c <__swsetup_r+0x94>
 80025fc:	4850                	lw	a2,20(s0)
 80025fe:	00042423          	sw	zero,8(s0)
 8002602:	4501                	li	a0,0
 8002604:	40c00633          	neg	a2,a2
 8002608:	cc10                	sw	a2,24(s0)
 800260a:	c2ad                	beqz	a3,800266c <__swsetup_r+0xa4>
 800260c:	40b2                	lw	ra,12(sp)
 800260e:	4422                	lw	s0,8(sp)
 8002610:	4492                	lw	s1,4(sp)
 8002612:	0141                	addi	sp,sp,16
 8002614:	8082                	ret
 8002616:	0107f693          	andi	a3,a5,16
 800261a:	cec9                	beqz	a3,80026b4 <__swsetup_r+0xec>
 800261c:	8b91                	andi	a5,a5,4
 800261e:	e7ad                	bnez	a5,8002688 <__swsetup_r+0xc0>
 8002620:	4814                	lw	a3,16(s0)
 8002622:	00876713          	ori	a4,a4,8
 8002626:	01071793          	slli	a5,a4,0x10
 800262a:	00e41623          	sh	a4,12(s0)
 800262e:	83c1                	srli	a5,a5,0x10
 8002630:	f2f9                	bnez	a3,80025f6 <__swsetup_r+0x2e>
 8002632:	2807f613          	andi	a2,a5,640
 8002636:	20000593          	li	a1,512
 800263a:	fab60ee3          	beq	a2,a1,80025f6 <__swsetup_r+0x2e>
 800263e:	85a2                	mv	a1,s0
 8002640:	8526                	mv	a0,s1
 8002642:	ffffe097          	auipc	ra,0xffffe
 8002646:	1aa080e7          	jalr	426(ra) # 80007ec <__smakebuf_r>
 800264a:	00c41703          	lh	a4,12(s0)
 800264e:	4814                	lw	a3,16(s0)
 8002650:	01071793          	slli	a5,a4,0x10
 8002654:	83c1                	srli	a5,a5,0x10
 8002656:	0017f613          	andi	a2,a5,1
 800265a:	f24d                	bnez	a2,80025fc <__swsetup_r+0x34>
 800265c:	0027f613          	andi	a2,a5,2
 8002660:	4581                	li	a1,0
 8002662:	e211                	bnez	a2,8002666 <__swsetup_r+0x9e>
 8002664:	484c                	lw	a1,20(s0)
 8002666:	c40c                	sw	a1,8(s0)
 8002668:	4501                	li	a0,0
 800266a:	f2cd                	bnez	a3,800260c <__swsetup_r+0x44>
 800266c:	0807f793          	andi	a5,a5,128
 8002670:	dfd1                	beqz	a5,800260c <__swsetup_r+0x44>
 8002672:	04076713          	ori	a4,a4,64
 8002676:	00e41623          	sh	a4,12(s0)
 800267a:	557d                	li	a0,-1
 800267c:	bf41                	j	800260c <__swsetup_r+0x44>
 800267e:	ffffe097          	auipc	ra,0xffffe
 8002682:	d02080e7          	jalr	-766(ra) # 8000380 <__sinit>
 8002686:	bfb1                	j	80025e2 <__swsetup_r+0x1a>
 8002688:	584c                	lw	a1,52(s0)
 800268a:	cd91                	beqz	a1,80026a6 <__swsetup_r+0xde>
 800268c:	04440793          	addi	a5,s0,68
 8002690:	00f58963          	beq	a1,a5,80026a2 <__swsetup_r+0xda>
 8002694:	8526                	mv	a0,s1
 8002696:	00000097          	auipc	ra,0x0
 800269a:	6f2080e7          	jalr	1778(ra) # 8002d88 <_free_r>
 800269e:	00c41703          	lh	a4,12(s0)
 80026a2:	02042a23          	sw	zero,52(s0)
 80026a6:	4814                	lw	a3,16(s0)
 80026a8:	fdb77713          	andi	a4,a4,-37
 80026ac:	00042223          	sw	zero,4(s0)
 80026b0:	c014                	sw	a3,0(s0)
 80026b2:	bf85                	j	8002622 <__swsetup_r+0x5a>
 80026b4:	47a5                	li	a5,9
 80026b6:	c09c                	sw	a5,0(s1)
 80026b8:	04076713          	ori	a4,a4,64
 80026bc:	00e41623          	sh	a4,12(s0)
 80026c0:	557d                	li	a0,-1
 80026c2:	b7a9                	j	800260c <__swsetup_r+0x44>

080026c4 <_fclose_r>:
 80026c4:	7179                	addi	sp,sp,-48
 80026c6:	d606                	sw	ra,44(sp)
 80026c8:	d422                	sw	s0,40(sp)
 80026ca:	d226                	sw	s1,36(sp)
 80026cc:	d04a                	sw	s2,32(sp)
 80026ce:	ce4e                	sw	s3,28(sp)
 80026d0:	12058a63          	beqz	a1,8002804 <_fclose_r+0x140>
 80026d4:	842e                	mv	s0,a1
 80026d6:	84aa                	mv	s1,a0
 80026d8:	c119                	beqz	a0,80026de <_fclose_r+0x1a>
 80026da:	4d1c                	lw	a5,24(a0)
 80026dc:	cbed                	beqz	a5,80027ce <_fclose_r+0x10a>
 80026de:	006c                	addi	a1,sp,12
 80026e0:	4505                	li	a0,1
 80026e2:	00005097          	auipc	ra,0x5
 80026e6:	8da080e7          	jalr	-1830(ra) # 8006fbc <pthread_setcancelstate>
 80026ea:	5c3c                	lw	a5,120(s0)
 80026ec:	8b85                	andi	a5,a5,1
 80026ee:	cfd9                	beqz	a5,800278c <_fclose_r+0xc8>
 80026f0:	00c41783          	lh	a5,12(s0)
 80026f4:	06040993          	addi	s3,s0,96
 80026f8:	cfc5                	beqz	a5,80027b0 <_fclose_r+0xec>
 80026fa:	85a2                	mv	a1,s0
 80026fc:	8526                	mv	a0,s1
 80026fe:	00000097          	auipc	ra,0x0
 8002702:	15e080e7          	jalr	350(ra) # 800285c <__sflush_r>
 8002706:	581c                	lw	a5,48(s0)
 8002708:	892a                	mv	s2,a0
 800270a:	c791                	beqz	a5,8002716 <_fclose_r+0x52>
 800270c:	500c                	lw	a1,32(s0)
 800270e:	8526                	mv	a0,s1
 8002710:	9782                	jalr	a5
 8002712:	0c054c63          	bltz	a0,80027ea <_fclose_r+0x126>
 8002716:	00c45783          	lhu	a5,12(s0)
 800271a:	0807f793          	andi	a5,a5,128
 800271e:	efe1                	bnez	a5,80027f6 <_fclose_r+0x132>
 8002720:	584c                	lw	a1,52(s0)
 8002722:	cd81                	beqz	a1,800273a <_fclose_r+0x76>
 8002724:	04440793          	addi	a5,s0,68
 8002728:	00f58763          	beq	a1,a5,8002736 <_fclose_r+0x72>
 800272c:	8526                	mv	a0,s1
 800272e:	00000097          	auipc	ra,0x0
 8002732:	65a080e7          	jalr	1626(ra) # 8002d88 <_free_r>
 8002736:	02042a23          	sw	zero,52(s0)
 800273a:	442c                	lw	a1,72(s0)
 800273c:	c981                	beqz	a1,800274c <_fclose_r+0x88>
 800273e:	8526                	mv	a0,s1
 8002740:	00000097          	auipc	ra,0x0
 8002744:	648080e7          	jalr	1608(ra) # 8002d88 <_free_r>
 8002748:	04042423          	sw	zero,72(s0)
 800274c:	ffffe097          	auipc	ra,0xffffe
 8002750:	e18080e7          	jalr	-488(ra) # 8000564 <__sfp_lock_acquire>
 8002754:	5c3c                	lw	a5,120(s0)
 8002756:	00041623          	sh	zero,12(s0)
 800275a:	8b85                	andi	a5,a5,1
 800275c:	cbf1                	beqz	a5,8002830 <_fclose_r+0x16c>
 800275e:	854e                	mv	a0,s3
 8002760:	00004097          	auipc	ra,0x4
 8002764:	6a6080e7          	jalr	1702(ra) # 8006e06 <pthread_mutex_destroy>
 8002768:	ffffe097          	auipc	ra,0xffffe
 800276c:	e0c080e7          	jalr	-500(ra) # 8000574 <__sfp_lock_release>
 8002770:	4532                	lw	a0,12(sp)
 8002772:	006c                	addi	a1,sp,12
 8002774:	00005097          	auipc	ra,0x5
 8002778:	848080e7          	jalr	-1976(ra) # 8006fbc <pthread_setcancelstate>
 800277c:	50b2                	lw	ra,44(sp)
 800277e:	5422                	lw	s0,40(sp)
 8002780:	5492                	lw	s1,36(sp)
 8002782:	49f2                	lw	s3,28(sp)
 8002784:	854a                	mv	a0,s2
 8002786:	5902                	lw	s2,32(sp)
 8002788:	6145                	addi	sp,sp,48
 800278a:	8082                	ret
 800278c:	00c45783          	lhu	a5,12(s0)
 8002790:	06040993          	addi	s3,s0,96
 8002794:	2007f793          	andi	a5,a5,512
 8002798:	f3ad                	bnez	a5,80026fa <_fclose_r+0x36>
 800279a:	854e                	mv	a0,s3
 800279c:	00004097          	auipc	ra,0x4
 80027a0:	674080e7          	jalr	1652(ra) # 8006e10 <pthread_mutex_lock>
 80027a4:	00c41783          	lh	a5,12(s0)
 80027a8:	fba9                	bnez	a5,80026fa <_fclose_r+0x36>
 80027aa:	5c3c                	lw	a5,120(s0)
 80027ac:	8b85                	andi	a5,a5,1
 80027ae:	c7a5                	beqz	a5,8002816 <_fclose_r+0x152>
 80027b0:	4532                	lw	a0,12(sp)
 80027b2:	006c                	addi	a1,sp,12
 80027b4:	4901                	li	s2,0
 80027b6:	00005097          	auipc	ra,0x5
 80027ba:	806080e7          	jalr	-2042(ra) # 8006fbc <pthread_setcancelstate>
 80027be:	50b2                	lw	ra,44(sp)
 80027c0:	5422                	lw	s0,40(sp)
 80027c2:	5492                	lw	s1,36(sp)
 80027c4:	49f2                	lw	s3,28(sp)
 80027c6:	854a                	mv	a0,s2
 80027c8:	5902                	lw	s2,32(sp)
 80027ca:	6145                	addi	sp,sp,48
 80027cc:	8082                	ret
 80027ce:	ffffe097          	auipc	ra,0xffffe
 80027d2:	bb2080e7          	jalr	-1102(ra) # 8000380 <__sinit>
 80027d6:	006c                	addi	a1,sp,12
 80027d8:	4505                	li	a0,1
 80027da:	00004097          	auipc	ra,0x4
 80027de:	7e2080e7          	jalr	2018(ra) # 8006fbc <pthread_setcancelstate>
 80027e2:	5c3c                	lw	a5,120(s0)
 80027e4:	8b85                	andi	a5,a5,1
 80027e6:	f789                	bnez	a5,80026f0 <_fclose_r+0x2c>
 80027e8:	b755                	j	800278c <_fclose_r+0xc8>
 80027ea:	00c45783          	lhu	a5,12(s0)
 80027ee:	597d                	li	s2,-1
 80027f0:	0807f793          	andi	a5,a5,128
 80027f4:	d795                	beqz	a5,8002720 <_fclose_r+0x5c>
 80027f6:	480c                	lw	a1,16(s0)
 80027f8:	8526                	mv	a0,s1
 80027fa:	00000097          	auipc	ra,0x0
 80027fe:	58e080e7          	jalr	1422(ra) # 8002d88 <_free_r>
 8002802:	bf39                	j	8002720 <_fclose_r+0x5c>
 8002804:	50b2                	lw	ra,44(sp)
 8002806:	5422                	lw	s0,40(sp)
 8002808:	4901                	li	s2,0
 800280a:	5492                	lw	s1,36(sp)
 800280c:	49f2                	lw	s3,28(sp)
 800280e:	854a                	mv	a0,s2
 8002810:	5902                	lw	s2,32(sp)
 8002812:	6145                	addi	sp,sp,48
 8002814:	8082                	ret
 8002816:	854e                	mv	a0,s3
 8002818:	00004097          	auipc	ra,0x4
 800281c:	6e0080e7          	jalr	1760(ra) # 8006ef8 <pthread_mutex_unlock>
 8002820:	4532                	lw	a0,12(sp)
 8002822:	006c                	addi	a1,sp,12
 8002824:	4901                	li	s2,0
 8002826:	00004097          	auipc	ra,0x4
 800282a:	796080e7          	jalr	1942(ra) # 8006fbc <pthread_setcancelstate>
 800282e:	bf41                	j	80027be <_fclose_r+0xfa>
 8002830:	854e                	mv	a0,s3
 8002832:	00004097          	auipc	ra,0x4
 8002836:	6c6080e7          	jalr	1734(ra) # 8006ef8 <pthread_mutex_unlock>
 800283a:	b715                	j	800275e <_fclose_r+0x9a>

0800283c <fclose>:
 800283c:	1141                	addi	sp,sp,-16
 800283e:	c422                	sw	s0,8(sp)
 8002840:	c606                	sw	ra,12(sp)
 8002842:	842a                	mv	s0,a0
 8002844:	00003097          	auipc	ra,0x3
 8002848:	ac8080e7          	jalr	-1336(ra) # 800530c <__getreent>
 800284c:	85a2                	mv	a1,s0
 800284e:	4422                	lw	s0,8(sp)
 8002850:	40b2                	lw	ra,12(sp)
 8002852:	0141                	addi	sp,sp,16
 8002854:	00000317          	auipc	t1,0x0
 8002858:	e7030067          	jr	-400(t1) # 80026c4 <_fclose_r>

0800285c <__sflush_r>:
 800285c:	00c59783          	lh	a5,12(a1)
 8002860:	1101                	addi	sp,sp,-32
 8002862:	cc22                	sw	s0,24(sp)
 8002864:	c64e                	sw	s3,12(sp)
 8002866:	ce06                	sw	ra,28(sp)
 8002868:	ca26                	sw	s1,20(sp)
 800286a:	c84a                	sw	s2,16(sp)
 800286c:	0087f693          	andi	a3,a5,8
 8002870:	842e                	mv	s0,a1
 8002872:	89aa                	mv	s3,a0
 8002874:	eedd                	bnez	a3,8002932 <__sflush_r+0xd6>
 8002876:	6705                	lui	a4,0x1
 8002878:	80070713          	addi	a4,a4,-2048 # 800 <_main_stack_size+0x400>
 800287c:	41d4                	lw	a3,4(a1)
 800287e:	8fd9                	or	a5,a5,a4
 8002880:	00f59623          	sh	a5,12(a1)
 8002884:	10d05563          	blez	a3,800298e <__sflush_r+0x132>
 8002888:	5458                	lw	a4,44(s0)
 800288a:	cf41                	beqz	a4,8002922 <__sflush_r+0xc6>
 800288c:	0009a483          	lw	s1,0(s3)
 8002890:	01079693          	slli	a3,a5,0x10
 8002894:	0009a023          	sw	zero,0(s3)
 8002898:	01379613          	slli	a2,a5,0x13
 800289c:	500c                	lw	a1,32(s0)
 800289e:	82c1                	srli	a3,a3,0x10
 80028a0:	0e064b63          	bltz	a2,8002996 <__sflush_r+0x13a>
 80028a4:	4685                	li	a3,1
 80028a6:	4601                	li	a2,0
 80028a8:	854e                	mv	a0,s3
 80028aa:	9702                	jalr	a4
 80028ac:	57fd                	li	a5,-1
 80028ae:	10f50d63          	beq	a0,a5,80029c8 <__sflush_r+0x16c>
 80028b2:	00c45683          	lhu	a3,12(s0)
 80028b6:	5458                	lw	a4,44(s0)
 80028b8:	500c                	lw	a1,32(s0)
 80028ba:	8a91                	andi	a3,a3,4
 80028bc:	c699                	beqz	a3,80028ca <__sflush_r+0x6e>
 80028be:	4054                	lw	a3,4(s0)
 80028c0:	585c                	lw	a5,52(s0)
 80028c2:	8d15                	sub	a0,a0,a3
 80028c4:	c399                	beqz	a5,80028ca <__sflush_r+0x6e>
 80028c6:	403c                	lw	a5,64(s0)
 80028c8:	8d1d                	sub	a0,a0,a5
 80028ca:	862a                	mv	a2,a0
 80028cc:	4681                	li	a3,0
 80028ce:	854e                	mv	a0,s3
 80028d0:	9702                	jalr	a4
 80028d2:	57fd                	li	a5,-1
 80028d4:	0cf51363          	bne	a0,a5,800299a <__sflush_r+0x13e>
 80028d8:	0009a703          	lw	a4,0(s3)
 80028dc:	00c41783          	lh	a5,12(s0)
 80028e0:	10070563          	beqz	a4,80029ea <__sflush_r+0x18e>
 80028e4:	46f5                	li	a3,29
 80028e6:	00d70563          	beq	a4,a3,80028f0 <__sflush_r+0x94>
 80028ea:	46d9                	li	a3,22
 80028ec:	08d71663          	bne	a4,a3,8002978 <__sflush_r+0x11c>
 80028f0:	4814                	lw	a3,16(s0)
 80028f2:	777d                	lui	a4,0xfffff
 80028f4:	7ff70713          	addi	a4,a4,2047 # fffff7ff <_heap_end+0xdfff77ff>
 80028f8:	8ff9                	and	a5,a5,a4
 80028fa:	00f41623          	sh	a5,12(s0)
 80028fe:	00042223          	sw	zero,4(s0)
 8002902:	c014                	sw	a3,0(s0)
 8002904:	584c                	lw	a1,52(s0)
 8002906:	0099a023          	sw	s1,0(s3)
 800290a:	cd81                	beqz	a1,8002922 <__sflush_r+0xc6>
 800290c:	04440793          	addi	a5,s0,68
 8002910:	00f58763          	beq	a1,a5,800291e <__sflush_r+0xc2>
 8002914:	854e                	mv	a0,s3
 8002916:	00000097          	auipc	ra,0x0
 800291a:	472080e7          	jalr	1138(ra) # 8002d88 <_free_r>
 800291e:	02042a23          	sw	zero,52(s0)
 8002922:	4501                	li	a0,0
 8002924:	40f2                	lw	ra,28(sp)
 8002926:	4462                	lw	s0,24(sp)
 8002928:	44d2                	lw	s1,20(sp)
 800292a:	4942                	lw	s2,16(sp)
 800292c:	49b2                	lw	s3,12(sp)
 800292e:	6105                	addi	sp,sp,32
 8002930:	8082                	ret
 8002932:	0105a903          	lw	s2,16(a1)
 8002936:	fe0906e3          	beqz	s2,8002922 <__sflush_r+0xc6>
 800293a:	4184                	lw	s1,0(a1)
 800293c:	01079713          	slli	a4,a5,0x10
 8002940:	8341                	srli	a4,a4,0x10
 8002942:	8b0d                	andi	a4,a4,3
 8002944:	0125a023          	sw	s2,0(a1)
 8002948:	412484b3          	sub	s1,s1,s2
 800294c:	4781                	li	a5,0
 800294e:	e311                	bnez	a4,8002952 <__sflush_r+0xf6>
 8002950:	49dc                	lw	a5,20(a1)
 8002952:	c41c                	sw	a5,8(s0)
 8002954:	00904663          	bgtz	s1,8002960 <__sflush_r+0x104>
 8002958:	b7e9                	j	8002922 <__sflush_r+0xc6>
 800295a:	992a                	add	s2,s2,a0
 800295c:	fc9053e3          	blez	s1,8002922 <__sflush_r+0xc6>
 8002960:	541c                	lw	a5,40(s0)
 8002962:	500c                	lw	a1,32(s0)
 8002964:	86a6                	mv	a3,s1
 8002966:	864a                	mv	a2,s2
 8002968:	854e                	mv	a0,s3
 800296a:	9782                	jalr	a5
 800296c:	8c89                	sub	s1,s1,a0
 800296e:	fea046e3          	bgtz	a0,800295a <__sflush_r+0xfe>
 8002972:	00c45783          	lhu	a5,12(s0)
 8002976:	557d                	li	a0,-1
 8002978:	0407e793          	ori	a5,a5,64
 800297c:	40f2                	lw	ra,28(sp)
 800297e:	00f41623          	sh	a5,12(s0)
 8002982:	4462                	lw	s0,24(sp)
 8002984:	44d2                	lw	s1,20(sp)
 8002986:	4942                	lw	s2,16(sp)
 8002988:	49b2                	lw	s3,12(sp)
 800298a:	6105                	addi	sp,sp,32
 800298c:	8082                	ret
 800298e:	41b8                	lw	a4,64(a1)
 8002990:	eee04ce3          	bgtz	a4,8002888 <__sflush_r+0x2c>
 8002994:	b779                	j	8002922 <__sflush_r+0xc6>
 8002996:	4c28                	lw	a0,88(s0)
 8002998:	b70d                	j	80028ba <__sflush_r+0x5e>
 800299a:	00c45783          	lhu	a5,12(s0)
 800299e:	777d                	lui	a4,0xfffff
 80029a0:	7ff70713          	addi	a4,a4,2047 # fffff7ff <_heap_end+0xdfff77ff>
 80029a4:	8ff9                	and	a5,a5,a4
 80029a6:	4814                	lw	a3,16(s0)
 80029a8:	07c2                	slli	a5,a5,0x10
 80029aa:	87c1                	srai	a5,a5,0x10
 80029ac:	00f41623          	sh	a5,12(s0)
 80029b0:	00042223          	sw	zero,4(s0)
 80029b4:	c014                	sw	a3,0(s0)
 80029b6:	01379713          	slli	a4,a5,0x13
 80029ba:	f40755e3          	bgez	a4,8002904 <__sflush_r+0xa8>
 80029be:	41f55793          	srai	a5,a0,0x1f
 80029c2:	cc28                	sw	a0,88(s0)
 80029c4:	cc7c                	sw	a5,92(s0)
 80029c6:	bf3d                	j	8002904 <__sflush_r+0xa8>
 80029c8:	0009a783          	lw	a5,0(s3)
 80029cc:	ee0783e3          	beqz	a5,80028b2 <__sflush_r+0x56>
 80029d0:	4775                	li	a4,29
 80029d2:	02e78263          	beq	a5,a4,80029f6 <__sflush_r+0x19a>
 80029d6:	4759                	li	a4,22
 80029d8:	00e78f63          	beq	a5,a4,80029f6 <__sflush_r+0x19a>
 80029dc:	00c45783          	lhu	a5,12(s0)
 80029e0:	0407e793          	ori	a5,a5,64
 80029e4:	00f41623          	sh	a5,12(s0)
 80029e8:	bf35                	j	8002924 <__sflush_r+0xc8>
 80029ea:	777d                	lui	a4,0xfffff
 80029ec:	7ff70713          	addi	a4,a4,2047 # fffff7ff <_heap_end+0xdfff77ff>
 80029f0:	4814                	lw	a3,16(s0)
 80029f2:	8ff9                	and	a5,a5,a4
 80029f4:	bf65                	j	80029ac <__sflush_r+0x150>
 80029f6:	0099a023          	sw	s1,0(s3)
 80029fa:	4501                	li	a0,0
 80029fc:	b725                	j	8002924 <__sflush_r+0xc8>

080029fe <_fflush_r>:
 80029fe:	499c                	lw	a5,16(a1)
 8002a00:	1101                	addi	sp,sp,-32
 8002a02:	ce06                	sw	ra,28(sp)
 8002a04:	cc22                	sw	s0,24(sp)
 8002a06:	ca26                	sw	s1,20(sp)
 8002a08:	cb89                	beqz	a5,8002a1a <_fflush_r+0x1c>
 8002a0a:	842e                	mv	s0,a1
 8002a0c:	84aa                	mv	s1,a0
 8002a0e:	c119                	beqz	a0,8002a14 <_fflush_r+0x16>
 8002a10:	4d1c                	lw	a5,24(a0)
 8002a12:	c7a5                	beqz	a5,8002a7a <_fflush_r+0x7c>
 8002a14:	00c41783          	lh	a5,12(s0)
 8002a18:	eb81                	bnez	a5,8002a28 <_fflush_r+0x2a>
 8002a1a:	40f2                	lw	ra,28(sp)
 8002a1c:	4462                	lw	s0,24(sp)
 8002a1e:	4481                	li	s1,0
 8002a20:	8526                	mv	a0,s1
 8002a22:	44d2                	lw	s1,20(sp)
 8002a24:	6105                	addi	sp,sp,32
 8002a26:	8082                	ret
 8002a28:	006c                	addi	a1,sp,12
 8002a2a:	4505                	li	a0,1
 8002a2c:	00004097          	auipc	ra,0x4
 8002a30:	590080e7          	jalr	1424(ra) # 8006fbc <pthread_setcancelstate>
 8002a34:	5c3c                	lw	a5,120(s0)
 8002a36:	8b85                	andi	a5,a5,1
 8002a38:	e791                	bnez	a5,8002a44 <_fflush_r+0x46>
 8002a3a:	00c45783          	lhu	a5,12(s0)
 8002a3e:	2007f793          	andi	a5,a5,512
 8002a42:	c7a1                	beqz	a5,8002a8a <_fflush_r+0x8c>
 8002a44:	8526                	mv	a0,s1
 8002a46:	85a2                	mv	a1,s0
 8002a48:	00000097          	auipc	ra,0x0
 8002a4c:	e14080e7          	jalr	-492(ra) # 800285c <__sflush_r>
 8002a50:	5c3c                	lw	a5,120(s0)
 8002a52:	84aa                	mv	s1,a0
 8002a54:	8b85                	andi	a5,a5,1
 8002a56:	e791                	bnez	a5,8002a62 <_fflush_r+0x64>
 8002a58:	00c45783          	lhu	a5,12(s0)
 8002a5c:	2007f793          	andi	a5,a5,512
 8002a60:	cf85                	beqz	a5,8002a98 <_fflush_r+0x9a>
 8002a62:	4532                	lw	a0,12(sp)
 8002a64:	006c                	addi	a1,sp,12
 8002a66:	00004097          	auipc	ra,0x4
 8002a6a:	556080e7          	jalr	1366(ra) # 8006fbc <pthread_setcancelstate>
 8002a6e:	40f2                	lw	ra,28(sp)
 8002a70:	4462                	lw	s0,24(sp)
 8002a72:	8526                	mv	a0,s1
 8002a74:	44d2                	lw	s1,20(sp)
 8002a76:	6105                	addi	sp,sp,32
 8002a78:	8082                	ret
 8002a7a:	ffffe097          	auipc	ra,0xffffe
 8002a7e:	906080e7          	jalr	-1786(ra) # 8000380 <__sinit>
 8002a82:	00c41783          	lh	a5,12(s0)
 8002a86:	dbd1                	beqz	a5,8002a1a <_fflush_r+0x1c>
 8002a88:	b745                	j	8002a28 <_fflush_r+0x2a>
 8002a8a:	06040513          	addi	a0,s0,96
 8002a8e:	00004097          	auipc	ra,0x4
 8002a92:	382080e7          	jalr	898(ra) # 8006e10 <pthread_mutex_lock>
 8002a96:	b77d                	j	8002a44 <_fflush_r+0x46>
 8002a98:	06040513          	addi	a0,s0,96
 8002a9c:	00004097          	auipc	ra,0x4
 8002aa0:	45c080e7          	jalr	1116(ra) # 8006ef8 <pthread_mutex_unlock>
 8002aa4:	bf7d                	j	8002a62 <_fflush_r+0x64>

08002aa6 <fflush>:
 8002aa6:	c10d                	beqz	a0,8002ac8 <fflush+0x22>
 8002aa8:	1141                	addi	sp,sp,-16
 8002aaa:	c422                	sw	s0,8(sp)
 8002aac:	c606                	sw	ra,12(sp)
 8002aae:	842a                	mv	s0,a0
 8002ab0:	00003097          	auipc	ra,0x3
 8002ab4:	85c080e7          	jalr	-1956(ra) # 800530c <__getreent>
 8002ab8:	85a2                	mv	a1,s0
 8002aba:	4422                	lw	s0,8(sp)
 8002abc:	40b2                	lw	ra,12(sp)
 8002abe:	0141                	addi	sp,sp,16
 8002ac0:	00000317          	auipc	t1,0x0
 8002ac4:	f3e30067          	jr	-194(t1) # 80029fe <_fflush_r>
 8002ac8:	200017b7          	lui	a5,0x20001
 8002acc:	bb87a503          	lw	a0,-1096(a5) # 20000bb8 <_global_impure_ptr>
 8002ad0:	080035b7          	lui	a1,0x8003
 8002ad4:	9fe58593          	addi	a1,a1,-1538 # 80029fe <_fflush_r>
 8002ad8:	ffffe317          	auipc	t1,0xffffe
 8002adc:	bf830067          	jr	-1032(t1) # 80006d0 <_fwalk_reent>

08002ae0 <__fputwc>:
 8002ae0:	7179                	addi	sp,sp,-48
 8002ae2:	d422                	sw	s0,40(sp)
 8002ae4:	ce4e                	sw	s3,28(sp)
 8002ae6:	c85a                	sw	s6,16(sp)
 8002ae8:	d606                	sw	ra,44(sp)
 8002aea:	d226                	sw	s1,36(sp)
 8002aec:	d04a                	sw	s2,32(sp)
 8002aee:	cc52                	sw	s4,24(sp)
 8002af0:	ca56                	sw	s5,20(sp)
 8002af2:	8b2a                	mv	s6,a0
 8002af4:	89ae                	mv	s3,a1
 8002af6:	8432                	mv	s0,a2
 8002af8:	00001097          	auipc	ra,0x1
 8002afc:	8ba080e7          	jalr	-1862(ra) # 80033b2 <__locale_mb_cur_max>
 8002b00:	4785                	li	a5,1
 8002b02:	00f51e63          	bne	a0,a5,8002b1e <__fputwc+0x3e>
 8002b06:	fff98793          	addi	a5,s3,-1
 8002b0a:	0fe00713          	li	a4,254
 8002b0e:	00f76863          	bltu	a4,a5,8002b1e <__fputwc+0x3e>
 8002b12:	0ff9f713          	andi	a4,s3,255
 8002b16:	00e10623          	sb	a4,12(sp)
 8002b1a:	4905                	li	s2,1
 8002b1c:	a00d                	j	8002b3e <__fputwc+0x5e>
 8002b1e:	07040693          	addi	a3,s0,112
 8002b22:	864e                	mv	a2,s3
 8002b24:	006c                	addi	a1,sp,12
 8002b26:	855a                	mv	a0,s6
 8002b28:	00001097          	auipc	ra,0x1
 8002b2c:	e54080e7          	jalr	-428(ra) # 800397c <_wcrtomb_r>
 8002b30:	57fd                	li	a5,-1
 8002b32:	892a                	mv	s2,a0
 8002b34:	06f50763          	beq	a0,a5,8002ba2 <__fputwc+0xc2>
 8002b38:	c13d                	beqz	a0,8002b9e <__fputwc+0xbe>
 8002b3a:	00c14703          	lbu	a4,12(sp)
 8002b3e:	4481                	li	s1,0
 8002b40:	5a7d                	li	s4,-1
 8002b42:	4aa9                	li	s5,10
 8002b44:	a831                	j	8002b60 <__fputwc+0x80>
 8002b46:	401c                	lw	a5,0(s0)
 8002b48:	00178693          	addi	a3,a5,1
 8002b4c:	c014                	sw	a3,0(s0)
 8002b4e:	00e78023          	sb	a4,0(a5)
 8002b52:	0485                	addi	s1,s1,1
 8002b54:	007c                	addi	a5,sp,12
 8002b56:	97a6                	add	a5,a5,s1
 8002b58:	0524f363          	bgeu	s1,s2,8002b9e <__fputwc+0xbe>
 8002b5c:	0007c703          	lbu	a4,0(a5)
 8002b60:	441c                	lw	a5,8(s0)
 8002b62:	17fd                	addi	a5,a5,-1
 8002b64:	c41c                	sw	a5,8(s0)
 8002b66:	fe07d0e3          	bgez	a5,8002b46 <__fputwc+0x66>
 8002b6a:	4c14                	lw	a3,24(s0)
 8002b6c:	85ba                	mv	a1,a4
 8002b6e:	8622                	mv	a2,s0
 8002b70:	855a                	mv	a0,s6
 8002b72:	00d7c463          	blt	a5,a3,8002b7a <__fputwc+0x9a>
 8002b76:	fd5718e3          	bne	a4,s5,8002b46 <__fputwc+0x66>
 8002b7a:	00001097          	auipc	ra,0x1
 8002b7e:	ccc080e7          	jalr	-820(ra) # 8003846 <__swbuf_r>
 8002b82:	fd4518e3          	bne	a0,s4,8002b52 <__fputwc+0x72>
 8002b86:	597d                	li	s2,-1
 8002b88:	50b2                	lw	ra,44(sp)
 8002b8a:	5422                	lw	s0,40(sp)
 8002b8c:	5492                	lw	s1,36(sp)
 8002b8e:	49f2                	lw	s3,28(sp)
 8002b90:	4a62                	lw	s4,24(sp)
 8002b92:	4ad2                	lw	s5,20(sp)
 8002b94:	4b42                	lw	s6,16(sp)
 8002b96:	854a                	mv	a0,s2
 8002b98:	5902                	lw	s2,32(sp)
 8002b9a:	6145                	addi	sp,sp,48
 8002b9c:	8082                	ret
 8002b9e:	894e                	mv	s2,s3
 8002ba0:	b7e5                	j	8002b88 <__fputwc+0xa8>
 8002ba2:	00c45783          	lhu	a5,12(s0)
 8002ba6:	0407e793          	ori	a5,a5,64
 8002baa:	00f41623          	sh	a5,12(s0)
 8002bae:	bfe9                	j	8002b88 <__fputwc+0xa8>

08002bb0 <_fputwc_r>:
 8002bb0:	1101                	addi	sp,sp,-32
 8002bb2:	ca26                	sw	s1,20(sp)
 8002bb4:	c84a                	sw	s2,16(sp)
 8002bb6:	84aa                	mv	s1,a0
 8002bb8:	892e                	mv	s2,a1
 8002bba:	4505                	li	a0,1
 8002bbc:	006c                	addi	a1,sp,12
 8002bbe:	cc22                	sw	s0,24(sp)
 8002bc0:	ce06                	sw	ra,28(sp)
 8002bc2:	8432                	mv	s0,a2
 8002bc4:	00004097          	auipc	ra,0x4
 8002bc8:	3f8080e7          	jalr	1016(ra) # 8006fbc <pthread_setcancelstate>
 8002bcc:	5c3c                	lw	a5,120(s0)
 8002bce:	8b85                	andi	a5,a5,1
 8002bd0:	eba5                	bnez	a5,8002c40 <_fputwc_r+0x90>
 8002bd2:	00c41783          	lh	a5,12(s0)
 8002bd6:	01079713          	slli	a4,a5,0x10
 8002bda:	2007f693          	andi	a3,a5,512
 8002bde:	8341                	srli	a4,a4,0x10
 8002be0:	cab1                	beqz	a3,8002c34 <_fputwc_r+0x84>
 8002be2:	01271693          	slli	a3,a4,0x12
 8002be6:	0006ca63          	bltz	a3,8002bfa <_fputwc_r+0x4a>
 8002bea:	5c38                	lw	a4,120(s0)
 8002bec:	6689                	lui	a3,0x2
 8002bee:	8fd5                	or	a5,a5,a3
 8002bf0:	6689                	lui	a3,0x2
 8002bf2:	8f55                	or	a4,a4,a3
 8002bf4:	00f41623          	sh	a5,12(s0)
 8002bf8:	dc38                	sw	a4,120(s0)
 8002bfa:	8526                	mv	a0,s1
 8002bfc:	8622                	mv	a2,s0
 8002bfe:	85ca                	mv	a1,s2
 8002c00:	00000097          	auipc	ra,0x0
 8002c04:	ee0080e7          	jalr	-288(ra) # 8002ae0 <__fputwc>
 8002c08:	5c3c                	lw	a5,120(s0)
 8002c0a:	84aa                	mv	s1,a0
 8002c0c:	8b85                	andi	a5,a5,1
 8002c0e:	e791                	bnez	a5,8002c1a <_fputwc_r+0x6a>
 8002c10:	00c45783          	lhu	a5,12(s0)
 8002c14:	2007f793          	andi	a5,a5,512
 8002c18:	cb95                	beqz	a5,8002c4c <_fputwc_r+0x9c>
 8002c1a:	4532                	lw	a0,12(sp)
 8002c1c:	006c                	addi	a1,sp,12
 8002c1e:	00004097          	auipc	ra,0x4
 8002c22:	39e080e7          	jalr	926(ra) # 8006fbc <pthread_setcancelstate>
 8002c26:	40f2                	lw	ra,28(sp)
 8002c28:	4462                	lw	s0,24(sp)
 8002c2a:	4942                	lw	s2,16(sp)
 8002c2c:	8526                	mv	a0,s1
 8002c2e:	44d2                	lw	s1,20(sp)
 8002c30:	6105                	addi	sp,sp,32
 8002c32:	8082                	ret
 8002c34:	06040513          	addi	a0,s0,96
 8002c38:	00004097          	auipc	ra,0x4
 8002c3c:	1d8080e7          	jalr	472(ra) # 8006e10 <pthread_mutex_lock>
 8002c40:	00c41783          	lh	a5,12(s0)
 8002c44:	01079713          	slli	a4,a5,0x10
 8002c48:	8341                	srli	a4,a4,0x10
 8002c4a:	bf61                	j	8002be2 <_fputwc_r+0x32>
 8002c4c:	06040513          	addi	a0,s0,96
 8002c50:	00004097          	auipc	ra,0x4
 8002c54:	2a8080e7          	jalr	680(ra) # 8006ef8 <pthread_mutex_unlock>
 8002c58:	b7c9                	j	8002c1a <_fputwc_r+0x6a>

08002c5a <fputwc>:
 8002c5a:	1141                	addi	sp,sp,-16
 8002c5c:	c422                	sw	s0,8(sp)
 8002c5e:	c226                	sw	s1,4(sp)
 8002c60:	c04a                	sw	s2,0(sp)
 8002c62:	c606                	sw	ra,12(sp)
 8002c64:	84aa                	mv	s1,a0
 8002c66:	892e                	mv	s2,a1
 8002c68:	00002097          	auipc	ra,0x2
 8002c6c:	6a4080e7          	jalr	1700(ra) # 800530c <__getreent>
 8002c70:	842a                	mv	s0,a0
 8002c72:	c119                	beqz	a0,8002c78 <fputwc+0x1e>
 8002c74:	4d1c                	lw	a5,24(a0)
 8002c76:	cf89                	beqz	a5,8002c90 <fputwc+0x36>
 8002c78:	8522                	mv	a0,s0
 8002c7a:	4422                	lw	s0,8(sp)
 8002c7c:	40b2                	lw	ra,12(sp)
 8002c7e:	864a                	mv	a2,s2
 8002c80:	85a6                	mv	a1,s1
 8002c82:	4902                	lw	s2,0(sp)
 8002c84:	4492                	lw	s1,4(sp)
 8002c86:	0141                	addi	sp,sp,16
 8002c88:	00000317          	auipc	t1,0x0
 8002c8c:	f2830067          	jr	-216(t1) # 8002bb0 <_fputwc_r>
 8002c90:	ffffd097          	auipc	ra,0xffffd
 8002c94:	6f0080e7          	jalr	1776(ra) # 8000380 <__sinit>
 8002c98:	b7c5                	j	8002c78 <fputwc+0x1e>

08002c9a <_malloc_trim_r>:
 8002c9a:	1101                	addi	sp,sp,-32
 8002c9c:	c64e                	sw	s3,12(sp)
 8002c9e:	200009b7          	lui	s3,0x20000
 8002ca2:	cc22                	sw	s0,24(sp)
 8002ca4:	ca26                	sw	s1,20(sp)
 8002ca6:	c84a                	sw	s2,16(sp)
 8002ca8:	842e                	mv	s0,a1
 8002caa:	ce06                	sw	ra,28(sp)
 8002cac:	892a                	mv	s2,a0
 8002cae:	45098993          	addi	s3,s3,1104 # 20000450 <__malloc_av_>
 8002cb2:	00002097          	auipc	ra,0x2
 8002cb6:	64a080e7          	jalr	1610(ra) # 80052fc <__malloc_lock>
 8002cba:	0089a703          	lw	a4,8(s3)
 8002cbe:	3ff00793          	li	a5,1023
 8002cc2:	4344                	lw	s1,4(a4)
 8002cc4:	98f1                	andi	s1,s1,-4
 8002cc6:	40848433          	sub	s0,s1,s0
 8002cca:	3ef40413          	addi	s0,s0,1007
 8002cce:	c0047413          	andi	s0,s0,-1024
 8002cd2:	c0040413          	addi	s0,s0,-1024
 8002cd6:	0087dd63          	bge	a5,s0,8002cf0 <_malloc_trim_r+0x56>
 8002cda:	4581                	li	a1,0
 8002cdc:	854a                	mv	a0,s2
 8002cde:	00002097          	auipc	ra,0x2
 8002ce2:	5da080e7          	jalr	1498(ra) # 80052b8 <_sbrk_r>
 8002ce6:	0089a783          	lw	a5,8(s3)
 8002cea:	97a6                	add	a5,a5,s1
 8002cec:	00f50f63          	beq	a0,a5,8002d0a <_malloc_trim_r+0x70>
 8002cf0:	854a                	mv	a0,s2
 8002cf2:	00002097          	auipc	ra,0x2
 8002cf6:	612080e7          	jalr	1554(ra) # 8005304 <__malloc_unlock>
 8002cfa:	40f2                	lw	ra,28(sp)
 8002cfc:	4462                	lw	s0,24(sp)
 8002cfe:	44d2                	lw	s1,20(sp)
 8002d00:	4942                	lw	s2,16(sp)
 8002d02:	49b2                	lw	s3,12(sp)
 8002d04:	4501                	li	a0,0
 8002d06:	6105                	addi	sp,sp,32
 8002d08:	8082                	ret
 8002d0a:	408005b3          	neg	a1,s0
 8002d0e:	854a                	mv	a0,s2
 8002d10:	00002097          	auipc	ra,0x2
 8002d14:	5a8080e7          	jalr	1448(ra) # 80052b8 <_sbrk_r>
 8002d18:	57fd                	li	a5,-1
 8002d1a:	02f50d63          	beq	a0,a5,8002d54 <_malloc_trim_r+0xba>
 8002d1e:	200017b7          	lui	a5,0x20001
 8002d22:	94c78793          	addi	a5,a5,-1716 # 2000094c <__malloc_current_mallinfo>
 8002d26:	4398                	lw	a4,0(a5)
 8002d28:	0089a683          	lw	a3,8(s3)
 8002d2c:	8c81                	sub	s1,s1,s0
 8002d2e:	0014e493          	ori	s1,s1,1
 8002d32:	40870433          	sub	s0,a4,s0
 8002d36:	854a                	mv	a0,s2
 8002d38:	c2c4                	sw	s1,4(a3)
 8002d3a:	c380                	sw	s0,0(a5)
 8002d3c:	00002097          	auipc	ra,0x2
 8002d40:	5c8080e7          	jalr	1480(ra) # 8005304 <__malloc_unlock>
 8002d44:	40f2                	lw	ra,28(sp)
 8002d46:	4462                	lw	s0,24(sp)
 8002d48:	44d2                	lw	s1,20(sp)
 8002d4a:	4942                	lw	s2,16(sp)
 8002d4c:	49b2                	lw	s3,12(sp)
 8002d4e:	4505                	li	a0,1
 8002d50:	6105                	addi	sp,sp,32
 8002d52:	8082                	ret
 8002d54:	4581                	li	a1,0
 8002d56:	854a                	mv	a0,s2
 8002d58:	00002097          	auipc	ra,0x2
 8002d5c:	560080e7          	jalr	1376(ra) # 80052b8 <_sbrk_r>
 8002d60:	0089a703          	lw	a4,8(s3)
 8002d64:	46bd                	li	a3,15
 8002d66:	40e507b3          	sub	a5,a0,a4
 8002d6a:	f8f6d3e3          	bge	a3,a5,8002cf0 <_malloc_trim_r+0x56>
 8002d6e:	200016b7          	lui	a3,0x20001
 8002d72:	8646a683          	lw	a3,-1948(a3) # 20000864 <__malloc_sbrk_base>
 8002d76:	0017e793          	ori	a5,a5,1
 8002d7a:	c35c                	sw	a5,4(a4)
 8002d7c:	8d15                	sub	a0,a0,a3
 8002d7e:	200016b7          	lui	a3,0x20001
 8002d82:	94a6a623          	sw	a0,-1716(a3) # 2000094c <__malloc_current_mallinfo>
 8002d86:	b7ad                	j	8002cf0 <_malloc_trim_r+0x56>

08002d88 <_free_r>:
 8002d88:	c5fd                	beqz	a1,8002e76 <_free_r+0xee>
 8002d8a:	1141                	addi	sp,sp,-16
 8002d8c:	c422                	sw	s0,8(sp)
 8002d8e:	c226                	sw	s1,4(sp)
 8002d90:	842e                	mv	s0,a1
 8002d92:	84aa                	mv	s1,a0
 8002d94:	c606                	sw	ra,12(sp)
 8002d96:	00002097          	auipc	ra,0x2
 8002d9a:	566080e7          	jalr	1382(ra) # 80052fc <__malloc_lock>
 8002d9e:	ffc42803          	lw	a6,-4(s0)
 8002da2:	ff840713          	addi	a4,s0,-8
 8002da6:	200005b7          	lui	a1,0x20000
 8002daa:	ffe87793          	andi	a5,a6,-2
 8002dae:	00f70633          	add	a2,a4,a5
 8002db2:	45058593          	addi	a1,a1,1104 # 20000450 <__malloc_av_>
 8002db6:	4254                	lw	a3,4(a2)
 8002db8:	4588                	lw	a0,8(a1)
 8002dba:	9af1                	andi	a3,a3,-4
 8002dbc:	14c50663          	beq	a0,a2,8002f08 <_free_r+0x180>
 8002dc0:	c254                	sw	a3,4(a2)
 8002dc2:	00187813          	andi	a6,a6,1
 8002dc6:	00d60533          	add	a0,a2,a3
 8002dca:	06081f63          	bnez	a6,8002e48 <_free_r+0xc0>
 8002dce:	ff842303          	lw	t1,-8(s0)
 8002dd2:	00452803          	lw	a6,4(a0)
 8002dd6:	20000537          	lui	a0,0x20000
 8002dda:	40670733          	sub	a4,a4,t1
 8002dde:	00872883          	lw	a7,8(a4)
 8002de2:	45850513          	addi	a0,a0,1112 # 20000458 <__malloc_av_+0x8>
 8002de6:	979a                	add	a5,a5,t1
 8002de8:	00187813          	andi	a6,a6,1
 8002dec:	0ea88963          	beq	a7,a0,8002ede <_free_r+0x156>
 8002df0:	00c72303          	lw	t1,12(a4)
 8002df4:	0068a623          	sw	t1,12(a7)
 8002df8:	01132423          	sw	a7,8(t1)
 8002dfc:	16080663          	beqz	a6,8002f68 <_free_r+0x1e0>
 8002e00:	0017e693          	ori	a3,a5,1
 8002e04:	c354                	sw	a3,4(a4)
 8002e06:	c21c                	sw	a5,0(a2)
 8002e08:	1ff00693          	li	a3,511
 8002e0c:	06f6ef63          	bltu	a3,a5,8002e8a <_free_r+0x102>
 8002e10:	ff87f693          	andi	a3,a5,-8
 8002e14:	06a1                	addi	a3,a3,8
 8002e16:	41c8                	lw	a0,4(a1)
 8002e18:	96ae                	add	a3,a3,a1
 8002e1a:	4290                	lw	a2,0(a3)
 8002e1c:	0057d813          	srli	a6,a5,0x5
 8002e20:	4785                	li	a5,1
 8002e22:	010797b3          	sll	a5,a5,a6
 8002e26:	8fc9                	or	a5,a5,a0
 8002e28:	ff868513          	addi	a0,a3,-8
 8002e2c:	c748                	sw	a0,12(a4)
 8002e2e:	c710                	sw	a2,8(a4)
 8002e30:	c1dc                	sw	a5,4(a1)
 8002e32:	c298                	sw	a4,0(a3)
 8002e34:	c658                	sw	a4,12(a2)
 8002e36:	4422                	lw	s0,8(sp)
 8002e38:	40b2                	lw	ra,12(sp)
 8002e3a:	8526                	mv	a0,s1
 8002e3c:	4492                	lw	s1,4(sp)
 8002e3e:	0141                	addi	sp,sp,16
 8002e40:	00002317          	auipc	t1,0x2
 8002e44:	4c430067          	jr	1220(t1) # 8005304 <__malloc_unlock>
 8002e48:	4148                	lw	a0,4(a0)
 8002e4a:	8905                	andi	a0,a0,1
 8002e4c:	e515                	bnez	a0,8002e78 <_free_r+0xf0>
 8002e4e:	20000537          	lui	a0,0x20000
 8002e52:	97b6                	add	a5,a5,a3
 8002e54:	45850513          	addi	a0,a0,1112 # 20000458 <__malloc_av_+0x8>
 8002e58:	4614                	lw	a3,8(a2)
 8002e5a:	0017e893          	ori	a7,a5,1
 8002e5e:	00f70833          	add	a6,a4,a5
 8002e62:	10a68b63          	beq	a3,a0,8002f78 <_free_r+0x1f0>
 8002e66:	4650                	lw	a2,12(a2)
 8002e68:	c6d0                	sw	a2,12(a3)
 8002e6a:	c614                	sw	a3,8(a2)
 8002e6c:	01172223          	sw	a7,4(a4)
 8002e70:	00f82023          	sw	a5,0(a6)
 8002e74:	bf51                	j	8002e08 <_free_r+0x80>
 8002e76:	8082                	ret
 8002e78:	0017e693          	ori	a3,a5,1
 8002e7c:	fed42e23          	sw	a3,-4(s0)
 8002e80:	c21c                	sw	a5,0(a2)
 8002e82:	1ff00693          	li	a3,511
 8002e86:	f8f6f5e3          	bgeu	a3,a5,8002e10 <_free_r+0x88>
 8002e8a:	0097d693          	srli	a3,a5,0x9
 8002e8e:	4611                	li	a2,4
 8002e90:	0ad66d63          	bltu	a2,a3,8002f4a <_free_r+0x1c2>
 8002e94:	0067d693          	srli	a3,a5,0x6
 8002e98:	03968813          	addi	a6,a3,57
 8002e9c:	03868613          	addi	a2,a3,56
 8002ea0:	080e                	slli	a6,a6,0x3
 8002ea2:	982e                	add	a6,a6,a1
 8002ea4:	00082683          	lw	a3,0(a6)
 8002ea8:	1861                	addi	a6,a6,-8
 8002eaa:	0ed80063          	beq	a6,a3,8002f8a <_free_r+0x202>
 8002eae:	42d0                	lw	a2,4(a3)
 8002eb0:	9a71                	andi	a2,a2,-4
 8002eb2:	00c7f563          	bgeu	a5,a2,8002ebc <_free_r+0x134>
 8002eb6:	4694                	lw	a3,8(a3)
 8002eb8:	fed81be3          	bne	a6,a3,8002eae <_free_r+0x126>
 8002ebc:	00c6a803          	lw	a6,12(a3)
 8002ec0:	01072623          	sw	a6,12(a4)
 8002ec4:	c714                	sw	a3,8(a4)
 8002ec6:	4422                	lw	s0,8(sp)
 8002ec8:	40b2                	lw	ra,12(sp)
 8002eca:	00e82423          	sw	a4,8(a6)
 8002ece:	8526                	mv	a0,s1
 8002ed0:	4492                	lw	s1,4(sp)
 8002ed2:	c6d8                	sw	a4,12(a3)
 8002ed4:	0141                	addi	sp,sp,16
 8002ed6:	00002317          	auipc	t1,0x2
 8002eda:	42e30067          	jr	1070(t1) # 8005304 <__malloc_unlock>
 8002ede:	0e081b63          	bnez	a6,8002fd4 <_free_r+0x24c>
 8002ee2:	464c                	lw	a1,12(a2)
 8002ee4:	4610                	lw	a2,8(a2)
 8002ee6:	97b6                	add	a5,a5,a3
 8002ee8:	4422                	lw	s0,8(sp)
 8002eea:	c64c                	sw	a1,12(a2)
 8002eec:	c590                	sw	a2,8(a1)
 8002eee:	0017e693          	ori	a3,a5,1
 8002ef2:	40b2                	lw	ra,12(sp)
 8002ef4:	c354                	sw	a3,4(a4)
 8002ef6:	8526                	mv	a0,s1
 8002ef8:	973e                	add	a4,a4,a5
 8002efa:	4492                	lw	s1,4(sp)
 8002efc:	c31c                	sw	a5,0(a4)
 8002efe:	0141                	addi	sp,sp,16
 8002f00:	00002317          	auipc	t1,0x2
 8002f04:	40430067          	jr	1028(t1) # 8005304 <__malloc_unlock>
 8002f08:	00187813          	andi	a6,a6,1
 8002f0c:	97b6                	add	a5,a5,a3
 8002f0e:	00081a63          	bnez	a6,8002f22 <_free_r+0x19a>
 8002f12:	ff842503          	lw	a0,-8(s0)
 8002f16:	8f09                	sub	a4,a4,a0
 8002f18:	4754                	lw	a3,12(a4)
 8002f1a:	4710                	lw	a2,8(a4)
 8002f1c:	97aa                	add	a5,a5,a0
 8002f1e:	c654                	sw	a3,12(a2)
 8002f20:	c690                	sw	a2,8(a3)
 8002f22:	200016b7          	lui	a3,0x20001
 8002f26:	0017e613          	ori	a2,a5,1
 8002f2a:	8686a683          	lw	a3,-1944(a3) # 20000868 <__malloc_trim_threshold>
 8002f2e:	c350                	sw	a2,4(a4)
 8002f30:	c598                	sw	a4,8(a1)
 8002f32:	f0d7e2e3          	bltu	a5,a3,8002e36 <_free_r+0xae>
 8002f36:	200017b7          	lui	a5,0x20001
 8002f3a:	a107a583          	lw	a1,-1520(a5) # 20000a10 <__malloc_top_pad>
 8002f3e:	8526                	mv	a0,s1
 8002f40:	00000097          	auipc	ra,0x0
 8002f44:	d5a080e7          	jalr	-678(ra) # 8002c9a <_malloc_trim_r>
 8002f48:	b5fd                	j	8002e36 <_free_r+0xae>
 8002f4a:	4651                	li	a2,20
 8002f4c:	02d67063          	bgeu	a2,a3,8002f6c <_free_r+0x1e4>
 8002f50:	05400613          	li	a2,84
 8002f54:	04d66363          	bltu	a2,a3,8002f9a <_free_r+0x212>
 8002f58:	00c7d693          	srli	a3,a5,0xc
 8002f5c:	06f68813          	addi	a6,a3,111
 8002f60:	06e68613          	addi	a2,a3,110
 8002f64:	080e                	slli	a6,a6,0x3
 8002f66:	bf35                	j	8002ea2 <_free_r+0x11a>
 8002f68:	97b6                	add	a5,a5,a3
 8002f6a:	b5fd                	j	8002e58 <_free_r+0xd0>
 8002f6c:	05c68813          	addi	a6,a3,92
 8002f70:	05b68613          	addi	a2,a3,91
 8002f74:	080e                	slli	a6,a6,0x3
 8002f76:	b735                	j	8002ea2 <_free_r+0x11a>
 8002f78:	c9d8                	sw	a4,20(a1)
 8002f7a:	c998                	sw	a4,16(a1)
 8002f7c:	c748                	sw	a0,12(a4)
 8002f7e:	c708                	sw	a0,8(a4)
 8002f80:	01172223          	sw	a7,4(a4)
 8002f84:	00f82023          	sw	a5,0(a6)
 8002f88:	b57d                	j	8002e36 <_free_r+0xae>
 8002f8a:	41c8                	lw	a0,4(a1)
 8002f8c:	8609                	srai	a2,a2,0x2
 8002f8e:	4785                	li	a5,1
 8002f90:	00c79633          	sll	a2,a5,a2
 8002f94:	8e49                	or	a2,a2,a0
 8002f96:	c1d0                	sw	a2,4(a1)
 8002f98:	b725                	j	8002ec0 <_free_r+0x138>
 8002f9a:	15400613          	li	a2,340
 8002f9e:	00d66a63          	bltu	a2,a3,8002fb2 <_free_r+0x22a>
 8002fa2:	00f7d693          	srli	a3,a5,0xf
 8002fa6:	07868813          	addi	a6,a3,120
 8002faa:	07768613          	addi	a2,a3,119
 8002fae:	080e                	slli	a6,a6,0x3
 8002fb0:	bdcd                	j	8002ea2 <_free_r+0x11a>
 8002fb2:	55400613          	li	a2,1364
 8002fb6:	00d66a63          	bltu	a2,a3,8002fca <_free_r+0x242>
 8002fba:	0127d693          	srli	a3,a5,0x12
 8002fbe:	07d68813          	addi	a6,a3,125
 8002fc2:	07c68613          	addi	a2,a3,124
 8002fc6:	080e                	slli	a6,a6,0x3
 8002fc8:	bde9                	j	8002ea2 <_free_r+0x11a>
 8002fca:	3f800813          	li	a6,1016
 8002fce:	07e00613          	li	a2,126
 8002fd2:	bdc1                	j	8002ea2 <_free_r+0x11a>
 8002fd4:	0017e693          	ori	a3,a5,1
 8002fd8:	c354                	sw	a3,4(a4)
 8002fda:	c21c                	sw	a5,0(a2)
 8002fdc:	bda9                	j	8002e36 <_free_r+0xae>

08002fde <__sfvwrite_r>:
 8002fde:	461c                	lw	a5,8(a2)
 8002fe0:	26078663          	beqz	a5,800324c <__sfvwrite_r+0x26e>
 8002fe4:	00c5d783          	lhu	a5,12(a1)
 8002fe8:	7179                	addi	sp,sp,-48
 8002fea:	d422                	sw	s0,40(sp)
 8002fec:	cc52                	sw	s4,24(sp)
 8002fee:	ca56                	sw	s5,20(sp)
 8002ff0:	d606                	sw	ra,44(sp)
 8002ff2:	d226                	sw	s1,36(sp)
 8002ff4:	d04a                	sw	s2,32(sp)
 8002ff6:	ce4e                	sw	s3,28(sp)
 8002ff8:	c85a                	sw	s6,16(sp)
 8002ffa:	c65e                	sw	s7,12(sp)
 8002ffc:	c462                	sw	s8,8(sp)
 8002ffe:	c266                	sw	s9,4(sp)
 8003000:	c06a                	sw	s10,0(sp)
 8003002:	0087f713          	andi	a4,a5,8
 8003006:	8a32                	mv	s4,a2
 8003008:	8aaa                	mv	s5,a0
 800300a:	842e                	mv	s0,a1
 800300c:	c335                	beqz	a4,8003070 <__sfvwrite_r+0x92>
 800300e:	4998                	lw	a4,16(a1)
 8003010:	c325                	beqz	a4,8003070 <__sfvwrite_r+0x92>
 8003012:	0027f713          	andi	a4,a5,2
 8003016:	000a2483          	lw	s1,0(s4)
 800301a:	cb35                	beqz	a4,800308e <__sfvwrite_r+0xb0>
 800301c:	541c                	lw	a5,40(s0)
 800301e:	500c                	lw	a1,32(s0)
 8003020:	80000b37          	lui	s6,0x80000
 8003024:	4981                	li	s3,0
 8003026:	4901                	li	s2,0
 8003028:	f00b4b13          	xori	s6,s6,-256
 800302c:	864e                	mv	a2,s3
 800302e:	8556                	mv	a0,s5
 8003030:	02090a63          	beqz	s2,8003064 <__sfvwrite_r+0x86>
 8003034:	86ca                	mv	a3,s2
 8003036:	012b7363          	bgeu	s6,s2,800303c <__sfvwrite_r+0x5e>
 800303a:	86da                	mv	a3,s6
 800303c:	9782                	jalr	a5
 800303e:	1ea05f63          	blez	a0,800323c <__sfvwrite_r+0x25e>
 8003042:	008a2783          	lw	a5,8(s4)
 8003046:	99aa                	add	s3,s3,a0
 8003048:	40a90933          	sub	s2,s2,a0
 800304c:	40a78533          	sub	a0,a5,a0
 8003050:	00aa2423          	sw	a0,8(s4)
 8003054:	1a050563          	beqz	a0,80031fe <__sfvwrite_r+0x220>
 8003058:	541c                	lw	a5,40(s0)
 800305a:	500c                	lw	a1,32(s0)
 800305c:	864e                	mv	a2,s3
 800305e:	8556                	mv	a0,s5
 8003060:	fc091ae3          	bnez	s2,8003034 <__sfvwrite_r+0x56>
 8003064:	0004a983          	lw	s3,0(s1)
 8003068:	0044a903          	lw	s2,4(s1)
 800306c:	04a1                	addi	s1,s1,8
 800306e:	bf7d                	j	800302c <__sfvwrite_r+0x4e>
 8003070:	85a2                	mv	a1,s0
 8003072:	8556                	mv	a0,s5
 8003074:	fffff097          	auipc	ra,0xfffff
 8003078:	554080e7          	jalr	1364(ra) # 80025c8 <__swsetup_r>
 800307c:	2c051963          	bnez	a0,800334e <__sfvwrite_r+0x370>
 8003080:	00c45783          	lhu	a5,12(s0)
 8003084:	000a2483          	lw	s1,0(s4)
 8003088:	0027f713          	andi	a4,a5,2
 800308c:	fb41                	bnez	a4,800301c <__sfvwrite_r+0x3e>
 800308e:	0017f713          	andi	a4,a5,1
 8003092:	1a071f63          	bnez	a4,8003250 <__sfvwrite_r+0x272>
 8003096:	00842c83          	lw	s9,8(s0)
 800309a:	4008                	lw	a0,0(s0)
 800309c:	80000b37          	lui	s6,0x80000
 80030a0:	ffeb4b93          	xori	s7,s6,-2
 80030a4:	4c01                	li	s8,0
 80030a6:	4901                	li	s2,0
 80030a8:	fffb4b13          	not	s6,s6
 80030ac:	0c090863          	beqz	s2,800317c <__sfvwrite_r+0x19e>
 80030b0:	2007f713          	andi	a4,a5,512
 80030b4:	1c070163          	beqz	a4,8003276 <__sfvwrite_r+0x298>
 80030b8:	8d66                	mv	s10,s9
 80030ba:	23996363          	bltu	s2,s9,80032e0 <__sfvwrite_r+0x302>
 80030be:	4807f713          	andi	a4,a5,1152
 80030c2:	cf2d                	beqz	a4,800313c <__sfvwrite_r+0x15e>
 80030c4:	01442983          	lw	s3,20(s0)
 80030c8:	480c                	lw	a1,16(s0)
 80030ca:	00190713          	addi	a4,s2,1
 80030ce:	00199693          	slli	a3,s3,0x1
 80030d2:	96ce                	add	a3,a3,s3
 80030d4:	01f6d993          	srli	s3,a3,0x1f
 80030d8:	40b50d33          	sub	s10,a0,a1
 80030dc:	99b6                	add	s3,s3,a3
 80030de:	4019d993          	srai	s3,s3,0x1
 80030e2:	976a                	add	a4,a4,s10
 80030e4:	864e                	mv	a2,s3
 80030e6:	00e9f463          	bgeu	s3,a4,80030ee <__sfvwrite_r+0x110>
 80030ea:	89ba                	mv	s3,a4
 80030ec:	863a                	mv	a2,a4
 80030ee:	4007f793          	andi	a5,a5,1024
 80030f2:	22078263          	beqz	a5,8003316 <__sfvwrite_r+0x338>
 80030f6:	85b2                	mv	a1,a2
 80030f8:	8556                	mv	a0,s5
 80030fa:	ffffe097          	auipc	ra,0xffffe
 80030fe:	8cc080e7          	jalr	-1844(ra) # 80009c6 <_malloc_r>
 8003102:	8caa                	mv	s9,a0
 8003104:	22050f63          	beqz	a0,8003342 <__sfvwrite_r+0x364>
 8003108:	480c                	lw	a1,16(s0)
 800310a:	866a                	mv	a2,s10
 800310c:	ffffe097          	auipc	ra,0xffffe
 8003110:	f5a080e7          	jalr	-166(ra) # 8001066 <memcpy>
 8003114:	00c45783          	lhu	a5,12(s0)
 8003118:	b7f7f793          	andi	a5,a5,-1153
 800311c:	0807e793          	ori	a5,a5,128
 8003120:	00f41623          	sh	a5,12(s0)
 8003124:	01ac8533          	add	a0,s9,s10
 8003128:	41a987b3          	sub	a5,s3,s10
 800312c:	01942823          	sw	s9,16(s0)
 8003130:	c008                	sw	a0,0(s0)
 8003132:	01342a23          	sw	s3,20(s0)
 8003136:	8cca                	mv	s9,s2
 8003138:	c41c                	sw	a5,8(s0)
 800313a:	8d4a                	mv	s10,s2
 800313c:	866a                	mv	a2,s10
 800313e:	85e2                	mv	a1,s8
 8003140:	ffffe097          	auipc	ra,0xffffe
 8003144:	004080e7          	jalr	4(ra) # 8001144 <memmove>
 8003148:	4418                	lw	a4,8(s0)
 800314a:	401c                	lw	a5,0(s0)
 800314c:	89ca                	mv	s3,s2
 800314e:	41970cb3          	sub	s9,a4,s9
 8003152:	97ea                	add	a5,a5,s10
 8003154:	01942423          	sw	s9,8(s0)
 8003158:	c01c                	sw	a5,0(s0)
 800315a:	4901                	li	s2,0
 800315c:	008a2603          	lw	a2,8(s4)
 8003160:	9c4e                	add	s8,s8,s3
 8003162:	413609b3          	sub	s3,a2,s3
 8003166:	013a2423          	sw	s3,8(s4)
 800316a:	08098a63          	beqz	s3,80031fe <__sfvwrite_r+0x220>
 800316e:	00842c83          	lw	s9,8(s0)
 8003172:	4008                	lw	a0,0(s0)
 8003174:	00c45783          	lhu	a5,12(s0)
 8003178:	f2091ce3          	bnez	s2,80030b0 <__sfvwrite_r+0xd2>
 800317c:	0004ac03          	lw	s8,0(s1)
 8003180:	0044a903          	lw	s2,4(s1)
 8003184:	04a1                	addi	s1,s1,8
 8003186:	b71d                	j	80030ac <__sfvwrite_r+0xce>
 8003188:	0044a983          	lw	s3,4(s1)
 800318c:	0004ac03          	lw	s8,0(s1)
 8003190:	04a1                	addi	s1,s1,8
 8003192:	fe098be3          	beqz	s3,8003188 <__sfvwrite_r+0x1aa>
 8003196:	864e                	mv	a2,s3
 8003198:	45a9                	li	a1,10
 800319a:	8562                	mv	a0,s8
 800319c:	ffffe097          	auipc	ra,0xffffe
 80031a0:	e2e080e7          	jalr	-466(ra) # 8000fca <memchr>
 80031a4:	c569                	beqz	a0,800326e <__sfvwrite_r+0x290>
 80031a6:	0505                	addi	a0,a0,1
 80031a8:	41850b33          	sub	s6,a0,s8
 80031ac:	87da                	mv	a5,s6
 80031ae:	8bce                	mv	s7,s3
 80031b0:	0137f363          	bgeu	a5,s3,80031b6 <__sfvwrite_r+0x1d8>
 80031b4:	8bbe                	mv	s7,a5
 80031b6:	4008                	lw	a0,0(s0)
 80031b8:	481c                	lw	a5,16(s0)
 80031ba:	4854                	lw	a3,20(s0)
 80031bc:	00a7f763          	bgeu	a5,a0,80031ca <__sfvwrite_r+0x1ec>
 80031c0:	00842903          	lw	s2,8(s0)
 80031c4:	9936                	add	s2,s2,a3
 80031c6:	05794b63          	blt	s2,s7,800321c <__sfvwrite_r+0x23e>
 80031ca:	12dbc763          	blt	s7,a3,80032f8 <__sfvwrite_r+0x31a>
 80031ce:	541c                	lw	a5,40(s0)
 80031d0:	500c                	lw	a1,32(s0)
 80031d2:	8662                	mv	a2,s8
 80031d4:	8556                	mv	a0,s5
 80031d6:	9782                	jalr	a5
 80031d8:	892a                	mv	s2,a0
 80031da:	06a05163          	blez	a0,800323c <__sfvwrite_r+0x25e>
 80031de:	412b0b33          	sub	s6,s6,s2
 80031e2:	4505                	li	a0,1
 80031e4:	100b0163          	beqz	s6,80032e6 <__sfvwrite_r+0x308>
 80031e8:	008a2603          	lw	a2,8(s4)
 80031ec:	9c4a                	add	s8,s8,s2
 80031ee:	412989b3          	sub	s3,s3,s2
 80031f2:	41260933          	sub	s2,a2,s2
 80031f6:	012a2423          	sw	s2,8(s4)
 80031fa:	04091f63          	bnez	s2,8003258 <__sfvwrite_r+0x27a>
 80031fe:	4501                	li	a0,0
 8003200:	50b2                	lw	ra,44(sp)
 8003202:	5422                	lw	s0,40(sp)
 8003204:	5492                	lw	s1,36(sp)
 8003206:	5902                	lw	s2,32(sp)
 8003208:	49f2                	lw	s3,28(sp)
 800320a:	4a62                	lw	s4,24(sp)
 800320c:	4ad2                	lw	s5,20(sp)
 800320e:	4b42                	lw	s6,16(sp)
 8003210:	4bb2                	lw	s7,12(sp)
 8003212:	4c22                	lw	s8,8(sp)
 8003214:	4c92                	lw	s9,4(sp)
 8003216:	4d02                	lw	s10,0(sp)
 8003218:	6145                	addi	sp,sp,48
 800321a:	8082                	ret
 800321c:	85e2                	mv	a1,s8
 800321e:	864a                	mv	a2,s2
 8003220:	ffffe097          	auipc	ra,0xffffe
 8003224:	f24080e7          	jalr	-220(ra) # 8001144 <memmove>
 8003228:	401c                	lw	a5,0(s0)
 800322a:	85a2                	mv	a1,s0
 800322c:	8556                	mv	a0,s5
 800322e:	97ca                	add	a5,a5,s2
 8003230:	c01c                	sw	a5,0(s0)
 8003232:	fffff097          	auipc	ra,0xfffff
 8003236:	7cc080e7          	jalr	1996(ra) # 80029fe <_fflush_r>
 800323a:	d155                	beqz	a0,80031de <__sfvwrite_r+0x200>
 800323c:	00c41783          	lh	a5,12(s0)
 8003240:	0407e793          	ori	a5,a5,64
 8003244:	00f41623          	sh	a5,12(s0)
 8003248:	557d                	li	a0,-1
 800324a:	bf5d                	j	8003200 <__sfvwrite_r+0x222>
 800324c:	4501                	li	a0,0
 800324e:	8082                	ret
 8003250:	4b01                	li	s6,0
 8003252:	4501                	li	a0,0
 8003254:	4c01                	li	s8,0
 8003256:	4981                	li	s3,0
 8003258:	f20988e3          	beqz	s3,8003188 <__sfvwrite_r+0x1aa>
 800325c:	f921                	bnez	a0,80031ac <__sfvwrite_r+0x1ce>
 800325e:	864e                	mv	a2,s3
 8003260:	45a9                	li	a1,10
 8003262:	8562                	mv	a0,s8
 8003264:	ffffe097          	auipc	ra,0xffffe
 8003268:	d66080e7          	jalr	-666(ra) # 8000fca <memchr>
 800326c:	fd0d                	bnez	a0,80031a6 <__sfvwrite_r+0x1c8>
 800326e:	00198793          	addi	a5,s3,1
 8003272:	8b3e                	mv	s6,a5
 8003274:	bf2d                	j	80031ae <__sfvwrite_r+0x1d0>
 8003276:	481c                	lw	a5,16(s0)
 8003278:	02a7e863          	bltu	a5,a0,80032a8 <__sfvwrite_r+0x2ca>
 800327c:	485c                	lw	a5,20(s0)
 800327e:	02f96563          	bltu	s2,a5,80032a8 <__sfvwrite_r+0x2ca>
 8003282:	86ca                	mv	a3,s2
 8003284:	012bf363          	bgeu	s7,s2,800328a <__sfvwrite_r+0x2ac>
 8003288:	86da                	mv	a3,s6
 800328a:	02f6c6b3          	div	a3,a3,a5
 800328e:	5418                	lw	a4,40(s0)
 8003290:	500c                	lw	a1,32(s0)
 8003292:	8662                	mv	a2,s8
 8003294:	8556                	mv	a0,s5
 8003296:	02f686b3          	mul	a3,a3,a5
 800329a:	9702                	jalr	a4
 800329c:	89aa                	mv	s3,a0
 800329e:	f8a05fe3          	blez	a0,800323c <__sfvwrite_r+0x25e>
 80032a2:	41390933          	sub	s2,s2,s3
 80032a6:	bd5d                	j	800315c <__sfvwrite_r+0x17e>
 80032a8:	89e6                	mv	s3,s9
 80032aa:	01997363          	bgeu	s2,s9,80032b0 <__sfvwrite_r+0x2d2>
 80032ae:	89ca                	mv	s3,s2
 80032b0:	864e                	mv	a2,s3
 80032b2:	85e2                	mv	a1,s8
 80032b4:	ffffe097          	auipc	ra,0xffffe
 80032b8:	e90080e7          	jalr	-368(ra) # 8001144 <memmove>
 80032bc:	441c                	lw	a5,8(s0)
 80032be:	4018                	lw	a4,0(s0)
 80032c0:	413787b3          	sub	a5,a5,s3
 80032c4:	974e                	add	a4,a4,s3
 80032c6:	c41c                	sw	a5,8(s0)
 80032c8:	c018                	sw	a4,0(s0)
 80032ca:	ffe1                	bnez	a5,80032a2 <__sfvwrite_r+0x2c4>
 80032cc:	85a2                	mv	a1,s0
 80032ce:	8556                	mv	a0,s5
 80032d0:	fffff097          	auipc	ra,0xfffff
 80032d4:	72e080e7          	jalr	1838(ra) # 80029fe <_fflush_r>
 80032d8:	f135                	bnez	a0,800323c <__sfvwrite_r+0x25e>
 80032da:	41390933          	sub	s2,s2,s3
 80032de:	bdbd                	j	800315c <__sfvwrite_r+0x17e>
 80032e0:	8cca                	mv	s9,s2
 80032e2:	8d4a                	mv	s10,s2
 80032e4:	bda1                	j	800313c <__sfvwrite_r+0x15e>
 80032e6:	85a2                	mv	a1,s0
 80032e8:	8556                	mv	a0,s5
 80032ea:	fffff097          	auipc	ra,0xfffff
 80032ee:	714080e7          	jalr	1812(ra) # 80029fe <_fflush_r>
 80032f2:	ee050be3          	beqz	a0,80031e8 <__sfvwrite_r+0x20a>
 80032f6:	b799                	j	800323c <__sfvwrite_r+0x25e>
 80032f8:	865e                	mv	a2,s7
 80032fa:	85e2                	mv	a1,s8
 80032fc:	ffffe097          	auipc	ra,0xffffe
 8003300:	e48080e7          	jalr	-440(ra) # 8001144 <memmove>
 8003304:	441c                	lw	a5,8(s0)
 8003306:	4010                	lw	a2,0(s0)
 8003308:	895e                	mv	s2,s7
 800330a:	417787b3          	sub	a5,a5,s7
 800330e:	965e                	add	a2,a2,s7
 8003310:	c41c                	sw	a5,8(s0)
 8003312:	c010                	sw	a2,0(s0)
 8003314:	b5e9                	j	80031de <__sfvwrite_r+0x200>
 8003316:	8556                	mv	a0,s5
 8003318:	00000097          	auipc	ra,0x0
 800331c:	110080e7          	jalr	272(ra) # 8003428 <_realloc_r>
 8003320:	8caa                	mv	s9,a0
 8003322:	e00511e3          	bnez	a0,8003124 <__sfvwrite_r+0x146>
 8003326:	480c                	lw	a1,16(s0)
 8003328:	8556                	mv	a0,s5
 800332a:	00000097          	auipc	ra,0x0
 800332e:	a5e080e7          	jalr	-1442(ra) # 8002d88 <_free_r>
 8003332:	00c41783          	lh	a5,12(s0)
 8003336:	4731                	li	a4,12
 8003338:	00eaa023          	sw	a4,0(s5)
 800333c:	f7f7f793          	andi	a5,a5,-129
 8003340:	b701                	j	8003240 <__sfvwrite_r+0x262>
 8003342:	4731                	li	a4,12
 8003344:	00c41783          	lh	a5,12(s0)
 8003348:	00eaa023          	sw	a4,0(s5)
 800334c:	bdd5                	j	8003240 <__sfvwrite_r+0x262>
 800334e:	557d                	li	a0,-1
 8003350:	bd45                	j	8003200 <__sfvwrite_r+0x222>

08003352 <_setlocale_r>:
 8003352:	1141                	addi	sp,sp,-16
 8003354:	c606                	sw	ra,12(sp)
 8003356:	c422                	sw	s0,8(sp)
 8003358:	c226                	sw	s1,4(sp)
 800335a:	c60d                	beqz	a2,8003384 <_setlocale_r+0x32>
 800335c:	0800a5b7          	lui	a1,0x800a
 8003360:	6ec58593          	addi	a1,a1,1772 # 800a6ec <_ZTVSt9bad_alloc+0x88>
 8003364:	8532                	mv	a0,a2
 8003366:	8432                	mv	s0,a2
 8003368:	ffffe097          	auipc	ra,0xffffe
 800336c:	200080e7          	jalr	512(ra) # 8001568 <strcmp>
 8003370:	0800a4b7          	lui	s1,0x800a
 8003374:	e919                	bnez	a0,800338a <_setlocale_r+0x38>
 8003376:	6e848513          	addi	a0,s1,1768 # 800a6e8 <_ZTVSt9bad_alloc+0x84>
 800337a:	40b2                	lw	ra,12(sp)
 800337c:	4422                	lw	s0,8(sp)
 800337e:	4492                	lw	s1,4(sp)
 8003380:	0141                	addi	sp,sp,16
 8003382:	8082                	ret
 8003384:	0800a4b7          	lui	s1,0x800a
 8003388:	b7fd                	j	8003376 <_setlocale_r+0x24>
 800338a:	6e848593          	addi	a1,s1,1768 # 800a6e8 <_ZTVSt9bad_alloc+0x84>
 800338e:	8522                	mv	a0,s0
 8003390:	ffffe097          	auipc	ra,0xffffe
 8003394:	1d8080e7          	jalr	472(ra) # 8001568 <strcmp>
 8003398:	dd79                	beqz	a0,8003376 <_setlocale_r+0x24>
 800339a:	0800a5b7          	lui	a1,0x800a
 800339e:	24458593          	addi	a1,a1,580 # 800a244 <_ZTVN6miosix6DeviceE+0x10c>
 80033a2:	8522                	mv	a0,s0
 80033a4:	ffffe097          	auipc	ra,0xffffe
 80033a8:	1c4080e7          	jalr	452(ra) # 8001568 <strcmp>
 80033ac:	d569                	beqz	a0,8003376 <_setlocale_r+0x24>
 80033ae:	4501                	li	a0,0
 80033b0:	b7e9                	j	800337a <_setlocale_r+0x28>

080033b2 <__locale_mb_cur_max>:
 80033b2:	4505                	li	a0,1
 80033b4:	8082                	ret

080033b6 <setlocale>:
 80033b6:	1141                	addi	sp,sp,-16
 80033b8:	c422                	sw	s0,8(sp)
 80033ba:	c226                	sw	s1,4(sp)
 80033bc:	c606                	sw	ra,12(sp)
 80033be:	84ae                	mv	s1,a1
 80033c0:	842a                	mv	s0,a0
 80033c2:	00002097          	auipc	ra,0x2
 80033c6:	f4a080e7          	jalr	-182(ra) # 800530c <__getreent>
 80033ca:	85a2                	mv	a1,s0
 80033cc:	4422                	lw	s0,8(sp)
 80033ce:	40b2                	lw	ra,12(sp)
 80033d0:	8626                	mv	a2,s1
 80033d2:	4492                	lw	s1,4(sp)
 80033d4:	0141                	addi	sp,sp,16
 80033d6:	00000317          	auipc	t1,0x0
 80033da:	f7c30067          	jr	-132(t1) # 8003352 <_setlocale_r>

080033de <_mbtowc_r>:
 80033de:	0800a7b7          	lui	a5,0x800a
 80033e2:	e087a303          	lw	t1,-504(a5) # 8009e08 <__global_locale+0xe4>
 80033e6:	8302                	jr	t1

080033e8 <__ascii_mbtowc>:
 80033e8:	c999                	beqz	a1,80033fe <__ascii_mbtowc+0x16>
 80033ea:	c61d                	beqz	a2,8003418 <__ascii_mbtowc+0x30>
 80033ec:	ca95                	beqz	a3,8003420 <__ascii_mbtowc+0x38>
 80033ee:	00064783          	lbu	a5,0(a2)
 80033f2:	c19c                	sw	a5,0(a1)
 80033f4:	00064503          	lbu	a0,0(a2)
 80033f8:	00a03533          	snez	a0,a0
 80033fc:	8082                	ret
 80033fe:	1141                	addi	sp,sp,-16
 8003400:	006c                	addi	a1,sp,12
 8003402:	ce09                	beqz	a2,800341c <__ascii_mbtowc+0x34>
 8003404:	c285                	beqz	a3,8003424 <__ascii_mbtowc+0x3c>
 8003406:	00064783          	lbu	a5,0(a2)
 800340a:	c19c                	sw	a5,0(a1)
 800340c:	00064503          	lbu	a0,0(a2)
 8003410:	00a03533          	snez	a0,a0
 8003414:	0141                	addi	sp,sp,16
 8003416:	8082                	ret
 8003418:	4501                	li	a0,0
 800341a:	8082                	ret
 800341c:	4501                	li	a0,0
 800341e:	bfdd                	j	8003414 <__ascii_mbtowc+0x2c>
 8003420:	5579                	li	a0,-2
 8003422:	8082                	ret
 8003424:	5579                	li	a0,-2
 8003426:	b7fd                	j	8003414 <__ascii_mbtowc+0x2c>

08003428 <_realloc_r>:
 8003428:	7179                	addi	sp,sp,-48
 800342a:	d04a                	sw	s2,32(sp)
 800342c:	d606                	sw	ra,44(sp)
 800342e:	d422                	sw	s0,40(sp)
 8003430:	d226                	sw	s1,36(sp)
 8003432:	ce4e                	sw	s3,28(sp)
 8003434:	cc52                	sw	s4,24(sp)
 8003436:	ca56                	sw	s5,20(sp)
 8003438:	c85a                	sw	s6,16(sp)
 800343a:	c65e                	sw	s7,12(sp)
 800343c:	c462                	sw	s8,8(sp)
 800343e:	8932                	mv	s2,a2
 8003440:	1a058463          	beqz	a1,80035e8 <_realloc_r+0x1c0>
 8003444:	842e                	mv	s0,a1
 8003446:	89aa                	mv	s3,a0
 8003448:	00002097          	auipc	ra,0x2
 800344c:	eb4080e7          	jalr	-332(ra) # 80052fc <__malloc_lock>
 8003450:	00b90493          	addi	s1,s2,11
 8003454:	47d9                	li	a5,22
 8003456:	0c97f763          	bgeu	a5,s1,8003524 <_realloc_r+0xfc>
 800345a:	98e1                	andi	s1,s1,-8
 800345c:	8726                	mv	a4,s1
 800345e:	0c04c763          	bltz	s1,800352c <_realloc_r+0x104>
 8003462:	0d24e563          	bltu	s1,s2,800352c <_realloc_r+0x104>
 8003466:	ffc42783          	lw	a5,-4(s0)
 800346a:	ff840a93          	addi	s5,s0,-8
 800346e:	ffc7fa13          	andi	s4,a5,-4
 8003472:	014a8b33          	add	s6,s5,s4
 8003476:	12ea5563          	bge	s4,a4,80035a0 <_realloc_r+0x178>
 800347a:	200006b7          	lui	a3,0x20000
 800347e:	45068b93          	addi	s7,a3,1104 # 20000450 <__malloc_av_>
 8003482:	008ba603          	lw	a2,8(s7)
 8003486:	004b2683          	lw	a3,4(s6) # 80000004 <_heap_end+0x5fff8004>
 800348a:	1b660463          	beq	a2,s6,8003632 <_realloc_r+0x20a>
 800348e:	ffe6f613          	andi	a2,a3,-2
 8003492:	965a                	add	a2,a2,s6
 8003494:	4250                	lw	a2,4(a2)
 8003496:	8a05                	andi	a2,a2,1
 8003498:	12061d63          	bnez	a2,80035d2 <_realloc_r+0x1aa>
 800349c:	9af1                	andi	a3,a3,-4
 800349e:	00da0633          	add	a2,s4,a3
 80034a2:	26e65963          	bge	a2,a4,8003714 <_realloc_r+0x2ec>
 80034a6:	8b85                	andi	a5,a5,1
 80034a8:	e38d                	bnez	a5,80034ca <_realloc_r+0xa2>
 80034aa:	ff842c03          	lw	s8,-8(s0)
 80034ae:	418a8c33          	sub	s8,s5,s8
 80034b2:	004c2783          	lw	a5,4(s8)
 80034b6:	9bf1                	andi	a5,a5,-4
 80034b8:	96be                	add	a3,a3,a5
 80034ba:	01468bb3          	add	s7,a3,s4
 80034be:	28ebd263          	bge	s7,a4,8003742 <_realloc_r+0x31a>
 80034c2:	00fa0bb3          	add	s7,s4,a5
 80034c6:	08ebd463          	bge	s7,a4,800354e <_realloc_r+0x126>
 80034ca:	85ca                	mv	a1,s2
 80034cc:	854e                	mv	a0,s3
 80034ce:	ffffd097          	auipc	ra,0xffffd
 80034d2:	4f8080e7          	jalr	1272(ra) # 80009c6 <_malloc_r>
 80034d6:	892a                	mv	s2,a0
 80034d8:	c121                	beqz	a0,8003518 <_realloc_r+0xf0>
 80034da:	ffc42783          	lw	a5,-4(s0)
 80034de:	ff850713          	addi	a4,a0,-8
 80034e2:	9bf9                	andi	a5,a5,-2
 80034e4:	97d6                	add	a5,a5,s5
 80034e6:	24e78163          	beq	a5,a4,8003728 <_realloc_r+0x300>
 80034ea:	ffca0613          	addi	a2,s4,-4
 80034ee:	02400793          	li	a5,36
 80034f2:	24c7e263          	bltu	a5,a2,8003736 <_realloc_r+0x30e>
 80034f6:	474d                	li	a4,19
 80034f8:	4014                	lw	a3,0(s0)
 80034fa:	1cc76b63          	bltu	a4,a2,80036d0 <_realloc_r+0x2a8>
 80034fe:	87aa                	mv	a5,a0
 8003500:	8722                	mv	a4,s0
 8003502:	c394                	sw	a3,0(a5)
 8003504:	4354                	lw	a3,4(a4)
 8003506:	c3d4                	sw	a3,4(a5)
 8003508:	4718                	lw	a4,8(a4)
 800350a:	c798                	sw	a4,8(a5)
 800350c:	85a2                	mv	a1,s0
 800350e:	854e                	mv	a0,s3
 8003510:	00000097          	auipc	ra,0x0
 8003514:	878080e7          	jalr	-1928(ra) # 8002d88 <_free_r>
 8003518:	854e                	mv	a0,s3
 800351a:	00002097          	auipc	ra,0x2
 800351e:	dea080e7          	jalr	-534(ra) # 8005304 <__malloc_unlock>
 8003522:	a809                	j	8003534 <_realloc_r+0x10c>
 8003524:	44c1                	li	s1,16
 8003526:	4741                	li	a4,16
 8003528:	f324ffe3          	bgeu	s1,s2,8003466 <_realloc_r+0x3e>
 800352c:	47b1                	li	a5,12
 800352e:	00f9a023          	sw	a5,0(s3)
 8003532:	4901                	li	s2,0
 8003534:	50b2                	lw	ra,44(sp)
 8003536:	5422                	lw	s0,40(sp)
 8003538:	5492                	lw	s1,36(sp)
 800353a:	49f2                	lw	s3,28(sp)
 800353c:	4a62                	lw	s4,24(sp)
 800353e:	4ad2                	lw	s5,20(sp)
 8003540:	4b42                	lw	s6,16(sp)
 8003542:	4bb2                	lw	s7,12(sp)
 8003544:	4c22                	lw	s8,8(sp)
 8003546:	854a                	mv	a0,s2
 8003548:	5902                	lw	s2,32(sp)
 800354a:	6145                	addi	sp,sp,48
 800354c:	8082                	ret
 800354e:	00cc2783          	lw	a5,12(s8)
 8003552:	008c2703          	lw	a4,8(s8)
 8003556:	ffca0613          	addi	a2,s4,-4
 800355a:	02400693          	li	a3,36
 800355e:	c75c                	sw	a5,12(a4)
 8003560:	c798                	sw	a4,8(a5)
 8003562:	008c0913          	addi	s2,s8,8
 8003566:	017c0b33          	add	s6,s8,s7
 800356a:	22c6ee63          	bltu	a3,a2,80037a6 <_realloc_r+0x37e>
 800356e:	45cd                	li	a1,19
 8003570:	4018                	lw	a4,0(s0)
 8003572:	87ca                	mv	a5,s2
 8003574:	00c5fe63          	bgeu	a1,a2,8003590 <_realloc_r+0x168>
 8003578:	00ec2423          	sw	a4,8(s8)
 800357c:	4058                	lw	a4,4(s0)
 800357e:	47ed                	li	a5,27
 8003580:	00ec2623          	sw	a4,12(s8)
 8003584:	24c7e763          	bltu	a5,a2,80037d2 <_realloc_r+0x3aa>
 8003588:	4418                	lw	a4,8(s0)
 800358a:	010c0793          	addi	a5,s8,16
 800358e:	0421                	addi	s0,s0,8
 8003590:	c398                	sw	a4,0(a5)
 8003592:	4058                	lw	a4,4(s0)
 8003594:	8a5e                	mv	s4,s7
 8003596:	8ae2                	mv	s5,s8
 8003598:	c3d8                	sw	a4,4(a5)
 800359a:	4418                	lw	a4,8(s0)
 800359c:	844a                	mv	s0,s2
 800359e:	c798                	sw	a4,8(a5)
 80035a0:	004aa783          	lw	a5,4(s5)
 80035a4:	409a0733          	sub	a4,s4,s1
 80035a8:	46bd                	li	a3,15
 80035aa:	8b85                	andi	a5,a5,1
 80035ac:	04e6ee63          	bltu	a3,a4,8003608 <_realloc_r+0x1e0>
 80035b0:	00fa67b3          	or	a5,s4,a5
 80035b4:	00faa223          	sw	a5,4(s5)
 80035b8:	004b2783          	lw	a5,4(s6)
 80035bc:	0017e793          	ori	a5,a5,1
 80035c0:	00fb2223          	sw	a5,4(s6)
 80035c4:	854e                	mv	a0,s3
 80035c6:	00002097          	auipc	ra,0x2
 80035ca:	d3e080e7          	jalr	-706(ra) # 8005304 <__malloc_unlock>
 80035ce:	8922                	mv	s2,s0
 80035d0:	b795                	j	8003534 <_realloc_r+0x10c>
 80035d2:	8b85                	andi	a5,a5,1
 80035d4:	ee079be3          	bnez	a5,80034ca <_realloc_r+0xa2>
 80035d8:	ff842c03          	lw	s8,-8(s0)
 80035dc:	418a8c33          	sub	s8,s5,s8
 80035e0:	004c2783          	lw	a5,4(s8)
 80035e4:	9bf1                	andi	a5,a5,-4
 80035e6:	bdf1                	j	80034c2 <_realloc_r+0x9a>
 80035e8:	5422                	lw	s0,40(sp)
 80035ea:	50b2                	lw	ra,44(sp)
 80035ec:	5492                	lw	s1,36(sp)
 80035ee:	5902                	lw	s2,32(sp)
 80035f0:	49f2                	lw	s3,28(sp)
 80035f2:	4a62                	lw	s4,24(sp)
 80035f4:	4ad2                	lw	s5,20(sp)
 80035f6:	4b42                	lw	s6,16(sp)
 80035f8:	4bb2                	lw	s7,12(sp)
 80035fa:	4c22                	lw	s8,8(sp)
 80035fc:	85b2                	mv	a1,a2
 80035fe:	6145                	addi	sp,sp,48
 8003600:	ffffd317          	auipc	t1,0xffffd
 8003604:	3c630067          	jr	966(t1) # 80009c6 <_malloc_r>
 8003608:	8fc5                	or	a5,a5,s1
 800360a:	00faa223          	sw	a5,4(s5)
 800360e:	009a85b3          	add	a1,s5,s1
 8003612:	00176713          	ori	a4,a4,1
 8003616:	c1d8                	sw	a4,4(a1)
 8003618:	004b2783          	lw	a5,4(s6)
 800361c:	05a1                	addi	a1,a1,8
 800361e:	854e                	mv	a0,s3
 8003620:	0017e793          	ori	a5,a5,1
 8003624:	00fb2223          	sw	a5,4(s6)
 8003628:	fffff097          	auipc	ra,0xfffff
 800362c:	760080e7          	jalr	1888(ra) # 8002d88 <_free_r>
 8003630:	bf51                	j	80035c4 <_realloc_r+0x19c>
 8003632:	9af1                	andi	a3,a3,-4
 8003634:	00da0633          	add	a2,s4,a3
 8003638:	01048593          	addi	a1,s1,16
 800363c:	0ab65663          	bge	a2,a1,80036e8 <_realloc_r+0x2c0>
 8003640:	8b85                	andi	a5,a5,1
 8003642:	e80794e3          	bnez	a5,80034ca <_realloc_r+0xa2>
 8003646:	ff842c03          	lw	s8,-8(s0)
 800364a:	418a8c33          	sub	s8,s5,s8
 800364e:	004c2783          	lw	a5,4(s8)
 8003652:	9bf1                	andi	a5,a5,-4
 8003654:	96be                	add	a3,a3,a5
 8003656:	01468b33          	add	s6,a3,s4
 800365a:	e6bb44e3          	blt	s6,a1,80034c2 <_realloc_r+0x9a>
 800365e:	00cc2783          	lw	a5,12(s8)
 8003662:	008c2703          	lw	a4,8(s8)
 8003666:	ffca0613          	addi	a2,s4,-4
 800366a:	02400693          	li	a3,36
 800366e:	c75c                	sw	a5,12(a4)
 8003670:	c798                	sw	a4,8(a5)
 8003672:	008c0913          	addi	s2,s8,8
 8003676:	18c6ea63          	bltu	a3,a2,800380a <_realloc_r+0x3e2>
 800367a:	45cd                	li	a1,19
 800367c:	4018                	lw	a4,0(s0)
 800367e:	87ca                	mv	a5,s2
 8003680:	00c5fe63          	bgeu	a1,a2,800369c <_realloc_r+0x274>
 8003684:	00ec2423          	sw	a4,8(s8)
 8003688:	4058                	lw	a4,4(s0)
 800368a:	47ed                	li	a5,27
 800368c:	00ec2623          	sw	a4,12(s8)
 8003690:	18c7e463          	bltu	a5,a2,8003818 <_realloc_r+0x3f0>
 8003694:	4418                	lw	a4,8(s0)
 8003696:	010c0793          	addi	a5,s8,16
 800369a:	0421                	addi	s0,s0,8
 800369c:	c398                	sw	a4,0(a5)
 800369e:	4058                	lw	a4,4(s0)
 80036a0:	c3d8                	sw	a4,4(a5)
 80036a2:	4418                	lw	a4,8(s0)
 80036a4:	c798                	sw	a4,8(a5)
 80036a6:	009c0733          	add	a4,s8,s1
 80036aa:	409b07b3          	sub	a5,s6,s1
 80036ae:	00eba423          	sw	a4,8(s7)
 80036b2:	0017e793          	ori	a5,a5,1
 80036b6:	c35c                	sw	a5,4(a4)
 80036b8:	004c2783          	lw	a5,4(s8)
 80036bc:	854e                	mv	a0,s3
 80036be:	8b85                	andi	a5,a5,1
 80036c0:	8cdd                	or	s1,s1,a5
 80036c2:	009c2223          	sw	s1,4(s8)
 80036c6:	00002097          	auipc	ra,0x2
 80036ca:	c3e080e7          	jalr	-962(ra) # 8005304 <__malloc_unlock>
 80036ce:	b59d                	j	8003534 <_realloc_r+0x10c>
 80036d0:	c114                	sw	a3,0(a0)
 80036d2:	4054                	lw	a3,4(s0)
 80036d4:	476d                	li	a4,27
 80036d6:	c154                	sw	a3,4(a0)
 80036d8:	0ec76163          	bltu	a4,a2,80037ba <_realloc_r+0x392>
 80036dc:	4414                	lw	a3,8(s0)
 80036de:	00840713          	addi	a4,s0,8
 80036e2:	00850793          	addi	a5,a0,8
 80036e6:	bd31                	j	8003502 <_realloc_r+0xda>
 80036e8:	9aa6                	add	s5,s5,s1
 80036ea:	409607b3          	sub	a5,a2,s1
 80036ee:	015ba423          	sw	s5,8(s7)
 80036f2:	0017e793          	ori	a5,a5,1
 80036f6:	00faa223          	sw	a5,4(s5)
 80036fa:	ffc42783          	lw	a5,-4(s0)
 80036fe:	854e                	mv	a0,s3
 8003700:	8922                	mv	s2,s0
 8003702:	8b85                	andi	a5,a5,1
 8003704:	8cdd                	or	s1,s1,a5
 8003706:	fe942e23          	sw	s1,-4(s0)
 800370a:	00002097          	auipc	ra,0x2
 800370e:	bfa080e7          	jalr	-1030(ra) # 8005304 <__malloc_unlock>
 8003712:	b50d                	j	8003534 <_realloc_r+0x10c>
 8003714:	00cb2783          	lw	a5,12(s6)
 8003718:	008b2703          	lw	a4,8(s6)
 800371c:	8a32                	mv	s4,a2
 800371e:	00ca8b33          	add	s6,s5,a2
 8003722:	c75c                	sw	a5,12(a4)
 8003724:	c798                	sw	a4,8(a5)
 8003726:	bdad                	j	80035a0 <_realloc_r+0x178>
 8003728:	ffc52783          	lw	a5,-4(a0)
 800372c:	9bf1                	andi	a5,a5,-4
 800372e:	9a3e                	add	s4,s4,a5
 8003730:	014a8b33          	add	s6,s5,s4
 8003734:	b5b5                	j	80035a0 <_realloc_r+0x178>
 8003736:	85a2                	mv	a1,s0
 8003738:	ffffe097          	auipc	ra,0xffffe
 800373c:	a0c080e7          	jalr	-1524(ra) # 8001144 <memmove>
 8003740:	b3f1                	j	800350c <_realloc_r+0xe4>
 8003742:	00cb2783          	lw	a5,12(s6)
 8003746:	008b2703          	lw	a4,8(s6)
 800374a:	ffca0613          	addi	a2,s4,-4
 800374e:	02400693          	li	a3,36
 8003752:	c75c                	sw	a5,12(a4)
 8003754:	c798                	sw	a4,8(a5)
 8003756:	008c2703          	lw	a4,8(s8)
 800375a:	00cc2783          	lw	a5,12(s8)
 800375e:	008c0913          	addi	s2,s8,8
 8003762:	017c0b33          	add	s6,s8,s7
 8003766:	c75c                	sw	a5,12(a4)
 8003768:	c798                	sw	a4,8(a5)
 800376a:	02c6ee63          	bltu	a3,a2,80037a6 <_realloc_r+0x37e>
 800376e:	46cd                	li	a3,19
 8003770:	4018                	lw	a4,0(s0)
 8003772:	87ca                	mv	a5,s2
 8003774:	e0c6fee3          	bgeu	a3,a2,8003590 <_realloc_r+0x168>
 8003778:	00ec2423          	sw	a4,8(s8)
 800377c:	4058                	lw	a4,4(s0)
 800377e:	47ed                	li	a5,27
 8003780:	00ec2623          	sw	a4,12(s8)
 8003784:	4418                	lw	a4,8(s0)
 8003786:	e0c7f2e3          	bgeu	a5,a2,800358a <_realloc_r+0x162>
 800378a:	00ec2823          	sw	a4,16(s8)
 800378e:	4458                	lw	a4,12(s0)
 8003790:	02400793          	li	a5,36
 8003794:	00ec2a23          	sw	a4,20(s8)
 8003798:	4818                	lw	a4,16(s0)
 800379a:	04f60563          	beq	a2,a5,80037e4 <_realloc_r+0x3bc>
 800379e:	018c0793          	addi	a5,s8,24
 80037a2:	0441                	addi	s0,s0,16
 80037a4:	b3f5                	j	8003590 <_realloc_r+0x168>
 80037a6:	85a2                	mv	a1,s0
 80037a8:	854a                	mv	a0,s2
 80037aa:	ffffe097          	auipc	ra,0xffffe
 80037ae:	99a080e7          	jalr	-1638(ra) # 8001144 <memmove>
 80037b2:	844a                	mv	s0,s2
 80037b4:	8a5e                	mv	s4,s7
 80037b6:	8ae2                	mv	s5,s8
 80037b8:	b3e5                	j	80035a0 <_realloc_r+0x178>
 80037ba:	4418                	lw	a4,8(s0)
 80037bc:	c518                	sw	a4,8(a0)
 80037be:	4458                	lw	a4,12(s0)
 80037c0:	c558                	sw	a4,12(a0)
 80037c2:	4814                	lw	a3,16(s0)
 80037c4:	02f60a63          	beq	a2,a5,80037f8 <_realloc_r+0x3d0>
 80037c8:	01040713          	addi	a4,s0,16
 80037cc:	01050793          	addi	a5,a0,16
 80037d0:	bb0d                	j	8003502 <_realloc_r+0xda>
 80037d2:	441c                	lw	a5,8(s0)
 80037d4:	00fc2823          	sw	a5,16(s8)
 80037d8:	445c                	lw	a5,12(s0)
 80037da:	00fc2a23          	sw	a5,20(s8)
 80037de:	4818                	lw	a4,16(s0)
 80037e0:	fad61fe3          	bne	a2,a3,800379e <_realloc_r+0x376>
 80037e4:	00ec2c23          	sw	a4,24(s8)
 80037e8:	4858                	lw	a4,20(s0)
 80037ea:	020c0793          	addi	a5,s8,32
 80037ee:	0461                	addi	s0,s0,24
 80037f0:	00ec2e23          	sw	a4,28(s8)
 80037f4:	4018                	lw	a4,0(s0)
 80037f6:	bb69                	j	8003590 <_realloc_r+0x168>
 80037f8:	c914                	sw	a3,16(a0)
 80037fa:	4854                	lw	a3,20(s0)
 80037fc:	01840713          	addi	a4,s0,24
 8003800:	01850793          	addi	a5,a0,24
 8003804:	c954                	sw	a3,20(a0)
 8003806:	4c14                	lw	a3,24(s0)
 8003808:	b9ed                	j	8003502 <_realloc_r+0xda>
 800380a:	85a2                	mv	a1,s0
 800380c:	854a                	mv	a0,s2
 800380e:	ffffe097          	auipc	ra,0xffffe
 8003812:	936080e7          	jalr	-1738(ra) # 8001144 <memmove>
 8003816:	bd41                	j	80036a6 <_realloc_r+0x27e>
 8003818:	441c                	lw	a5,8(s0)
 800381a:	00fc2823          	sw	a5,16(s8)
 800381e:	445c                	lw	a5,12(s0)
 8003820:	00fc2a23          	sw	a5,20(s8)
 8003824:	4818                	lw	a4,16(s0)
 8003826:	00d60663          	beq	a2,a3,8003832 <_realloc_r+0x40a>
 800382a:	018c0793          	addi	a5,s8,24
 800382e:	0441                	addi	s0,s0,16
 8003830:	b5b5                	j	800369c <_realloc_r+0x274>
 8003832:	00ec2c23          	sw	a4,24(s8)
 8003836:	4858                	lw	a4,20(s0)
 8003838:	020c0793          	addi	a5,s8,32
 800383c:	0461                	addi	s0,s0,24
 800383e:	00ec2e23          	sw	a4,28(s8)
 8003842:	4018                	lw	a4,0(s0)
 8003844:	bda1                	j	800369c <_realloc_r+0x274>

08003846 <__swbuf_r>:
 8003846:	1101                	addi	sp,sp,-32
 8003848:	cc22                	sw	s0,24(sp)
 800384a:	ca26                	sw	s1,20(sp)
 800384c:	c84a                	sw	s2,16(sp)
 800384e:	ce06                	sw	ra,28(sp)
 8003850:	c64e                	sw	s3,12(sp)
 8003852:	892a                	mv	s2,a0
 8003854:	84ae                	mv	s1,a1
 8003856:	8432                	mv	s0,a2
 8003858:	c119                	beqz	a0,800385e <__swbuf_r+0x18>
 800385a:	4d1c                	lw	a5,24(a0)
 800385c:	c7fd                	beqz	a5,800394a <__swbuf_r+0x104>
 800385e:	00c41703          	lh	a4,12(s0)
 8003862:	4c14                	lw	a3,24(s0)
 8003864:	00877793          	andi	a5,a4,8
 8003868:	c414                	sw	a3,8(s0)
 800386a:	01071693          	slli	a3,a4,0x10
 800386e:	82c1                	srli	a3,a3,0x10
 8003870:	cfa1                	beqz	a5,80038c8 <__swbuf_r+0x82>
 8003872:	481c                	lw	a5,16(s0)
 8003874:	cbb1                	beqz	a5,80038c8 <__swbuf_r+0x82>
 8003876:	01269613          	slli	a2,a3,0x12
 800387a:	0ff4f993          	andi	s3,s1,255
 800387e:	0ff4f493          	andi	s1,s1,255
 8003882:	06065863          	bgez	a2,80038f2 <__swbuf_r+0xac>
 8003886:	4018                	lw	a4,0(s0)
 8003888:	4854                	lw	a3,20(s0)
 800388a:	40f707b3          	sub	a5,a4,a5
 800388e:	08d7d163          	bge	a5,a3,8003910 <__swbuf_r+0xca>
 8003892:	4414                	lw	a3,8(s0)
 8003894:	00170613          	addi	a2,a4,1
 8003898:	c010                	sw	a2,0(s0)
 800389a:	16fd                	addi	a3,a3,-1
 800389c:	c414                	sw	a3,8(s0)
 800389e:	01370023          	sb	s3,0(a4)
 80038a2:	4858                	lw	a4,20(s0)
 80038a4:	0785                	addi	a5,a5,1
 80038a6:	08f70963          	beq	a4,a5,8003938 <__swbuf_r+0xf2>
 80038aa:	00c45783          	lhu	a5,12(s0)
 80038ae:	8b85                	andi	a5,a5,1
 80038b0:	c781                	beqz	a5,80038b8 <__swbuf_r+0x72>
 80038b2:	47a9                	li	a5,10
 80038b4:	08f48263          	beq	s1,a5,8003938 <__swbuf_r+0xf2>
 80038b8:	40f2                	lw	ra,28(sp)
 80038ba:	4462                	lw	s0,24(sp)
 80038bc:	4942                	lw	s2,16(sp)
 80038be:	49b2                	lw	s3,12(sp)
 80038c0:	8526                	mv	a0,s1
 80038c2:	44d2                	lw	s1,20(sp)
 80038c4:	6105                	addi	sp,sp,32
 80038c6:	8082                	ret
 80038c8:	85a2                	mv	a1,s0
 80038ca:	854a                	mv	a0,s2
 80038cc:	fffff097          	auipc	ra,0xfffff
 80038d0:	cfc080e7          	jalr	-772(ra) # 80025c8 <__swsetup_r>
 80038d4:	e92d                	bnez	a0,8003946 <__swbuf_r+0x100>
 80038d6:	00c41703          	lh	a4,12(s0)
 80038da:	0ff4f993          	andi	s3,s1,255
 80038de:	481c                	lw	a5,16(s0)
 80038e0:	01071693          	slli	a3,a4,0x10
 80038e4:	82c1                	srli	a3,a3,0x10
 80038e6:	01269613          	slli	a2,a3,0x12
 80038ea:	0ff4f493          	andi	s1,s1,255
 80038ee:	f8064ce3          	bltz	a2,8003886 <__swbuf_r+0x40>
 80038f2:	5c34                	lw	a3,120(s0)
 80038f4:	6609                	lui	a2,0x2
 80038f6:	8f51                	or	a4,a4,a2
 80038f8:	7679                	lui	a2,0xffffe
 80038fa:	167d                	addi	a2,a2,-1
 80038fc:	8ef1                	and	a3,a3,a2
 80038fe:	00e41623          	sh	a4,12(s0)
 8003902:	4018                	lw	a4,0(s0)
 8003904:	dc34                	sw	a3,120(s0)
 8003906:	4854                	lw	a3,20(s0)
 8003908:	40f707b3          	sub	a5,a4,a5
 800390c:	f8d7c3e3          	blt	a5,a3,8003892 <__swbuf_r+0x4c>
 8003910:	85a2                	mv	a1,s0
 8003912:	854a                	mv	a0,s2
 8003914:	fffff097          	auipc	ra,0xfffff
 8003918:	0ea080e7          	jalr	234(ra) # 80029fe <_fflush_r>
 800391c:	e50d                	bnez	a0,8003946 <__swbuf_r+0x100>
 800391e:	4018                	lw	a4,0(s0)
 8003920:	4414                	lw	a3,8(s0)
 8003922:	4785                	li	a5,1
 8003924:	00170613          	addi	a2,a4,1
 8003928:	16fd                	addi	a3,a3,-1
 800392a:	c010                	sw	a2,0(s0)
 800392c:	c414                	sw	a3,8(s0)
 800392e:	01370023          	sb	s3,0(a4)
 8003932:	4858                	lw	a4,20(s0)
 8003934:	f6f71be3          	bne	a4,a5,80038aa <__swbuf_r+0x64>
 8003938:	85a2                	mv	a1,s0
 800393a:	854a                	mv	a0,s2
 800393c:	fffff097          	auipc	ra,0xfffff
 8003940:	0c2080e7          	jalr	194(ra) # 80029fe <_fflush_r>
 8003944:	d935                	beqz	a0,80038b8 <__swbuf_r+0x72>
 8003946:	54fd                	li	s1,-1
 8003948:	bf85                	j	80038b8 <__swbuf_r+0x72>
 800394a:	ffffd097          	auipc	ra,0xffffd
 800394e:	a36080e7          	jalr	-1482(ra) # 8000380 <__sinit>
 8003952:	b731                	j	800385e <__swbuf_r+0x18>

08003954 <__swbuf>:
 8003954:	1141                	addi	sp,sp,-16
 8003956:	c422                	sw	s0,8(sp)
 8003958:	c226                	sw	s1,4(sp)
 800395a:	c606                	sw	ra,12(sp)
 800395c:	84ae                	mv	s1,a1
 800395e:	842a                	mv	s0,a0
 8003960:	00002097          	auipc	ra,0x2
 8003964:	9ac080e7          	jalr	-1620(ra) # 800530c <__getreent>
 8003968:	85a2                	mv	a1,s0
 800396a:	4422                	lw	s0,8(sp)
 800396c:	40b2                	lw	ra,12(sp)
 800396e:	8626                	mv	a2,s1
 8003970:	4492                	lw	s1,4(sp)
 8003972:	0141                	addi	sp,sp,16
 8003974:	00000317          	auipc	t1,0x0
 8003978:	ed230067          	jr	-302(t1) # 8003846 <__swbuf_r>

0800397c <_wcrtomb_r>:
 800397c:	1101                	addi	sp,sp,-32
 800397e:	cc22                	sw	s0,24(sp)
 8003980:	ca26                	sw	s1,20(sp)
 8003982:	0800a7b7          	lui	a5,0x800a
 8003986:	ce06                	sw	ra,28(sp)
 8003988:	e047a783          	lw	a5,-508(a5) # 8009e04 <__global_locale+0xe0>
 800398c:	842a                	mv	s0,a0
 800398e:	84b6                	mv	s1,a3
 8003990:	c991                	beqz	a1,80039a4 <_wcrtomb_r+0x28>
 8003992:	9782                	jalr	a5
 8003994:	57fd                	li	a5,-1
 8003996:	00f50d63          	beq	a0,a5,80039b0 <_wcrtomb_r+0x34>
 800399a:	40f2                	lw	ra,28(sp)
 800399c:	4462                	lw	s0,24(sp)
 800399e:	44d2                	lw	s1,20(sp)
 80039a0:	6105                	addi	sp,sp,32
 80039a2:	8082                	ret
 80039a4:	4601                	li	a2,0
 80039a6:	004c                	addi	a1,sp,4
 80039a8:	9782                	jalr	a5
 80039aa:	57fd                	li	a5,-1
 80039ac:	fef517e3          	bne	a0,a5,800399a <_wcrtomb_r+0x1e>
 80039b0:	0004a023          	sw	zero,0(s1)
 80039b4:	08a00793          	li	a5,138
 80039b8:	40f2                	lw	ra,28(sp)
 80039ba:	c01c                	sw	a5,0(s0)
 80039bc:	4462                	lw	s0,24(sp)
 80039be:	44d2                	lw	s1,20(sp)
 80039c0:	6105                	addi	sp,sp,32
 80039c2:	8082                	ret

080039c4 <wcrtomb>:
 80039c4:	7179                	addi	sp,sp,-48
 80039c6:	d422                	sw	s0,40(sp)
 80039c8:	d226                	sw	s1,36(sp)
 80039ca:	d04a                	sw	s2,32(sp)
 80039cc:	ce4e                	sw	s3,28(sp)
 80039ce:	84b2                	mv	s1,a2
 80039d0:	d606                	sw	ra,44(sp)
 80039d2:	842a                	mv	s0,a0
 80039d4:	892e                	mv	s2,a1
 80039d6:	00002097          	auipc	ra,0x2
 80039da:	936080e7          	jalr	-1738(ra) # 800530c <__getreent>
 80039de:	0800a7b7          	lui	a5,0x800a
 80039e2:	e047a783          	lw	a5,-508(a5) # 8009e04 <__global_locale+0xe0>
 80039e6:	89aa                	mv	s3,a0
 80039e8:	86a6                	mv	a3,s1
 80039ea:	cc11                	beqz	s0,8003a06 <wcrtomb+0x42>
 80039ec:	864a                	mv	a2,s2
 80039ee:	85a2                	mv	a1,s0
 80039f0:	9782                	jalr	a5
 80039f2:	57fd                	li	a5,-1
 80039f4:	00f50f63          	beq	a0,a5,8003a12 <wcrtomb+0x4e>
 80039f8:	50b2                	lw	ra,44(sp)
 80039fa:	5422                	lw	s0,40(sp)
 80039fc:	5492                	lw	s1,36(sp)
 80039fe:	5902                	lw	s2,32(sp)
 8003a00:	49f2                	lw	s3,28(sp)
 8003a02:	6145                	addi	sp,sp,48
 8003a04:	8082                	ret
 8003a06:	4601                	li	a2,0
 8003a08:	004c                	addi	a1,sp,4
 8003a0a:	9782                	jalr	a5
 8003a0c:	57fd                	li	a5,-1
 8003a0e:	fef515e3          	bne	a0,a5,80039f8 <wcrtomb+0x34>
 8003a12:	50b2                	lw	ra,44(sp)
 8003a14:	5422                	lw	s0,40(sp)
 8003a16:	0004a023          	sw	zero,0(s1)
 8003a1a:	08a00793          	li	a5,138
 8003a1e:	00f9a023          	sw	a5,0(s3)
 8003a22:	5492                	lw	s1,36(sp)
 8003a24:	5902                	lw	s2,32(sp)
 8003a26:	49f2                	lw	s3,28(sp)
 8003a28:	6145                	addi	sp,sp,48
 8003a2a:	8082                	ret

08003a2c <_wctomb_r>:
 8003a2c:	0800a7b7          	lui	a5,0x800a
 8003a30:	e047a303          	lw	t1,-508(a5) # 8009e04 <__global_locale+0xe0>
 8003a34:	8302                	jr	t1

08003a36 <__ascii_wctomb>:
 8003a36:	cd91                	beqz	a1,8003a52 <__ascii_wctomb+0x1c>
 8003a38:	0ff00793          	li	a5,255
 8003a3c:	00c7e663          	bltu	a5,a2,8003a48 <__ascii_wctomb+0x12>
 8003a40:	00c58023          	sb	a2,0(a1)
 8003a44:	4505                	li	a0,1
 8003a46:	8082                	ret
 8003a48:	08a00793          	li	a5,138
 8003a4c:	c11c                	sw	a5,0(a0)
 8003a4e:	557d                	li	a0,-1
 8003a50:	8082                	ret
 8003a52:	4501                	li	a0,0
 8003a54:	8082                	ret

08003a56 <__udivdi3>:
 8003a56:	8e36                	mv	t3,a3
 8003a58:	88b2                	mv	a7,a2
 8003a5a:	832a                	mv	t1,a0
 8003a5c:	882e                	mv	a6,a1
 8003a5e:	eec5                	bnez	a3,8003b16 <__udivdi3+0xc0>
 8003a60:	10c5f063          	bgeu	a1,a2,8003b60 <__udivdi3+0x10a>
 8003a64:	67c1                	lui	a5,0x10
 8003a66:	1af66a63          	bltu	a2,a5,8003c1a <__udivdi3+0x1c4>
 8003a6a:	010007b7          	lui	a5,0x1000
 8003a6e:	36f66163          	bltu	a2,a5,8003dd0 <__udivdi3+0x37a>
 8003a72:	01865713          	srli	a4,a2,0x18
 8003a76:	4e61                	li	t3,24
 8003a78:	0800a7b7          	lui	a5,0x800a
 8003a7c:	e9078793          	addi	a5,a5,-368 # 8009e90 <__clz_tab>
 8003a80:	97ba                	add	a5,a5,a4
 8003a82:	0007c783          	lbu	a5,0(a5)
 8003a86:	02000713          	li	a4,32
 8003a8a:	9e3e                	add	t3,t3,a5
 8003a8c:	41c707b3          	sub	a5,a4,t3
 8003a90:	01c70c63          	beq	a4,t3,8003aa8 <__udivdi3+0x52>
 8003a94:	00f59833          	sll	a6,a1,a5
 8003a98:	01c55e33          	srl	t3,a0,t3
 8003a9c:	00f618b3          	sll	a7,a2,a5
 8003aa0:	010e6833          	or	a6,t3,a6
 8003aa4:	00f51333          	sll	t1,a0,a5
 8003aa8:	0108d593          	srli	a1,a7,0x10
 8003aac:	02b85533          	divu	a0,a6,a1
 8003ab0:	01089693          	slli	a3,a7,0x10
 8003ab4:	82c1                	srli	a3,a3,0x10
 8003ab6:	01035793          	srli	a5,t1,0x10
 8003aba:	02b87733          	remu	a4,a6,a1
 8003abe:	02a68633          	mul	a2,a3,a0
 8003ac2:	0742                	slli	a4,a4,0x10
 8003ac4:	00f76833          	or	a6,a4,a5
 8003ac8:	00c87a63          	bgeu	a6,a2,8003adc <__udivdi3+0x86>
 8003acc:	9846                	add	a6,a6,a7
 8003ace:	fff50793          	addi	a5,a0,-1
 8003ad2:	01186463          	bltu	a6,a7,8003ada <__udivdi3+0x84>
 8003ad6:	30c86c63          	bltu	a6,a2,8003dee <__udivdi3+0x398>
 8003ada:	853e                	mv	a0,a5
 8003adc:	40c80833          	sub	a6,a6,a2
 8003ae0:	02b85633          	divu	a2,a6,a1
 8003ae4:	0342                	slli	t1,t1,0x10
 8003ae6:	01035313          	srli	t1,t1,0x10
 8003aea:	02b87833          	remu	a6,a6,a1
 8003aee:	02c686b3          	mul	a3,a3,a2
 8003af2:	0842                	slli	a6,a6,0x10
 8003af4:	00686833          	or	a6,a6,t1
 8003af8:	00d87b63          	bgeu	a6,a3,8003b0e <__udivdi3+0xb8>
 8003afc:	9846                	add	a6,a6,a7
 8003afe:	fff60793          	addi	a5,a2,-1 # ffffdfff <_heap_end+0xdfff5fff>
 8003b02:	01186563          	bltu	a6,a7,8003b0c <__udivdi3+0xb6>
 8003b06:	1679                	addi	a2,a2,-2
 8003b08:	00d86363          	bltu	a6,a3,8003b0e <__udivdi3+0xb8>
 8003b0c:	863e                	mv	a2,a5
 8003b0e:	0542                	slli	a0,a0,0x10
 8003b10:	8d51                	or	a0,a0,a2
 8003b12:	4581                	li	a1,0
 8003b14:	8082                	ret
 8003b16:	00d5f563          	bgeu	a1,a3,8003b20 <__udivdi3+0xca>
 8003b1a:	4581                	li	a1,0
 8003b1c:	4501                	li	a0,0
 8003b1e:	8082                	ret
 8003b20:	67c1                	lui	a5,0x10
 8003b22:	10f6e563          	bltu	a3,a5,8003c2c <__udivdi3+0x1d6>
 8003b26:	010007b7          	lui	a5,0x1000
 8003b2a:	28f6e863          	bltu	a3,a5,8003dba <__udivdi3+0x364>
 8003b2e:	0186d713          	srli	a4,a3,0x18
 8003b32:	4861                	li	a6,24
 8003b34:	0800a7b7          	lui	a5,0x800a
 8003b38:	e9078793          	addi	a5,a5,-368 # 8009e90 <__clz_tab>
 8003b3c:	97ba                	add	a5,a5,a4
 8003b3e:	0007ce03          	lbu	t3,0(a5)
 8003b42:	02000793          	li	a5,32
 8003b46:	9e42                	add	t3,t3,a6
 8003b48:	41c78eb3          	sub	t4,a5,t3
 8003b4c:	17c79e63          	bne	a5,t3,8003cc8 <__udivdi3+0x272>
 8003b50:	28b6e463          	bltu	a3,a1,8003dd8 <__udivdi3+0x382>
 8003b54:	00c53633          	sltu	a2,a0,a2
 8003b58:	00164513          	xori	a0,a2,1
 8003b5c:	4581                	li	a1,0
 8003b5e:	8082                	ret
 8003b60:	e601                	bnez	a2,8003b68 <__udivdi3+0x112>
 8003b62:	4785                	li	a5,1
 8003b64:	02c7d8b3          	divu	a7,a5,a2
 8003b68:	67c1                	lui	a5,0x10
 8003b6a:	08f8ef63          	bltu	a7,a5,8003c08 <__udivdi3+0x1b2>
 8003b6e:	010007b7          	lui	a5,0x1000
 8003b72:	24f8eb63          	bltu	a7,a5,8003dc8 <__udivdi3+0x372>
 8003b76:	0188d713          	srli	a4,a7,0x18
 8003b7a:	4e61                	li	t3,24
 8003b7c:	0800a7b7          	lui	a5,0x800a
 8003b80:	e9078793          	addi	a5,a5,-368 # 8009e90 <__clz_tab>
 8003b84:	97ba                	add	a5,a5,a4
 8003b86:	0007c683          	lbu	a3,0(a5)
 8003b8a:	02000793          	li	a5,32
 8003b8e:	9e36                	add	t3,t3,a3
 8003b90:	41c782b3          	sub	t0,a5,t3
 8003b94:	0bc79463          	bne	a5,t3,8003c3c <__udivdi3+0x1e6>
 8003b98:	01089f13          	slli	t5,a7,0x10
 8003b9c:	41158733          	sub	a4,a1,a7
 8003ba0:	0108df93          	srli	t6,a7,0x10
 8003ba4:	010f5f13          	srli	t5,t5,0x10
 8003ba8:	4585                	li	a1,1
 8003baa:	01035793          	srli	a5,t1,0x10
 8003bae:	03f75533          	divu	a0,a4,t6
 8003bb2:	03f77733          	remu	a4,a4,t6
 8003bb6:	03e506b3          	mul	a3,a0,t5
 8003bba:	0742                	slli	a4,a4,0x10
 8003bbc:	8fd9                	or	a5,a5,a4
 8003bbe:	00d7fa63          	bgeu	a5,a3,8003bd2 <__udivdi3+0x17c>
 8003bc2:	97c6                	add	a5,a5,a7
 8003bc4:	fff50713          	addi	a4,a0,-1
 8003bc8:	0117e463          	bltu	a5,a7,8003bd0 <__udivdi3+0x17a>
 8003bcc:	22d7e463          	bltu	a5,a3,8003df4 <__udivdi3+0x39e>
 8003bd0:	853a                	mv	a0,a4
 8003bd2:	8f95                	sub	a5,a5,a3
 8003bd4:	03f7d633          	divu	a2,a5,t6
 8003bd8:	0342                	slli	t1,t1,0x10
 8003bda:	01035313          	srli	t1,t1,0x10
 8003bde:	03f7f7b3          	remu	a5,a5,t6
 8003be2:	03e60f33          	mul	t5,a2,t5
 8003be6:	07c2                	slli	a5,a5,0x10
 8003be8:	0067e7b3          	or	a5,a5,t1
 8003bec:	01e7fb63          	bgeu	a5,t5,8003c02 <__udivdi3+0x1ac>
 8003bf0:	97c6                	add	a5,a5,a7
 8003bf2:	fff60713          	addi	a4,a2,-1
 8003bf6:	0117e563          	bltu	a5,a7,8003c00 <__udivdi3+0x1aa>
 8003bfa:	1679                	addi	a2,a2,-2
 8003bfc:	01e7e363          	bltu	a5,t5,8003c02 <__udivdi3+0x1ac>
 8003c00:	863a                	mv	a2,a4
 8003c02:	0542                	slli	a0,a0,0x10
 8003c04:	8d51                	or	a0,a0,a2
 8003c06:	8082                	ret
 8003c08:	0ff00793          	li	a5,255
 8003c0c:	8746                	mv	a4,a7
 8003c0e:	f717f7e3          	bgeu	a5,a7,8003b7c <__udivdi3+0x126>
 8003c12:	0088d713          	srli	a4,a7,0x8
 8003c16:	4e21                	li	t3,8
 8003c18:	b795                	j	8003b7c <__udivdi3+0x126>
 8003c1a:	0ff00793          	li	a5,255
 8003c1e:	8732                	mv	a4,a2
 8003c20:	e4c7fce3          	bgeu	a5,a2,8003a78 <__udivdi3+0x22>
 8003c24:	00865713          	srli	a4,a2,0x8
 8003c28:	4e21                	li	t3,8
 8003c2a:	b5b9                	j	8003a78 <__udivdi3+0x22>
 8003c2c:	0ff00793          	li	a5,255
 8003c30:	18d7f963          	bgeu	a5,a3,8003dc2 <__udivdi3+0x36c>
 8003c34:	0086d713          	srli	a4,a3,0x8
 8003c38:	4821                	li	a6,8
 8003c3a:	bded                	j	8003b34 <__udivdi3+0xde>
 8003c3c:	005898b3          	sll	a7,a7,t0
 8003c40:	01c5d633          	srl	a2,a1,t3
 8003c44:	0108df93          	srli	t6,a7,0x10
 8003c48:	03f65eb3          	divu	t4,a2,t6
 8003c4c:	01089f13          	slli	t5,a7,0x10
 8003c50:	010f5f13          	srli	t5,t5,0x10
 8003c54:	00559833          	sll	a6,a1,t0
 8003c58:	01c55e33          	srl	t3,a0,t3
 8003c5c:	010e6733          	or	a4,t3,a6
 8003c60:	01075593          	srli	a1,a4,0x10
 8003c64:	00551333          	sll	t1,a0,t0
 8003c68:	03f676b3          	remu	a3,a2,t6
 8003c6c:	03df07b3          	mul	a5,t5,t4
 8003c70:	06c2                	slli	a3,a3,0x10
 8003c72:	8ecd                	or	a3,a3,a1
 8003c74:	00f6fb63          	bgeu	a3,a5,8003c8a <__udivdi3+0x234>
 8003c78:	96c6                	add	a3,a3,a7
 8003c7a:	fffe8613          	addi	a2,t4,-1
 8003c7e:	1716e663          	bltu	a3,a7,8003dea <__udivdi3+0x394>
 8003c82:	16f6f463          	bgeu	a3,a5,8003dea <__udivdi3+0x394>
 8003c86:	1ef9                	addi	t4,t4,-2
 8003c88:	96c6                	add	a3,a3,a7
 8003c8a:	8e9d                	sub	a3,a3,a5
 8003c8c:	03f6d7b3          	divu	a5,a3,t6
 8003c90:	01071e13          	slli	t3,a4,0x10
 8003c94:	010e5e13          	srli	t3,t3,0x10
 8003c98:	03f6f6b3          	remu	a3,a3,t6
 8003c9c:	02ff0633          	mul	a2,t5,a5
 8003ca0:	01069713          	slli	a4,a3,0x10
 8003ca4:	01c76733          	or	a4,a4,t3
 8003ca8:	00c77b63          	bgeu	a4,a2,8003cbe <__udivdi3+0x268>
 8003cac:	9746                	add	a4,a4,a7
 8003cae:	fff78693          	addi	a3,a5,-1
 8003cb2:	13176863          	bltu	a4,a7,8003de2 <__udivdi3+0x38c>
 8003cb6:	12c77663          	bgeu	a4,a2,8003de2 <__udivdi3+0x38c>
 8003cba:	17f9                	addi	a5,a5,-2
 8003cbc:	9746                	add	a4,a4,a7
 8003cbe:	010e9593          	slli	a1,t4,0x10
 8003cc2:	8f11                	sub	a4,a4,a2
 8003cc4:	8ddd                	or	a1,a1,a5
 8003cc6:	b5d5                	j	8003baa <__udivdi3+0x154>
 8003cc8:	01c657b3          	srl	a5,a2,t3
 8003ccc:	01d696b3          	sll	a3,a3,t4
 8003cd0:	8edd                	or	a3,a3,a5
 8003cd2:	01c5d333          	srl	t1,a1,t3
 8003cd6:	0106df13          	srli	t5,a3,0x10
 8003cda:	03e358b3          	divu	a7,t1,t5
 8003cde:	01069713          	slli	a4,a3,0x10
 8003ce2:	8341                	srli	a4,a4,0x10
 8003ce4:	01d59833          	sll	a6,a1,t4
 8003ce8:	01c55e33          	srl	t3,a0,t3
 8003cec:	010e6833          	or	a6,t3,a6
 8003cf0:	01085793          	srli	a5,a6,0x10
 8003cf4:	01d61633          	sll	a2,a2,t4
 8003cf8:	03e37333          	remu	t1,t1,t5
 8003cfc:	031705b3          	mul	a1,a4,a7
 8003d00:	0342                	slli	t1,t1,0x10
 8003d02:	00f367b3          	or	a5,t1,a5
 8003d06:	00b7fb63          	bgeu	a5,a1,8003d1c <__udivdi3+0x2c6>
 8003d0a:	97b6                	add	a5,a5,a3
 8003d0c:	fff88313          	addi	t1,a7,-1
 8003d10:	0cd7eb63          	bltu	a5,a3,8003de6 <__udivdi3+0x390>
 8003d14:	0cb7f963          	bgeu	a5,a1,8003de6 <__udivdi3+0x390>
 8003d18:	18f9                	addi	a7,a7,-2
 8003d1a:	97b6                	add	a5,a5,a3
 8003d1c:	8f8d                	sub	a5,a5,a1
 8003d1e:	03e7d333          	divu	t1,a5,t5
 8003d22:	0842                	slli	a6,a6,0x10
 8003d24:	01085813          	srli	a6,a6,0x10
 8003d28:	03e7f7b3          	remu	a5,a5,t5
 8003d2c:	026705b3          	mul	a1,a4,t1
 8003d30:	07c2                	slli	a5,a5,0x10
 8003d32:	0107e833          	or	a6,a5,a6
 8003d36:	00b87b63          	bgeu	a6,a1,8003d4c <__udivdi3+0x2f6>
 8003d3a:	9836                	add	a6,a6,a3
 8003d3c:	fff30793          	addi	a5,t1,-1
 8003d40:	08d86f63          	bltu	a6,a3,8003dde <__udivdi3+0x388>
 8003d44:	08b87d63          	bgeu	a6,a1,8003dde <__udivdi3+0x388>
 8003d48:	1379                	addi	t1,t1,-2
 8003d4a:	9836                	add	a6,a6,a3
 8003d4c:	08c2                	slli	a7,a7,0x10
 8003d4e:	6f41                	lui	t5,0x10
 8003d50:	0068e8b3          	or	a7,a7,t1
 8003d54:	ffff0793          	addi	a5,t5,-1 # ffff <_main_stack_size+0xfbff>
 8003d58:	00f8f733          	and	a4,a7,a5
 8003d5c:	0108d313          	srli	t1,a7,0x10
 8003d60:	8ff1                	and	a5,a5,a2
 8003d62:	8241                	srli	a2,a2,0x10
 8003d64:	02f70e33          	mul	t3,a4,a5
 8003d68:	40b80833          	sub	a6,a6,a1
 8003d6c:	02c70733          	mul	a4,a4,a2
 8003d70:	010e5693          	srli	a3,t3,0x10
 8003d74:	02f307b3          	mul	a5,t1,a5
 8003d78:	973e                	add	a4,a4,a5
 8003d7a:	9736                	add	a4,a4,a3
 8003d7c:	02c30633          	mul	a2,t1,a2
 8003d80:	00f77363          	bgeu	a4,a5,8003d86 <__udivdi3+0x330>
 8003d84:	967a                	add	a2,a2,t5
 8003d86:	01075313          	srli	t1,a4,0x10
 8003d8a:	961a                	add	a2,a2,t1
 8003d8c:	02c86363          	bltu	a6,a2,8003db2 <__udivdi3+0x35c>
 8003d90:	00c80563          	beq	a6,a2,8003d9a <__udivdi3+0x344>
 8003d94:	8546                	mv	a0,a7
 8003d96:	4581                	li	a1,0
 8003d98:	8082                	ret
 8003d9a:	66c1                	lui	a3,0x10
 8003d9c:	16fd                	addi	a3,a3,-1
 8003d9e:	8f75                	and	a4,a4,a3
 8003da0:	01071793          	slli	a5,a4,0x10
 8003da4:	00de7e33          	and	t3,t3,a3
 8003da8:	01d51533          	sll	a0,a0,t4
 8003dac:	97f2                	add	a5,a5,t3
 8003dae:	fef573e3          	bgeu	a0,a5,8003d94 <__udivdi3+0x33e>
 8003db2:	fff88513          	addi	a0,a7,-1
 8003db6:	4581                	li	a1,0
 8003db8:	8082                	ret
 8003dba:	0106d713          	srli	a4,a3,0x10
 8003dbe:	4841                	li	a6,16
 8003dc0:	bb95                	j	8003b34 <__udivdi3+0xde>
 8003dc2:	8736                	mv	a4,a3
 8003dc4:	4801                	li	a6,0
 8003dc6:	b3bd                	j	8003b34 <__udivdi3+0xde>
 8003dc8:	0108d713          	srli	a4,a7,0x10
 8003dcc:	4e41                	li	t3,16
 8003dce:	b37d                	j	8003b7c <__udivdi3+0x126>
 8003dd0:	01065713          	srli	a4,a2,0x10
 8003dd4:	4e41                	li	t3,16
 8003dd6:	b14d                	j	8003a78 <__udivdi3+0x22>
 8003dd8:	4581                	li	a1,0
 8003dda:	4505                	li	a0,1
 8003ddc:	8082                	ret
 8003dde:	833e                	mv	t1,a5
 8003de0:	b7b5                	j	8003d4c <__udivdi3+0x2f6>
 8003de2:	87b6                	mv	a5,a3
 8003de4:	bde9                	j	8003cbe <__udivdi3+0x268>
 8003de6:	889a                	mv	a7,t1
 8003de8:	bf15                	j	8003d1c <__udivdi3+0x2c6>
 8003dea:	8eb2                	mv	t4,a2
 8003dec:	bd79                	j	8003c8a <__udivdi3+0x234>
 8003dee:	1579                	addi	a0,a0,-2
 8003df0:	9846                	add	a6,a6,a7
 8003df2:	b1ed                	j	8003adc <__udivdi3+0x86>
 8003df4:	1579                	addi	a0,a0,-2
 8003df6:	97c6                	add	a5,a5,a7
 8003df8:	bbe9                	j	8003bd2 <__udivdi3+0x17c>

08003dfa <__umoddi3>:
 8003dfa:	87b6                	mv	a5,a3
 8003dfc:	8832                	mv	a6,a2
 8003dfe:	88aa                	mv	a7,a0
 8003e00:	872e                	mv	a4,a1
 8003e02:	8e2e                	mv	t3,a1
 8003e04:	e2cd                	bnez	a3,8003ea6 <__umoddi3+0xac>
 8003e06:	0ec5fa63          	bgeu	a1,a2,8003efa <__umoddi3+0x100>
 8003e0a:	6741                	lui	a4,0x10
 8003e0c:	1ae66063          	bltu	a2,a4,8003fac <__umoddi3+0x1b2>
 8003e10:	010007b7          	lui	a5,0x1000
 8003e14:	34f66d63          	bltu	a2,a5,800416e <__umoddi3+0x374>
 8003e18:	01865693          	srli	a3,a2,0x18
 8003e1c:	47e1                	li	a5,24
 8003e1e:	0800a737          	lui	a4,0x800a
 8003e22:	e9070713          	addi	a4,a4,-368 # 8009e90 <__clz_tab>
 8003e26:	9736                	add	a4,a4,a3
 8003e28:	00074703          	lbu	a4,0(a4)
 8003e2c:	02000693          	li	a3,32
 8003e30:	97ba                	add	a5,a5,a4
 8003e32:	40f68333          	sub	t1,a3,a5
 8003e36:	00f68c63          	beq	a3,a5,8003e4e <__umoddi3+0x54>
 8003e3a:	006595b3          	sll	a1,a1,t1
 8003e3e:	00f557b3          	srl	a5,a0,a5
 8003e42:	00661833          	sll	a6,a2,t1
 8003e46:	00b7ee33          	or	t3,a5,a1
 8003e4a:	006518b3          	sll	a7,a0,t1
 8003e4e:	01085613          	srli	a2,a6,0x10
 8003e52:	02ce57b3          	divu	a5,t3,a2
 8003e56:	01081513          	slli	a0,a6,0x10
 8003e5a:	8141                	srli	a0,a0,0x10
 8003e5c:	0108d693          	srli	a3,a7,0x10
 8003e60:	02ce7e33          	remu	t3,t3,a2
 8003e64:	02f507b3          	mul	a5,a0,a5
 8003e68:	0e42                	slli	t3,t3,0x10
 8003e6a:	00de6733          	or	a4,t3,a3
 8003e6e:	00f77863          	bgeu	a4,a5,8003e7e <__umoddi3+0x84>
 8003e72:	9742                	add	a4,a4,a6
 8003e74:	01076563          	bltu	a4,a6,8003e7e <__umoddi3+0x84>
 8003e78:	00f77363          	bgeu	a4,a5,8003e7e <__umoddi3+0x84>
 8003e7c:	9742                	add	a4,a4,a6
 8003e7e:	8f1d                	sub	a4,a4,a5
 8003e80:	02c756b3          	divu	a3,a4,a2
 8003e84:	01089793          	slli	a5,a7,0x10
 8003e88:	83c1                	srli	a5,a5,0x10
 8003e8a:	02c77733          	remu	a4,a4,a2
 8003e8e:	02d50533          	mul	a0,a0,a3
 8003e92:	0742                	slli	a4,a4,0x10
 8003e94:	8fd9                	or	a5,a5,a4
 8003e96:	0ea7e663          	bltu	a5,a0,8003f82 <__umoddi3+0x188>
 8003e9a:	40a78533          	sub	a0,a5,a0
 8003e9e:	00655533          	srl	a0,a0,t1
 8003ea2:	4581                	li	a1,0
 8003ea4:	8082                	ret
 8003ea6:	882a                	mv	a6,a0
 8003ea8:	00d5f363          	bgeu	a1,a3,8003eae <__umoddi3+0xb4>
 8003eac:	8082                	ret
 8003eae:	67c1                	lui	a5,0x10
 8003eb0:	10f6e763          	bltu	a3,a5,8003fbe <__umoddi3+0x1c4>
 8003eb4:	010007b7          	lui	a5,0x1000
 8003eb8:	2af6e763          	bltu	a3,a5,8004166 <__umoddi3+0x36c>
 8003ebc:	0186d313          	srli	t1,a3,0x18
 8003ec0:	48e1                	li	a7,24
 8003ec2:	0800a7b7          	lui	a5,0x800a
 8003ec6:	e9078793          	addi	a5,a5,-368 # 8009e90 <__clz_tab>
 8003eca:	979a                	add	a5,a5,t1
 8003ecc:	0007ce03          	lbu	t3,0(a5)
 8003ed0:	02000793          	li	a5,32
 8003ed4:	9e46                	add	t3,t3,a7
 8003ed6:	41c78333          	sub	t1,a5,t3
 8003eda:	17c79663          	bne	a5,t3,8004046 <__umoddi3+0x24c>
 8003ede:	00b6e463          	bltu	a3,a1,8003ee6 <__umoddi3+0xec>
 8003ee2:	00c56963          	bltu	a0,a2,8003ef4 <__umoddi3+0xfa>
 8003ee6:	40c50833          	sub	a6,a0,a2
 8003eea:	8d95                	sub	a1,a1,a3
 8003eec:	01053733          	sltu	a4,a0,a6
 8003ef0:	40e58733          	sub	a4,a1,a4
 8003ef4:	8542                	mv	a0,a6
 8003ef6:	85ba                	mv	a1,a4
 8003ef8:	8082                	ret
 8003efa:	e601                	bnez	a2,8003f02 <__umoddi3+0x108>
 8003efc:	4705                	li	a4,1
 8003efe:	02c75833          	divu	a6,a4,a2
 8003f02:	6741                	lui	a4,0x10
 8003f04:	08e86b63          	bltu	a6,a4,8003f9a <__umoddi3+0x1a0>
 8003f08:	010007b7          	lui	a5,0x1000
 8003f0c:	24f86963          	bltu	a6,a5,800415e <__umoddi3+0x364>
 8003f10:	01885693          	srli	a3,a6,0x18
 8003f14:	47e1                	li	a5,24
 8003f16:	0800a737          	lui	a4,0x800a
 8003f1a:	e9070713          	addi	a4,a4,-368 # 8009e90 <__clz_tab>
 8003f1e:	9736                	add	a4,a4,a3
 8003f20:	00074703          	lbu	a4,0(a4)
 8003f24:	02000693          	li	a3,32
 8003f28:	97ba                	add	a5,a5,a4
 8003f2a:	40f68333          	sub	t1,a3,a5
 8003f2e:	0af69063          	bne	a3,a5,8003fce <__umoddi3+0x1d4>
 8003f32:	01081e13          	slli	t3,a6,0x10
 8003f36:	410585b3          	sub	a1,a1,a6
 8003f3a:	01085613          	srli	a2,a6,0x10
 8003f3e:	010e5e13          	srli	t3,t3,0x10
 8003f42:	0108d713          	srli	a4,a7,0x10
 8003f46:	02c5d6b3          	divu	a3,a1,a2
 8003f4a:	02c5f5b3          	remu	a1,a1,a2
 8003f4e:	03c686b3          	mul	a3,a3,t3
 8003f52:	05c2                	slli	a1,a1,0x10
 8003f54:	8f4d                	or	a4,a4,a1
 8003f56:	00d77763          	bgeu	a4,a3,8003f64 <__umoddi3+0x16a>
 8003f5a:	9742                	add	a4,a4,a6
 8003f5c:	01076463          	bltu	a4,a6,8003f64 <__umoddi3+0x16a>
 8003f60:	22d76263          	bltu	a4,a3,8004184 <__umoddi3+0x38a>
 8003f64:	8f15                	sub	a4,a4,a3
 8003f66:	02c75533          	divu	a0,a4,a2
 8003f6a:	08c2                	slli	a7,a7,0x10
 8003f6c:	0108d893          	srli	a7,a7,0x10
 8003f70:	02c77733          	remu	a4,a4,a2
 8003f74:	03c50533          	mul	a0,a0,t3
 8003f78:	0742                	slli	a4,a4,0x10
 8003f7a:	011767b3          	or	a5,a4,a7
 8003f7e:	00a7f863          	bgeu	a5,a0,8003f8e <__umoddi3+0x194>
 8003f82:	97c2                	add	a5,a5,a6
 8003f84:	0107e563          	bltu	a5,a6,8003f8e <__umoddi3+0x194>
 8003f88:	00a7f363          	bgeu	a5,a0,8003f8e <__umoddi3+0x194>
 8003f8c:	97c2                	add	a5,a5,a6
 8003f8e:	40a78533          	sub	a0,a5,a0
 8003f92:	00655533          	srl	a0,a0,t1
 8003f96:	4581                	li	a1,0
 8003f98:	8082                	ret
 8003f9a:	0ff00713          	li	a4,255
 8003f9e:	86c2                	mv	a3,a6
 8003fa0:	f7077be3          	bgeu	a4,a6,8003f16 <__umoddi3+0x11c>
 8003fa4:	00885693          	srli	a3,a6,0x8
 8003fa8:	47a1                	li	a5,8
 8003faa:	b7b5                	j	8003f16 <__umoddi3+0x11c>
 8003fac:	0ff00713          	li	a4,255
 8003fb0:	86b2                	mv	a3,a2
 8003fb2:	e6c776e3          	bgeu	a4,a2,8003e1e <__umoddi3+0x24>
 8003fb6:	00865693          	srli	a3,a2,0x8
 8003fba:	47a1                	li	a5,8
 8003fbc:	b58d                	j	8003e1e <__umoddi3+0x24>
 8003fbe:	0ff00793          	li	a5,255
 8003fc2:	1ad7fa63          	bgeu	a5,a3,8004176 <__umoddi3+0x37c>
 8003fc6:	0086d313          	srli	t1,a3,0x8
 8003fca:	48a1                	li	a7,8
 8003fcc:	bddd                	j	8003ec2 <__umoddi3+0xc8>
 8003fce:	00681833          	sll	a6,a6,t1
 8003fd2:	00f5d733          	srl	a4,a1,a5
 8003fd6:	01085613          	srli	a2,a6,0x10
 8003fda:	02c756b3          	divu	a3,a4,a2
 8003fde:	01081e13          	slli	t3,a6,0x10
 8003fe2:	00f557b3          	srl	a5,a0,a5
 8003fe6:	010e5e13          	srli	t3,t3,0x10
 8003fea:	006595b3          	sll	a1,a1,t1
 8003fee:	8ddd                	or	a1,a1,a5
 8003ff0:	0105de93          	srli	t4,a1,0x10
 8003ff4:	006518b3          	sll	a7,a0,t1
 8003ff8:	02c77733          	remu	a4,a4,a2
 8003ffc:	02de07b3          	mul	a5,t3,a3
 8004000:	01071693          	slli	a3,a4,0x10
 8004004:	01d6e6b3          	or	a3,a3,t4
 8004008:	00f6f863          	bgeu	a3,a5,8004018 <__umoddi3+0x21e>
 800400c:	96c2                	add	a3,a3,a6
 800400e:	0106e563          	bltu	a3,a6,8004018 <__umoddi3+0x21e>
 8004012:	00f6f363          	bgeu	a3,a5,8004018 <__umoddi3+0x21e>
 8004016:	96c2                	add	a3,a3,a6
 8004018:	8e9d                	sub	a3,a3,a5
 800401a:	02c6d733          	divu	a4,a3,a2
 800401e:	01059793          	slli	a5,a1,0x10
 8004022:	83c1                	srli	a5,a5,0x10
 8004024:	02c6f6b3          	remu	a3,a3,a2
 8004028:	02ee0733          	mul	a4,t3,a4
 800402c:	01069593          	slli	a1,a3,0x10
 8004030:	8ddd                	or	a1,a1,a5
 8004032:	00e5f863          	bgeu	a1,a4,8004042 <__umoddi3+0x248>
 8004036:	95c2                	add	a1,a1,a6
 8004038:	0105e563          	bltu	a1,a6,8004042 <__umoddi3+0x248>
 800403c:	00e5f363          	bgeu	a1,a4,8004042 <__umoddi3+0x248>
 8004040:	95c2                	add	a1,a1,a6
 8004042:	8d99                	sub	a1,a1,a4
 8004044:	bdfd                	j	8003f42 <__umoddi3+0x148>
 8004046:	01c657b3          	srl	a5,a2,t3
 800404a:	006696b3          	sll	a3,a3,t1
 800404e:	8edd                	or	a3,a3,a5
 8004050:	01c5d8b3          	srl	a7,a1,t3
 8004054:	0106d713          	srli	a4,a3,0x10
 8004058:	02e8deb3          	divu	t4,a7,a4
 800405c:	01069f13          	slli	t5,a3,0x10
 8004060:	01c557b3          	srl	a5,a0,t3
 8004064:	010f5f13          	srli	t5,t5,0x10
 8004068:	006595b3          	sll	a1,a1,t1
 800406c:	8ddd                	or	a1,a1,a5
 800406e:	0105d813          	srli	a6,a1,0x10
 8004072:	00661633          	sll	a2,a2,t1
 8004076:	00651533          	sll	a0,a0,t1
 800407a:	02e8f8b3          	remu	a7,a7,a4
 800407e:	03df07b3          	mul	a5,t5,t4
 8004082:	08c2                	slli	a7,a7,0x10
 8004084:	0108e833          	or	a6,a7,a6
 8004088:	00f87b63          	bgeu	a6,a5,800409e <__umoddi3+0x2a4>
 800408c:	9836                	add	a6,a6,a3
 800408e:	fffe8893          	addi	a7,t4,-1
 8004092:	0ed86763          	bltu	a6,a3,8004180 <__umoddi3+0x386>
 8004096:	0ef87563          	bgeu	a6,a5,8004180 <__umoddi3+0x386>
 800409a:	1ef9                	addi	t4,t4,-2
 800409c:	9836                	add	a6,a6,a3
 800409e:	40f80833          	sub	a6,a6,a5
 80040a2:	02e857b3          	divu	a5,a6,a4
 80040a6:	05c2                	slli	a1,a1,0x10
 80040a8:	81c1                	srli	a1,a1,0x10
 80040aa:	02e87833          	remu	a6,a6,a4
 80040ae:	02ff0f33          	mul	t5,t5,a5
 80040b2:	01081713          	slli	a4,a6,0x10
 80040b6:	8f4d                	or	a4,a4,a1
 80040b8:	01e77b63          	bgeu	a4,t5,80040ce <__umoddi3+0x2d4>
 80040bc:	9736                	add	a4,a4,a3
 80040be:	fff78593          	addi	a1,a5,-1 # ffffff <_main_stack_size+0xfffbff>
 80040c2:	0ad76d63          	bltu	a4,a3,800417c <__umoddi3+0x382>
 80040c6:	0be77b63          	bgeu	a4,t5,800417c <__umoddi3+0x382>
 80040ca:	17f9                	addi	a5,a5,-2
 80040cc:	9736                	add	a4,a4,a3
 80040ce:	0ec2                	slli	t4,t4,0x10
 80040d0:	62c1                	lui	t0,0x10
 80040d2:	00feeeb3          	or	t4,t4,a5
 80040d6:	fff28813          	addi	a6,t0,-1 # ffff <_main_stack_size+0xfbff>
 80040da:	010ef8b3          	and	a7,t4,a6
 80040de:	01065593          	srli	a1,a2,0x10
 80040e2:	010ede93          	srli	t4,t4,0x10
 80040e6:	01067833          	and	a6,a2,a6
 80040ea:	03088fb3          	mul	t6,a7,a6
 80040ee:	41e70733          	sub	a4,a4,t5
 80040f2:	030e8833          	mul	a6,t4,a6
 80040f6:	010fd793          	srli	a5,t6,0x10
 80040fa:	02b888b3          	mul	a7,a7,a1
 80040fe:	98c2                	add	a7,a7,a6
 8004100:	97c6                	add	a5,a5,a7
 8004102:	02be8eb3          	mul	t4,t4,a1
 8004106:	0107f363          	bgeu	a5,a6,800410c <__umoddi3+0x312>
 800410a:	9e96                	add	t4,t4,t0
 800410c:	6841                	lui	a6,0x10
 800410e:	187d                	addi	a6,a6,-1
 8004110:	0107d593          	srli	a1,a5,0x10
 8004114:	0107f7b3          	and	a5,a5,a6
 8004118:	07c2                	slli	a5,a5,0x10
 800411a:	010fffb3          	and	t6,t6,a6
 800411e:	95f6                	add	a1,a1,t4
 8004120:	97fe                	add	a5,a5,t6
 8004122:	02b76663          	bltu	a4,a1,800414e <__umoddi3+0x354>
 8004126:	02b70263          	beq	a4,a1,800414a <__umoddi3+0x350>
 800412a:	40f507b3          	sub	a5,a0,a5
 800412e:	00f53533          	sltu	a0,a0,a5
 8004132:	40b705b3          	sub	a1,a4,a1
 8004136:	8d89                	sub	a1,a1,a0
 8004138:	01c59e33          	sll	t3,a1,t3
 800413c:	0067d533          	srl	a0,a5,t1
 8004140:	00ae6533          	or	a0,t3,a0
 8004144:	0065d5b3          	srl	a1,a1,t1
 8004148:	8082                	ret
 800414a:	fef570e3          	bgeu	a0,a5,800412a <__umoddi3+0x330>
 800414e:	40c78633          	sub	a2,a5,a2
 8004152:	00c7b7b3          	sltu	a5,a5,a2
 8004156:	97b6                	add	a5,a5,a3
 8004158:	8d9d                	sub	a1,a1,a5
 800415a:	87b2                	mv	a5,a2
 800415c:	b7f9                	j	800412a <__umoddi3+0x330>
 800415e:	01085693          	srli	a3,a6,0x10
 8004162:	47c1                	li	a5,16
 8004164:	bb4d                	j	8003f16 <__umoddi3+0x11c>
 8004166:	0106d313          	srli	t1,a3,0x10
 800416a:	48c1                	li	a7,16
 800416c:	bb99                	j	8003ec2 <__umoddi3+0xc8>
 800416e:	01065693          	srli	a3,a2,0x10
 8004172:	47c1                	li	a5,16
 8004174:	b16d                	j	8003e1e <__umoddi3+0x24>
 8004176:	8336                	mv	t1,a3
 8004178:	4881                	li	a7,0
 800417a:	b3a1                	j	8003ec2 <__umoddi3+0xc8>
 800417c:	87ae                	mv	a5,a1
 800417e:	bf81                	j	80040ce <__umoddi3+0x2d4>
 8004180:	8ec6                	mv	t4,a7
 8004182:	bf31                	j	800409e <__umoddi3+0x2a4>
 8004184:	9742                	add	a4,a4,a6
 8004186:	bbf9                	j	8003f64 <__umoddi3+0x16a>

08004188 <_Unwind_ForcedUnwind_Phase2>:
 8004188:	0005a883          	lw	a7,0(a1)
 800418c:	7179                	addi	sp,sp,-48
 800418e:	d422                	sw	s0,40(sp)
 8004190:	d226                	sw	s1,36(sp)
 8004192:	ce4e                	sw	s3,28(sp)
 8004194:	cc52                	sw	s4,24(sp)
 8004196:	ca56                	sw	s5,20(sp)
 8004198:	c462                	sw	s8,8(sp)
 800419a:	d606                	sw	ra,44(sp)
 800419c:	d04a                	sw	s2,32(sp)
 800419e:	c85a                	sw	s6,16(sp)
 80041a0:	c65e                	sw	s7,12(sp)
 80041a2:	00c52a03          	lw	s4,12(a0)
 80041a6:	01052a83          	lw	s5,16(a0)
 80041aa:	842e                	mv	s0,a1
 80041ac:	84aa                	mv	s1,a0
 80041ae:	8c32                	mv	s8,a2
 80041b0:	4985                	li	s3,1
 80041b2:	04088b63          	beqz	a7,8004208 <_Unwind_ForcedUnwind_Phase2+0x80>
 80041b6:	4b1d                	li	s6,7
 80041b8:	4ba1                	li	s7,8
 80041ba:	40d4                	lw	a3,4(s1)
 80041bc:	4090                	lw	a2,0(s1)
 80041be:	87a2                	mv	a5,s0
 80041c0:	8726                	mv	a4,s1
 80041c2:	45a9                	li	a1,10
 80041c4:	8856                	mv	a6,s5
 80041c6:	4505                	li	a0,1
 80041c8:	0188a903          	lw	s2,24(a7)
 80041cc:	9a02                	jalr	s4
 80041ce:	86aa                	mv	a3,a0
 80041d0:	87a2                	mv	a5,s0
 80041d2:	8726                	mv	a4,s1
 80041d4:	45a9                	li	a1,10
 80041d6:	4505                	li	a0,1
 80041d8:	e2a9                	bnez	a3,800421a <_Unwind_ForcedUnwind_Phase2+0x92>
 80041da:	00090963          	beqz	s2,80041ec <_Unwind_ForcedUnwind_Phase2+0x64>
 80041de:	4090                	lw	a2,0(s1)
 80041e0:	40d4                	lw	a3,4(s1)
 80041e2:	9902                	jalr	s2
 80041e4:	05650963          	beq	a0,s6,8004236 <_Unwind_ForcedUnwind_Phase2+0xae>
 80041e8:	03751963          	bne	a0,s7,800421a <_Unwind_ForcedUnwind_Phase2+0x92>
 80041ec:	401c                	lw	a5,0(s0)
 80041ee:	0985                	addi	s3,s3,1
 80041f0:	4388                	lw	a0,0(a5)
 80041f2:	00002097          	auipc	ra,0x2
 80041f6:	ac0080e7          	jalr	-1344(ra) # 8005cb2 <_Miosix_set_sjlj_ptr>
 80041fa:	401c                	lw	a5,0(s0)
 80041fc:	0007a883          	lw	a7,0(a5)
 8004200:	01142023          	sw	a7,0(s0)
 8004204:	fa089be3          	bnez	a7,80041ba <_Unwind_ForcedUnwind_Phase2+0x32>
 8004208:	4090                	lw	a2,0(s1)
 800420a:	40d4                	lw	a3,4(s1)
 800420c:	8856                	mv	a6,s5
 800420e:	87a2                	mv	a5,s0
 8004210:	8726                	mv	a4,s1
 8004212:	45e9                	li	a1,26
 8004214:	4505                	li	a0,1
 8004216:	9a02                	jalr	s4
 8004218:	cd11                	beqz	a0,8004234 <_Unwind_ForcedUnwind_Phase2+0xac>
 800421a:	4509                	li	a0,2
 800421c:	50b2                	lw	ra,44(sp)
 800421e:	5422                	lw	s0,40(sp)
 8004220:	5492                	lw	s1,36(sp)
 8004222:	5902                	lw	s2,32(sp)
 8004224:	49f2                	lw	s3,28(sp)
 8004226:	4a62                	lw	s4,24(sp)
 8004228:	4ad2                	lw	s5,20(sp)
 800422a:	4b42                	lw	s6,16(sp)
 800422c:	4bb2                	lw	s7,12(sp)
 800422e:	4c22                	lw	s8,8(sp)
 8004230:	6145                	addi	sp,sp,48
 8004232:	8082                	ret
 8004234:	4515                	li	a0,5
 8004236:	013c2023          	sw	s3,0(s8)
 800423a:	b7cd                	j	800421c <_Unwind_ForcedUnwind_Phase2+0x94>

0800423c <_Unwind_RaiseException_Phase2>:
 800423c:	4194                	lw	a3,0(a1)
 800423e:	c6c9                	beqz	a3,80042c8 <_Unwind_RaiseException_Phase2+0x8c>
 8004240:	1101                	addi	sp,sp,-32
 8004242:	cc22                	sw	s0,24(sp)
 8004244:	ca26                	sw	s1,20(sp)
 8004246:	c84a                	sw	s2,16(sp)
 8004248:	c452                	sw	s4,8(sp)
 800424a:	c256                	sw	s5,4(sp)
 800424c:	c05a                	sw	s6,0(sp)
 800424e:	ce06                	sw	ra,28(sp)
 8004250:	c64e                	sw	s3,12(sp)
 8004252:	842e                	mv	s0,a1
 8004254:	84aa                	mv	s1,a0
 8004256:	8b32                	mv	s6,a2
 8004258:	4905                	li	s2,1
 800425a:	4a1d                	li	s4,7
 800425c:	4aa1                	li	s5,8
 800425e:	a035                	j	800428a <_Unwind_RaiseException_Phase2+0x4e>
 8004260:	4589                	li	a1,2
 8004262:	4981                	li	s3,0
 8004264:	00080f63          	beqz	a6,8004282 <_Unwind_RaiseException_Phase2+0x46>
 8004268:	4090                	lw	a2,0(s1)
 800426a:	40d4                	lw	a3,4(s1)
 800426c:	87a2                	mv	a5,s0
 800426e:	8726                	mv	a4,s1
 8004270:	4505                	li	a0,1
 8004272:	9802                	jalr	a6
 8004274:	03450c63          	beq	a0,s4,80042ac <_Unwind_RaiseException_Phase2+0x70>
 8004278:	03551d63          	bne	a0,s5,80042b2 <_Unwind_RaiseException_Phase2+0x76>
 800427c:	04099863          	bnez	s3,80042cc <_Unwind_RaiseException_Phase2+0x90>
 8004280:	4014                	lw	a3,0(s0)
 8004282:	4294                	lw	a3,0(a3)
 8004284:	0905                	addi	s2,s2,1
 8004286:	c014                	sw	a3,0(s0)
 8004288:	c68d                	beqz	a3,80042b2 <_Unwind_RaiseException_Phase2+0x76>
 800428a:	489c                	lw	a5,16(s1)
 800428c:	0186a803          	lw	a6,24(a3) # 10018 <_main_stack_size+0xfc18>
 8004290:	fcf698e3          	bne	a3,a5,8004260 <_Unwind_RaiseException_Phase2+0x24>
 8004294:	02080c63          	beqz	a6,80042cc <_Unwind_RaiseException_Phase2+0x90>
 8004298:	4090                	lw	a2,0(s1)
 800429a:	40d4                	lw	a3,4(s1)
 800429c:	4599                	li	a1,6
 800429e:	87a2                	mv	a5,s0
 80042a0:	8726                	mv	a4,s1
 80042a2:	4505                	li	a0,1
 80042a4:	4991                	li	s3,4
 80042a6:	9802                	jalr	a6
 80042a8:	fd4518e3          	bne	a0,s4,8004278 <_Unwind_RaiseException_Phase2+0x3c>
 80042ac:	012b2023          	sw	s2,0(s6)
 80042b0:	a011                	j	80042b4 <_Unwind_RaiseException_Phase2+0x78>
 80042b2:	4509                	li	a0,2
 80042b4:	40f2                	lw	ra,28(sp)
 80042b6:	4462                	lw	s0,24(sp)
 80042b8:	44d2                	lw	s1,20(sp)
 80042ba:	4942                	lw	s2,16(sp)
 80042bc:	49b2                	lw	s3,12(sp)
 80042be:	4a22                	lw	s4,8(sp)
 80042c0:	4a92                	lw	s5,4(sp)
 80042c2:	4b02                	lw	s6,0(sp)
 80042c4:	6105                	addi	sp,sp,32
 80042c6:	8082                	ret
 80042c8:	4509                	li	a0,2
 80042ca:	8082                	ret
 80042cc:	ffffc097          	auipc	ra,0xffffc
 80042d0:	e90080e7          	jalr	-368(ra) # 800015c <abort>

080042d4 <uw_install_context.isra.0>:
 80042d4:	1141                	addi	sp,sp,-16
 80042d6:	c422                	sw	s0,8(sp)
 80042d8:	c226                	sw	s1,4(sp)
 80042da:	0800                	addi	s0,sp,16
 80042dc:	c606                	sw	ra,12(sp)
 80042de:	84aa                	mv	s1,a0
 80042e0:	4108                	lw	a0,0(a0)
 80042e2:	00002097          	auipc	ra,0x2
 80042e6:	9d0080e7          	jalr	-1584(ra) # 8005cb2 <_Miosix_set_sjlj_ptr>
 80042ea:	409c                	lw	a5,0(s1)
 80042ec:	53d8                	lw	a4,36(a5)
 80042ee:	5394                	lw	a3,32(a5)
 80042f0:	0287a103          	lw	sp,40(a5)
 80042f4:	8436                	mv	s0,a3
 80042f6:	8702                	jr	a4

080042f8 <_Unwind_SjLj_Register>:
 80042f8:	1141                	addi	sp,sp,-16
 80042fa:	c422                	sw	s0,8(sp)
 80042fc:	c606                	sw	ra,12(sp)
 80042fe:	842a                	mv	s0,a0
 8004300:	00002097          	auipc	ra,0x2
 8004304:	9ce080e7          	jalr	-1586(ra) # 8005cce <_Miosix_get_sjlj_ptr>
 8004308:	c008                	sw	a0,0(s0)
 800430a:	8522                	mv	a0,s0
 800430c:	4422                	lw	s0,8(sp)
 800430e:	40b2                	lw	ra,12(sp)
 8004310:	0141                	addi	sp,sp,16
 8004312:	00002317          	auipc	t1,0x2
 8004316:	9a030067          	jr	-1632(t1) # 8005cb2 <_Miosix_set_sjlj_ptr>

0800431a <_Unwind_SjLj_Unregister>:
 800431a:	4108                	lw	a0,0(a0)
 800431c:	00002317          	auipc	t1,0x2
 8004320:	99630067          	jr	-1642(t1) # 8005cb2 <_Miosix_set_sjlj_ptr>

08004324 <_Unwind_GetGR>:
 8004324:	411c                	lw	a5,0(a0)
 8004326:	058a                	slli	a1,a1,0x2
 8004328:	97ae                	add	a5,a5,a1
 800432a:	4788                	lw	a0,8(a5)
 800432c:	8082                	ret

0800432e <_Unwind_GetCFA>:
 800432e:	411c                	lw	a5,0(a0)
 8004330:	c399                	beqz	a5,8004336 <_Unwind_GetCFA+0x8>
 8004332:	5788                	lw	a0,40(a5)
 8004334:	8082                	ret
 8004336:	4501                	li	a0,0
 8004338:	8082                	ret

0800433a <_Unwind_SetGR>:
 800433a:	411c                	lw	a5,0(a0)
 800433c:	058a                	slli	a1,a1,0x2
 800433e:	97ae                	add	a5,a5,a1
 8004340:	c790                	sw	a2,8(a5)
 8004342:	8082                	ret

08004344 <_Unwind_GetIP>:
 8004344:	411c                	lw	a5,0(a0)
 8004346:	43c8                	lw	a0,4(a5)
 8004348:	0505                	addi	a0,a0,1
 800434a:	8082                	ret

0800434c <_Unwind_GetIPInfo>:
 800434c:	411c                	lw	a5,0(a0)
 800434e:	0005a023          	sw	zero,0(a1)
 8004352:	c781                	beqz	a5,800435a <_Unwind_GetIPInfo+0xe>
 8004354:	43c8                	lw	a0,4(a5)
 8004356:	0505                	addi	a0,a0,1
 8004358:	8082                	ret
 800435a:	4501                	li	a0,0
 800435c:	8082                	ret

0800435e <_Unwind_SetIP>:
 800435e:	411c                	lw	a5,0(a0)
 8004360:	15fd                	addi	a1,a1,-1
 8004362:	c3cc                	sw	a1,4(a5)
 8004364:	8082                	ret

08004366 <_Unwind_GetLanguageSpecificData>:
 8004366:	411c                	lw	a5,0(a0)
 8004368:	4fc8                	lw	a0,28(a5)
 800436a:	8082                	ret

0800436c <_Unwind_GetRegionStart>:
 800436c:	4501                	li	a0,0
 800436e:	8082                	ret

08004370 <_Unwind_FindEnclosingFunction>:
 8004370:	4501                	li	a0,0
 8004372:	8082                	ret

08004374 <_Unwind_GetDataRelBase>:
 8004374:	4501                	li	a0,0
 8004376:	8082                	ret

08004378 <_Unwind_GetTextRelBase>:
 8004378:	4501                	li	a0,0
 800437a:	8082                	ret

0800437c <_Unwind_SjLj_RaiseException>:
 800437c:	7179                	addi	sp,sp,-48
 800437e:	d422                	sw	s0,40(sp)
 8004380:	d606                	sw	ra,44(sp)
 8004382:	d226                	sw	s1,36(sp)
 8004384:	d04a                	sw	s2,32(sp)
 8004386:	ce4e                	sw	s3,28(sp)
 8004388:	842a                	mv	s0,a0
 800438a:	00002097          	auipc	ra,0x2
 800438e:	944080e7          	jalr	-1724(ra) # 8005cce <_Miosix_get_sjlj_ptr>
 8004392:	c42a                	sw	a0,8(sp)
 8004394:	c905                	beqz	a0,80043c4 <_Unwind_SjLj_RaiseException+0x48>
 8004396:	84aa                	mv	s1,a0
 8004398:	87aa                	mv	a5,a0
 800439a:	4919                	li	s2,6
 800439c:	49a1                	li	s3,8
 800439e:	0187a803          	lw	a6,24(a5)
 80043a2:	00080d63          	beqz	a6,80043bc <_Unwind_SjLj_RaiseException+0x40>
 80043a6:	4010                	lw	a2,0(s0)
 80043a8:	4054                	lw	a3,4(s0)
 80043aa:	003c                	addi	a5,sp,8
 80043ac:	8722                	mv	a4,s0
 80043ae:	4585                	li	a1,1
 80043b0:	4505                	li	a0,1
 80043b2:	9802                	jalr	a6
 80043b4:	03250063          	beq	a0,s2,80043d4 <_Unwind_SjLj_RaiseException+0x58>
 80043b8:	05351263          	bne	a0,s3,80043fc <_Unwind_SjLj_RaiseException+0x80>
 80043bc:	47a2                	lw	a5,8(sp)
 80043be:	439c                	lw	a5,0(a5)
 80043c0:	c43e                	sw	a5,8(sp)
 80043c2:	fff1                	bnez	a5,800439e <_Unwind_SjLj_RaiseException+0x22>
 80043c4:	4515                	li	a0,5
 80043c6:	50b2                	lw	ra,44(sp)
 80043c8:	5422                	lw	s0,40(sp)
 80043ca:	5492                	lw	s1,36(sp)
 80043cc:	5902                	lw	s2,32(sp)
 80043ce:	49f2                	lw	s3,28(sp)
 80043d0:	6145                	addi	sp,sp,48
 80043d2:	8082                	ret
 80043d4:	47a2                	lw	a5,8(sp)
 80043d6:	00042623          	sw	zero,12(s0)
 80043da:	0070                	addi	a2,sp,12
 80043dc:	c81c                	sw	a5,16(s0)
 80043de:	002c                	addi	a1,sp,8
 80043e0:	8522                	mv	a0,s0
 80043e2:	c426                	sw	s1,8(sp)
 80043e4:	00000097          	auipc	ra,0x0
 80043e8:	e58080e7          	jalr	-424(ra) # 800423c <_Unwind_RaiseException_Phase2>
 80043ec:	479d                	li	a5,7
 80043ee:	fcf51ce3          	bne	a0,a5,80043c6 <_Unwind_SjLj_RaiseException+0x4a>
 80043f2:	0028                	addi	a0,sp,8
 80043f4:	00000097          	auipc	ra,0x0
 80043f8:	ee0080e7          	jalr	-288(ra) # 80042d4 <uw_install_context.isra.0>
 80043fc:	450d                	li	a0,3
 80043fe:	b7e1                	j	80043c6 <_Unwind_SjLj_RaiseException+0x4a>

08004400 <_Unwind_SjLj_ForcedUnwind>:
 8004400:	1101                	addi	sp,sp,-32
 8004402:	ce06                	sw	ra,28(sp)
 8004404:	cc22                	sw	s0,24(sp)
 8004406:	ca26                	sw	s1,20(sp)
 8004408:	842a                	mv	s0,a0
 800440a:	84b2                	mv	s1,a2
 800440c:	c84a                	sw	s2,16(sp)
 800440e:	892e                	mv	s2,a1
 8004410:	00002097          	auipc	ra,0x2
 8004414:	8be080e7          	jalr	-1858(ra) # 8005cce <_Miosix_get_sjlj_ptr>
 8004418:	87aa                	mv	a5,a0
 800441a:	01242623          	sw	s2,12(s0)
 800441e:	c804                	sw	s1,16(s0)
 8004420:	0070                	addi	a2,sp,12
 8004422:	002c                	addi	a1,sp,8
 8004424:	8522                	mv	a0,s0
 8004426:	c43e                	sw	a5,8(sp)
 8004428:	00000097          	auipc	ra,0x0
 800442c:	d60080e7          	jalr	-672(ra) # 8004188 <_Unwind_ForcedUnwind_Phase2>
 8004430:	479d                	li	a5,7
 8004432:	00f50863          	beq	a0,a5,8004442 <_Unwind_SjLj_ForcedUnwind+0x42>
 8004436:	40f2                	lw	ra,28(sp)
 8004438:	4462                	lw	s0,24(sp)
 800443a:	44d2                	lw	s1,20(sp)
 800443c:	4942                	lw	s2,16(sp)
 800443e:	6105                	addi	sp,sp,32
 8004440:	8082                	ret
 8004442:	0028                	addi	a0,sp,8
 8004444:	00000097          	auipc	ra,0x0
 8004448:	e90080e7          	jalr	-368(ra) # 80042d4 <uw_install_context.isra.0>

0800444c <_Unwind_SjLj_Resume>:
 800444c:	1101                	addi	sp,sp,-32
 800444e:	cc22                	sw	s0,24(sp)
 8004450:	ca26                	sw	s1,20(sp)
 8004452:	842a                	mv	s0,a0
 8004454:	ce06                	sw	ra,28(sp)
 8004456:	00002097          	auipc	ra,0x2
 800445a:	878080e7          	jalr	-1928(ra) # 8005cce <_Miosix_get_sjlj_ptr>
 800445e:	445c                	lw	a5,12(s0)
 8004460:	c42a                	sw	a0,8(sp)
 8004462:	0024                	addi	s1,sp,8
 8004464:	0070                	addi	a2,sp,12
 8004466:	85a6                	mv	a1,s1
 8004468:	8522                	mv	a0,s0
 800446a:	ef89                	bnez	a5,8004484 <_Unwind_SjLj_Resume+0x38>
 800446c:	00000097          	auipc	ra,0x0
 8004470:	dd0080e7          	jalr	-560(ra) # 800423c <_Unwind_RaiseException_Phase2>
 8004474:	479d                	li	a5,7
 8004476:	00f51c63          	bne	a0,a5,800448e <_Unwind_SjLj_Resume+0x42>
 800447a:	8526                	mv	a0,s1
 800447c:	00000097          	auipc	ra,0x0
 8004480:	e58080e7          	jalr	-424(ra) # 80042d4 <uw_install_context.isra.0>
 8004484:	00000097          	auipc	ra,0x0
 8004488:	d04080e7          	jalr	-764(ra) # 8004188 <_Unwind_ForcedUnwind_Phase2>
 800448c:	b7e5                	j	8004474 <_Unwind_SjLj_Resume+0x28>
 800448e:	ffffc097          	auipc	ra,0xffffc
 8004492:	cce080e7          	jalr	-818(ra) # 800015c <abort>

08004496 <_Unwind_SjLj_Resume_or_Rethrow>:
 8004496:	455c                	lw	a5,12(a0)
 8004498:	1101                	addi	sp,sp,-32
 800449a:	ce06                	sw	ra,28(sp)
 800449c:	cc22                	sw	s0,24(sp)
 800449e:	eb89                	bnez	a5,80044b0 <_Unwind_SjLj_Resume_or_Rethrow+0x1a>
 80044a0:	00000097          	auipc	ra,0x0
 80044a4:	edc080e7          	jalr	-292(ra) # 800437c <_Unwind_SjLj_RaiseException>
 80044a8:	40f2                	lw	ra,28(sp)
 80044aa:	4462                	lw	s0,24(sp)
 80044ac:	6105                	addi	sp,sp,32
 80044ae:	8082                	ret
 80044b0:	842a                	mv	s0,a0
 80044b2:	00002097          	auipc	ra,0x2
 80044b6:	81c080e7          	jalr	-2020(ra) # 8005cce <_Miosix_get_sjlj_ptr>
 80044ba:	87aa                	mv	a5,a0
 80044bc:	0070                	addi	a2,sp,12
 80044be:	002c                	addi	a1,sp,8
 80044c0:	8522                	mv	a0,s0
 80044c2:	c43e                	sw	a5,8(sp)
 80044c4:	00000097          	auipc	ra,0x0
 80044c8:	cc4080e7          	jalr	-828(ra) # 8004188 <_Unwind_ForcedUnwind_Phase2>
 80044cc:	479d                	li	a5,7
 80044ce:	00f51763          	bne	a0,a5,80044dc <_Unwind_SjLj_Resume_or_Rethrow+0x46>
 80044d2:	0028                	addi	a0,sp,8
 80044d4:	00000097          	auipc	ra,0x0
 80044d8:	e00080e7          	jalr	-512(ra) # 80042d4 <uw_install_context.isra.0>
 80044dc:	ffffc097          	auipc	ra,0xffffc
 80044e0:	c80080e7          	jalr	-896(ra) # 800015c <abort>

080044e4 <_Unwind_DeleteException>:
 80044e4:	00852303          	lw	t1,8(a0)
 80044e8:	85aa                	mv	a1,a0
 80044ea:	00030463          	beqz	t1,80044f2 <_Unwind_DeleteException+0xe>
 80044ee:	4505                	li	a0,1
 80044f0:	8302                	jr	t1
 80044f2:	8082                	ret

080044f4 <_Unwind_Backtrace>:
 80044f4:	1101                	addi	sp,sp,-32
 80044f6:	cc22                	sw	s0,24(sp)
 80044f8:	ca26                	sw	s1,20(sp)
 80044fa:	ce06                	sw	ra,28(sp)
 80044fc:	842a                	mv	s0,a0
 80044fe:	84ae                	mv	s1,a1
 8004500:	00001097          	auipc	ra,0x1
 8004504:	7ce080e7          	jalr	1998(ra) # 8005cce <_Miosix_get_sjlj_ptr>
 8004508:	c62a                	sw	a0,12(sp)
 800450a:	c909                	beqz	a0,800451c <_Unwind_Backtrace+0x28>
 800450c:	85a6                	mv	a1,s1
 800450e:	0068                	addi	a0,sp,12
 8004510:	9402                	jalr	s0
 8004512:	e105                	bnez	a0,8004532 <_Unwind_Backtrace+0x3e>
 8004514:	47b2                	lw	a5,12(sp)
 8004516:	439c                	lw	a5,0(a5)
 8004518:	c63e                	sw	a5,12(sp)
 800451a:	fbed                	bnez	a5,800450c <_Unwind_Backtrace+0x18>
 800451c:	85a6                	mv	a1,s1
 800451e:	0068                	addi	a0,sp,12
 8004520:	9402                	jalr	s0
 8004522:	4795                	li	a5,5
 8004524:	e519                	bnez	a0,8004532 <_Unwind_Backtrace+0x3e>
 8004526:	40f2                	lw	ra,28(sp)
 8004528:	4462                	lw	s0,24(sp)
 800452a:	44d2                	lw	s1,20(sp)
 800452c:	853e                	mv	a0,a5
 800452e:	6105                	addi	sp,sp,32
 8004530:	8082                	ret
 8004532:	40f2                	lw	ra,28(sp)
 8004534:	4462                	lw	s0,24(sp)
 8004536:	478d                	li	a5,3
 8004538:	44d2                	lw	s1,20(sp)
 800453a:	853e                	mv	a0,a5
 800453c:	6105                	addi	sp,sp,32
 800453e:	8082                	ret

08004540 <main>:
 8004540:	4501                	li	a0,0
 8004542:	8082                	ret

08004544 <Default_Handler>:
 8004544:	00002317          	auipc	t1,0x2
 8004548:	a9c30067          	jr	-1380(t1) # 8005fe0 <_Z19unexpectedInterruptv>

0800454c <_Z15program_startupv>:
 800454c:	400217b7          	lui	a5,0x40021
 8004550:	4f98                	lw	a4,24(a5)
 8004552:	1141                	addi	sp,sp,-16
 8004554:	c606                	sw	ra,12(sp)
 8004556:	00476713          	ori	a4,a4,4
 800455a:	cf98                	sw	a4,24(a5)
 800455c:	4f98                	lw	a4,24(a5)
 800455e:	01076713          	ori	a4,a4,16
 8004562:	cf98                	sw	a4,24(a5)
 8004564:	300477f3          	csrrci	a5,mstatus,8
 8004568:	460d                	li	a2,3
 800456a:	45b5                	li	a1,13
 800456c:	40011537          	lui	a0,0x40011
 8004570:	00002097          	auipc	ra,0x2
 8004574:	c9a080e7          	jalr	-870(ra) # 800620a <_ZN6miosix8GpioBase8modeImplEjhNS_4Mode5Mode_E>
 8004578:	00002097          	auipc	ra,0x2
 800457c:	d32080e7          	jalr	-718(ra) # 80062aa <SystemInit>
 8004580:	20000537          	lui	a0,0x20000
 8004584:	200017b7          	lui	a5,0x20001
 8004588:	8a878793          	addi	a5,a5,-1880 # 200008a8 <_bss_start>
 800458c:	40050613          	addi	a2,a0,1024 # 20000400 <_main_stack_top>
 8004590:	0800a5b7          	lui	a1,0x800a
 8004594:	40c78633          	sub	a2,a5,a2
 8004598:	70858593          	addi	a1,a1,1800 # 800a708 <__exidx_end>
 800459c:	40050513          	addi	a0,a0,1024
 80045a0:	ffffd097          	auipc	ra,0xffffd
 80045a4:	ac6080e7          	jalr	-1338(ra) # 8001066 <memcpy>
 80045a8:	20001537          	lui	a0,0x20001
 80045ac:	200017b7          	lui	a5,0x20001
 80045b0:	ba878793          	addi	a5,a5,-1112 # 20000ba8 <_bss_end>
 80045b4:	8a850613          	addi	a2,a0,-1880 # 200008a8 <_bss_start>
 80045b8:	40c78633          	sub	a2,a5,a2
 80045bc:	4581                	li	a1,0
 80045be:	8a850513          	addi	a0,a0,-1880
 80045c2:	ffffd097          	auipc	ra,0xffffd
 80045c6:	c52080e7          	jalr	-942(ra) # 8001214 <memset>
 80045ca:	00000097          	auipc	ra,0x0
 80045ce:	2d4080e7          	jalr	724(ra) # 800489e <_init>
 80045d2:	0060006f          	j	80045d8 <_Z13Reset_Handlerv>
 80045d6:	a001                	j	80045d6 <_Z15program_startupv+0x8a>

080045d8 <_Z13Reset_Handlerv>:
 80045d8:	17ffd197          	auipc	gp,0x17ffd
 80045dc:	a8018193          	addi	gp,gp,-1408 # 20001058 <__global_pointer$>
 80045e0:	17ffc117          	auipc	sp,0x17ffc
 80045e4:	e2010113          	addi	sp,sp,-480 # 20000400 <_main_stack_top>
 80045e8:	f65ff06f          	j	800454c <_Z15program_startupv>

080045ec <_Z7bootlogPKcz>:
 80045ec:	7139                	addi	sp,sp,-64
 80045ee:	02410313          	addi	t1,sp,36
 80045f2:	d22e                	sw	a1,36(sp)
 80045f4:	859a                	mv	a1,t1
 80045f6:	ce06                	sw	ra,28(sp)
 80045f8:	d432                	sw	a2,40(sp)
 80045fa:	d636                	sw	a3,44(sp)
 80045fc:	d83a                	sw	a4,48(sp)
 80045fe:	da3e                	sw	a5,52(sp)
 8004600:	dc42                	sw	a6,56(sp)
 8004602:	de46                	sw	a7,60(sp)
 8004604:	c61a                	sw	t1,12(sp)
 8004606:	ffffe097          	auipc	ra,0xffffe
 800460a:	f88080e7          	jalr	-120(ra) # 800258e <viprintf>
 800460e:	40f2                	lw	ra,28(sp)
 8004610:	6121                	addi	sp,sp,64
 8004612:	8082                	ret

08004614 <_Z8errorLogPKcz>:
 8004614:	7139                	addi	sp,sp,-64
 8004616:	02410313          	addi	t1,sp,36
 800461a:	d22e                	sw	a1,36(sp)
 800461c:	859a                	mv	a1,t1
 800461e:	ce06                	sw	ra,28(sp)
 8004620:	d432                	sw	a2,40(sp)
 8004622:	d636                	sw	a3,44(sp)
 8004624:	d83a                	sw	a4,48(sp)
 8004626:	da3e                	sw	a5,52(sp)
 8004628:	dc42                	sw	a6,56(sp)
 800462a:	de46                	sw	a7,60(sp)
 800462c:	c61a                	sw	t1,12(sp)
 800462e:	ffffe097          	auipc	ra,0xffffe
 8004632:	f60080e7          	jalr	-160(ra) # 800258e <viprintf>
 8004636:	40f2                	lw	ra,28(sp)
 8004638:	6121                	addi	sp,sp,64
 800463a:	8082                	ret

0800463c <_ZN6miosix10mainLoaderEPv>:
 800463c:	7119                	addi	sp,sp,-128
 800463e:	007c                	addi	a5,sp,12
 8004640:	853e                	mv	a0,a5
 8004642:	c43e                	sw	a5,8(sp)
 8004644:	080087b7          	lui	a5,0x8008
 8004648:	ec878793          	addi	a5,a5,-312 # 8007ec8 <__gxx_personality_sj0>
 800464c:	d23e                	sw	a5,36(sp)
 800464e:	0800a7b7          	lui	a5,0x800a
 8004652:	81878793          	addi	a5,a5,-2024 # 8009818 <_GLOBAL__sub_I__ZSt7nothrow+0x1a>
 8004656:	d43e                	sw	a5,40(sp)
 8004658:	009c                	addi	a5,sp,64
 800465a:	d63e                	sw	a5,44(sp)
 800465c:	080047b7          	lui	a5,0x8004
 8004660:	7ee78793          	addi	a5,a5,2030 # 80047ee <_ZN6miosix10mainLoaderEPv+0x1b2>
 8004664:	de86                	sw	ra,124(sp)
 8004666:	d83e                	sw	a5,48(sp)
 8004668:	dca2                	sw	s0,120(sp)
 800466a:	daa6                	sw	s1,116(sp)
 800466c:	d8ca                	sw	s2,112(sp)
 800466e:	d6ce                	sw	s3,108(sp)
 8004670:	d4d2                	sw	s4,104(sp)
 8004672:	d2d6                	sw	s5,100(sp)
 8004674:	d0da                	sw	s6,96(sp)
 8004676:	cede                	sw	s7,92(sp)
 8004678:	cce2                	sw	s8,88(sp)
 800467a:	cae6                	sw	s9,84(sp)
 800467c:	c8ea                	sw	s10,80(sp)
 800467e:	c6ee                	sw	s11,76(sp)
 8004680:	da0a                	sw	sp,52(sp)
 8004682:	00000097          	auipc	ra,0x0
 8004686:	c76080e7          	jalr	-906(ra) # 80042f8 <_Unwind_SjLj_Register>
 800468a:	57fd                	li	a5,-1
 800468c:	c83e                	sw	a5,16(sp)
 800468e:	00002097          	auipc	ra,0x2
 8004692:	8de080e7          	jalr	-1826(ra) # 8005f6c <_ZN6miosix16getMiosixVersionEv>
 8004696:	85aa                	mv	a1,a0
 8004698:	0800a537          	lui	a0,0x800a
 800469c:	f9050513          	addi	a0,a0,-112 # 8009f90 <__clz_tab+0x100>
 80046a0:	00000097          	auipc	ra,0x0
 80046a4:	f4c080e7          	jalr	-180(ra) # 80045ec <_Z7bootlogPKcz>
 80046a8:	00002097          	auipc	ra,0x2
 80046ac:	906080e7          	jalr	-1786(ra) # 8005fae <_ZN6miosix8bspInit2Ev>
 80046b0:	0800a6b7          	lui	a3,0x800a
 80046b4:	0800a7b7          	lui	a5,0x800a
 80046b8:	6fc68713          	addi	a4,a3,1788 # 800a6fc <__init_array_start>
 80046bc:	6fc78793          	addi	a5,a5,1788 # 800a6fc <__init_array_start>
 80046c0:	02f77663          	bgeu	a4,a5,80046ec <_ZN6miosix10mainLoaderEPv+0xb0>
 80046c4:	17fd                	addi	a5,a5,-1
 80046c6:	8f99                	sub	a5,a5,a4
 80046c8:	9bf1                	andi	a5,a5,-4
 80046ca:	0791                	addi	a5,a5,4
 80046cc:	97ba                	add	a5,a5,a4
 80046ce:	c23e                	sw	a5,4(sp)
 80046d0:	6fc68793          	addi	a5,a3,1788
 80046d4:	c03e                	sw	a5,0(sp)
 80046d6:	4702                	lw	a4,0(sp)
 80046d8:	56fd                	li	a3,-1
 80046da:	431c                	lw	a5,0(a4)
 80046dc:	0711                	addi	a4,a4,4
 80046de:	c836                	sw	a3,16(sp)
 80046e0:	c03a                	sw	a4,0(sp)
 80046e2:	9782                	jalr	a5
 80046e4:	4702                	lw	a4,0(sp)
 80046e6:	4792                	lw	a5,4(sp)
 80046e8:	fef717e3          	bne	a4,a5,80046d6 <_ZN6miosix10mainLoaderEPv+0x9a>
 80046ec:	0800a6b7          	lui	a3,0x800a
 80046f0:	0800a7b7          	lui	a5,0x800a
 80046f4:	6fc68713          	addi	a4,a3,1788 # 800a6fc <__init_array_start>
 80046f8:	70878793          	addi	a5,a5,1800 # 800a708 <__exidx_end>
 80046fc:	02f77663          	bgeu	a4,a5,8004728 <_ZN6miosix10mainLoaderEPv+0xec>
 8004700:	17fd                	addi	a5,a5,-1
 8004702:	8f99                	sub	a5,a5,a4
 8004704:	9bf1                	andi	a5,a5,-4
 8004706:	0791                	addi	a5,a5,4
 8004708:	97ba                	add	a5,a5,a4
 800470a:	c23e                	sw	a5,4(sp)
 800470c:	6fc68793          	addi	a5,a3,1788
 8004710:	c03e                	sw	a5,0(sp)
 8004712:	4702                	lw	a4,0(sp)
 8004714:	56fd                	li	a3,-1
 8004716:	431c                	lw	a5,0(a4)
 8004718:	0711                	addi	a4,a4,4
 800471a:	c836                	sw	a3,16(sp)
 800471c:	c03a                	sw	a4,0(sp)
 800471e:	9782                	jalr	a5
 8004720:	4702                	lw	a4,0(sp)
 8004722:	4792                	lw	a5,4(sp)
 8004724:	fef717e3          	bne	a4,a5,8004712 <_ZN6miosix10mainLoaderEPv+0xd6>
 8004728:	0800a6b7          	lui	a3,0x800a
 800472c:	0800a7b7          	lui	a5,0x800a
 8004730:	70868713          	addi	a4,a3,1800 # 800a708 <__exidx_end>
 8004734:	70878793          	addi	a5,a5,1800 # 800a708 <__exidx_end>
 8004738:	02f77663          	bgeu	a4,a5,8004764 <_ZN6miosix10mainLoaderEPv+0x128>
 800473c:	17fd                	addi	a5,a5,-1
 800473e:	8f99                	sub	a5,a5,a4
 8004740:	9bf1                	andi	a5,a5,-4
 8004742:	0791                	addi	a5,a5,4
 8004744:	97ba                	add	a5,a5,a4
 8004746:	c23e                	sw	a5,4(sp)
 8004748:	70868793          	addi	a5,a3,1800
 800474c:	c03e                	sw	a5,0(sp)
 800474e:	4702                	lw	a4,0(sp)
 8004750:	56fd                	li	a3,-1
 8004752:	431c                	lw	a5,0(a4)
 8004754:	0711                	addi	a4,a4,4
 8004756:	c836                	sw	a3,16(sp)
 8004758:	c03a                	sw	a4,0(sp)
 800475a:	9782                	jalr	a5
 800475c:	4702                	lw	a4,0(sp)
 800475e:	4792                	lw	a5,4(sp)
 8004760:	fef717e3          	bne	a4,a5,800474e <_ZN6miosix10mainLoaderEPv+0x112>
 8004764:	57fd                	li	a5,-1
 8004766:	c83e                	sw	a5,16(sp)
 8004768:	00002097          	auipc	ra,0x2
 800476c:	a9e080e7          	jalr	-1378(ra) # 8006206 <_ZN6miosix8internal19osTimerGetFrequencyEv>
 8004770:	85aa                	mv	a1,a0
 8004772:	0800a537          	lui	a0,0x800a
 8004776:	f9850513          	addi	a0,a0,-104 # 8009f98 <__clz_tab+0x108>
 800477a:	00000097          	auipc	ra,0x0
 800477e:	e72080e7          	jalr	-398(ra) # 80045ec <_Z7bootlogPKcz>
 8004782:	00001097          	auipc	ra,0x1
 8004786:	7b6080e7          	jalr	1974(ra) # 8005f38 <_ZN6miosix15MemoryProfiling18getCurrentFreeHeapEv>
 800478a:	c02a                	sw	a0,0(sp)
 800478c:	00001097          	auipc	ra,0x1
 8004790:	798080e7          	jalr	1944(ra) # 8005f24 <_ZN6miosix15MemoryProfiling11getHeapSizeEv>
 8004794:	4582                	lw	a1,0(sp)
 8004796:	862a                	mv	a2,a0
 8004798:	0800a537          	lui	a0,0x800a
 800479c:	fb050513          	addi	a0,a0,-80 # 8009fb0 <__clz_tab+0x120>
 80047a0:	00000097          	auipc	ra,0x0
 80047a4:	e4c080e7          	jalr	-436(ra) # 80045ec <_Z7bootlogPKcz>
 80047a8:	4785                	li	a5,1
 80047aa:	4581                	li	a1,0
 80047ac:	4501                	li	a0,0
 80047ae:	c83e                	sw	a5,16(sp)
 80047b0:	00000097          	auipc	ra,0x0
 80047b4:	d90080e7          	jalr	-624(ra) # 8004540 <main>
 80047b8:	57fd                	li	a5,-1
 80047ba:	c83e                	sw	a5,16(sp)
 80047bc:	00002097          	auipc	ra,0x2
 80047c0:	81c080e7          	jalr	-2020(ra) # 8005fd8 <_ZN6miosix8shutdownEv>
 80047c4:	4522                	lw	a0,8(sp)
 80047c6:	00000097          	auipc	ra,0x0
 80047ca:	b54080e7          	jalr	-1196(ra) # 800431a <_Unwind_SjLj_Unregister>
 80047ce:	50f6                	lw	ra,124(sp)
 80047d0:	5466                	lw	s0,120(sp)
 80047d2:	54d6                	lw	s1,116(sp)
 80047d4:	5946                	lw	s2,112(sp)
 80047d6:	59b6                	lw	s3,108(sp)
 80047d8:	5a26                	lw	s4,104(sp)
 80047da:	5a96                	lw	s5,100(sp)
 80047dc:	5b06                	lw	s6,96(sp)
 80047de:	4bf6                	lw	s7,92(sp)
 80047e0:	4c66                	lw	s8,88(sp)
 80047e2:	4cd6                	lw	s9,84(sp)
 80047e4:	4d46                	lw	s10,80(sp)
 80047e6:	4db6                	lw	s11,76(sp)
 80047e8:	4501                	li	a0,0
 80047ea:	6109                	addi	sp,sp,128
 80047ec:	8082                	ret
 80047ee:	4752                	lw	a4,20(sp)
 80047f0:	47c2                	lw	a5,16(sp)
 80047f2:	c03a                	sw	a4,0(sp)
 80047f4:	4762                	lw	a4,24(sp)
 80047f6:	e3b9                	bnez	a5,800483c <_ZN6miosix10mainLoaderEPv+0x200>
 80047f8:	4785                	li	a5,1
 80047fa:	4502                	lw	a0,0(sp)
 80047fc:	04f71d63          	bne	a4,a5,8004856 <_ZN6miosix10mainLoaderEPv+0x21a>
 8004800:	00003097          	auipc	ra,0x3
 8004804:	20e080e7          	jalr	526(ra) # 8007a0e <__cxa_begin_catch>
 8004808:	87aa                	mv	a5,a0
 800480a:	0800a537          	lui	a0,0x800a
 800480e:	4709                	li	a4,2
 8004810:	fd450513          	addi	a0,a0,-44 # 8009fd4 <__clz_tab+0x144>
 8004814:	c83a                	sw	a4,16(sp)
 8004816:	c03e                	sw	a5,0(sp)
 8004818:	00000097          	auipc	ra,0x0
 800481c:	dfc080e7          	jalr	-516(ra) # 8004614 <_Z8errorLogPKcz>
 8004820:	4502                	lw	a0,0(sp)
 8004822:	411c                	lw	a5,0(a0)
 8004824:	479c                	lw	a5,8(a5)
 8004826:	9782                	jalr	a5
 8004828:	85aa                	mv	a1,a0
 800482a:	0800a537          	lui	a0,0x800a
 800482e:	00450513          	addi	a0,a0,4 # 800a004 <__clz_tab+0x174>
 8004832:	00000097          	auipc	ra,0x0
 8004836:	de2080e7          	jalr	-542(ra) # 8004614 <_Z8errorLogPKcz>
 800483a:	a825                	j	8004872 <_ZN6miosix10mainLoaderEPv+0x236>
 800483c:	17fd                	addi	a5,a5,-1
 800483e:	e3a9                	bnez	a5,8004880 <_ZN6miosix10mainLoaderEPv+0x244>
 8004840:	00003097          	auipc	ra,0x3
 8004844:	24c080e7          	jalr	588(ra) # 8007a8c <__cxa_end_catch>
 8004848:	4502                	lw	a0,0(sp)
 800484a:	57fd                	li	a5,-1
 800484c:	c83e                	sw	a5,16(sp)
 800484e:	00000097          	auipc	ra,0x0
 8004852:	bfe080e7          	jalr	-1026(ra) # 800444c <_Unwind_SjLj_Resume>
 8004856:	00003097          	auipc	ra,0x3
 800485a:	1b8080e7          	jalr	440(ra) # 8007a0e <__cxa_begin_catch>
 800485e:	0800a537          	lui	a0,0x800a
 8004862:	478d                	li	a5,3
 8004864:	fd450513          	addi	a0,a0,-44 # 8009fd4 <__clz_tab+0x144>
 8004868:	c83e                	sw	a5,16(sp)
 800486a:	00000097          	auipc	ra,0x0
 800486e:	daa080e7          	jalr	-598(ra) # 8004614 <_Z8errorLogPKcz>
 8004872:	00003097          	auipc	ra,0x3
 8004876:	21a080e7          	jalr	538(ra) # 8007a8c <__cxa_end_catch>
 800487a:	007c                	addi	a5,sp,12
 800487c:	c43e                	sw	a5,8(sp)
 800487e:	bf2d                	j	80047b8 <_ZN6miosix10mainLoaderEPv+0x17c>
 8004880:	17fd                	addi	a5,a5,-1
 8004882:	ef89                	bnez	a5,800489c <_ZN6miosix10mainLoaderEPv+0x260>
 8004884:	c802                	sw	zero,16(sp)
 8004886:	00003097          	auipc	ra,0x3
 800488a:	206080e7          	jalr	518(ra) # 8007a8c <__cxa_end_catch>
 800488e:	4502                	lw	a0,0(sp)
 8004890:	57fd                	li	a5,-1
 8004892:	c83e                	sw	a5,16(sp)
 8004894:	00000097          	auipc	ra,0x0
 8004898:	bb8080e7          	jalr	-1096(ra) # 800444c <_Unwind_SjLj_Resume>
 800489c:	9002                	ebreak

0800489e <_init>:
 800489e:	080087b7          	lui	a5,0x8008
 80048a2:	715d                	addi	sp,sp,-80
 80048a4:	ec878793          	addi	a5,a5,-312 # 8007ec8 <__gxx_personality_sj0>
 80048a8:	d23e                	sw	a5,36(sp)
 80048aa:	0800a7b7          	lui	a5,0x800a
 80048ae:	83078793          	addi	a5,a5,-2000 # 8009830 <_GLOBAL__sub_I__ZSt7nothrow+0x32>
 80048b2:	d43e                	sw	a5,40(sp)
 80048b4:	009c                	addi	a5,sp,64
 80048b6:	d63e                	sw	a5,44(sp)
 80048b8:	080057b7          	lui	a5,0x8005
 80048bc:	9a478793          	addi	a5,a5,-1628 # 80049a4 <_init+0x106>
 80048c0:	0068                	addi	a0,sp,12
 80048c2:	c686                	sw	ra,76(sp)
 80048c4:	d83e                	sw	a5,48(sp)
 80048c6:	c4a2                	sw	s0,72(sp)
 80048c8:	da0a                	sw	sp,52(sp)
 80048ca:	00000097          	auipc	ra,0x0
 80048ce:	a2e080e7          	jalr	-1490(ra) # 80042f8 <_Unwind_SjLj_Register>
 80048d2:	40011737          	lui	a4,0x40011
 80048d6:	57fd                	li	a5,-1
 80048d8:	80070513          	addi	a0,a4,-2048 # 40010800 <_heap_end+0x20008800>
 80048dc:	460d                	li	a2,3
 80048de:	4589                	li	a1,2
 80048e0:	c83e                	sw	a5,16(sp)
 80048e2:	00002097          	auipc	ra,0x2
 80048e6:	928080e7          	jalr	-1752(ra) # 800620a <_ZN6miosix8GpioBase8modeImplEjhNS_4Mode5Mode_E>
 80048ea:	000407b7          	lui	a5,0x40
 80048ee:	40011737          	lui	a4,0x40011
 80048f2:	80f72823          	sw	a5,-2032(a4) # 40010810 <_heap_end+0x20008810>
 80048f6:	478d                	li	a5,3
 80048f8:	c23e                	sw	a5,4(sp)
 80048fa:	01070793          	addi	a5,a4,16
 80048fe:	c43e                	sw	a5,8(sp)
 8004900:	47a2                	lw	a5,8(sp)
 8004902:	20000737          	lui	a4,0x20000
 8004906:	3e800513          	li	a0,1000
 800490a:	c398                	sw	a4,0(a5)
 800490c:	577d                	li	a4,-1
 800490e:	c83a                	sw	a4,16(sp)
 8004910:	00002097          	auipc	ra,0x2
 8004914:	976080e7          	jalr	-1674(ra) # 8006286 <_ZN6miosix7delayMsEj>
 8004918:	47a2                	lw	a5,8(sp)
 800491a:	6709                	lui	a4,0x2
 800491c:	3e800513          	li	a0,1000
 8004920:	c398                	sw	a4,0(a5)
 8004922:	4792                	lw	a5,4(sp)
 8004924:	17fd                	addi	a5,a5,-1
 8004926:	c23e                	sw	a5,4(sp)
 8004928:	00002097          	auipc	ra,0x2
 800492c:	95e080e7          	jalr	-1698(ra) # 8006286 <_ZN6miosix7delayMsEj>
 8004930:	4792                	lw	a5,4(sp)
 8004932:	f7f9                	bnez	a5,8004900 <_init+0x62>
 8004934:	00001097          	auipc	ra,0x1
 8004938:	642080e7          	jalr	1602(ra) # 8005f76 <_ZN6miosix10IRQbspInitEv>
 800493c:	00002097          	auipc	ra,0x2
 8004940:	8c8080e7          	jalr	-1848(ra) # 8006204 <_ZN6miosix8internal14IRQosTimerInitEv>
 8004944:	00000097          	auipc	ra,0x0
 8004948:	79a080e7          	jalr	1946(ra) # 80050de <_ZN6miosix14DefaultConsole8instanceEv>
 800494c:	4118                	lw	a4,0(a0)
 800494e:	c23a                	sw	a4,4(sp)
 8004950:	c701                	beqz	a4,8004958 <_init+0xba>
 8004952:	435c                	lw	a5,4(a4)
 8004954:	0785                	addi	a5,a5,1
 8004956:	c35c                	sw	a5,4(a4)
 8004958:	4692                	lw	a3,4(sp)
 800495a:	0800a5b7          	lui	a1,0x800a
 800495e:	4705                	li	a4,1
 8004960:	429c                	lw	a5,0(a3)
 8004962:	01058593          	addi	a1,a1,16 # 800a010 <__clz_tab+0x180>
 8004966:	8536                	mv	a0,a3
 8004968:	4bdc                	lw	a5,20(a5)
 800496a:	c83a                	sw	a4,16(sp)
 800496c:	9782                	jalr	a5
 800496e:	4612                	lw	a2,4(sp)
 8004970:	4705                	li	a4,1
 8004972:	4254                	lw	a3,4(a2)
 8004974:	425c                	lw	a5,4(a2)
 8004976:	17fd                	addi	a5,a5,-1
 8004978:	c25c                	sw	a5,4(a2)
 800497a:	00e69663          	bne	a3,a4,8004986 <_init+0xe8>
 800497e:	421c                	lw	a5,0(a2)
 8004980:	8532                	mv	a0,a2
 8004982:	43dc                	lw	a5,4(a5)
 8004984:	9782                	jalr	a5
 8004986:	57fd                	li	a5,-1
 8004988:	c83e                	sw	a5,16(sp)
 800498a:	00002097          	auipc	ra,0x2
 800498e:	106080e7          	jalr	262(ra) # 8006a90 <_ZN6miosix11startKernelEv>
 8004992:	0068                	addi	a0,sp,12
 8004994:	00000097          	auipc	ra,0x0
 8004998:	986080e7          	jalr	-1658(ra) # 800431a <_Unwind_SjLj_Unregister>
 800499c:	40b6                	lw	ra,76(sp)
 800499e:	4426                	lw	s0,72(sp)
 80049a0:	6161                	addi	sp,sp,80
 80049a2:	8082                	ret
 80049a4:	4612                	lw	a2,4(sp)
 80049a6:	4752                	lw	a4,20(sp)
 80049a8:	4254                	lw	a3,4(a2)
 80049aa:	425c                	lw	a5,4(a2)
 80049ac:	c43a                	sw	a4,8(sp)
 80049ae:	4705                	li	a4,1
 80049b0:	17fd                	addi	a5,a5,-1
 80049b2:	c25c                	sw	a5,4(a2)
 80049b4:	00e69663          	bne	a3,a4,80049c0 <_init+0x122>
 80049b8:	421c                	lw	a5,0(a2)
 80049ba:	8532                	mv	a0,a2
 80049bc:	43dc                	lw	a5,4(a5)
 80049be:	9782                	jalr	a5
 80049c0:	4522                	lw	a0,8(sp)
 80049c2:	57fd                	li	a5,-1
 80049c4:	c83e                	sw	a5,16(sp)
 80049c6:	00000097          	auipc	ra,0x0
 80049ca:	a86080e7          	jalr	-1402(ra) # 800444c <_Unwind_SjLj_Resume>

080049ce <_ZN6miosix14TerminalDevice5lseekExi>:
 80049ce:	555d                	li	a0,-9
 80049d0:	55fd                	li	a1,-1
 80049d2:	8082                	ret

080049d4 <_ZNK6miosix14TerminalDevice6isattyEv>:
 80049d4:	4548                	lw	a0,12(a0)
 80049d6:	411c                	lw	a5,0(a0)
 80049d8:	0087a303          	lw	t1,8(a5) # 40008 <_main_stack_size+0x3fc08>
 80049dc:	8302                	jr	t1

080049de <_ZN6miosix14DefaultConsoleD1Ev>:
 80049de:	4108                	lw	a0,0(a0)
 80049e0:	cd01                	beqz	a0,80049f8 <_ZN6miosix14DefaultConsoleD1Ev+0x1a>
 80049e2:	4154                	lw	a3,4(a0)
 80049e4:	415c                	lw	a5,4(a0)
 80049e6:	4705                	li	a4,1
 80049e8:	17fd                	addi	a5,a5,-1
 80049ea:	c15c                	sw	a5,4(a0)
 80049ec:	00e69663          	bne	a3,a4,80049f8 <_ZN6miosix14DefaultConsoleD1Ev+0x1a>
 80049f0:	411c                	lw	a5,0(a0)
 80049f2:	0047a303          	lw	t1,4(a5)
 80049f6:	8302                	jr	t1
 80049f8:	8082                	ret

080049fa <_ZNK6miosix14TerminalDevice5fstatEP4stat>:
 80049fa:	4548                	lw	a0,12(a0)
 80049fc:	00001317          	auipc	t1,0x1
 8004a00:	80030067          	jr	-2048(t1) # 80051fc <_ZNK6miosix6Device5fstatEP4stat>

08004a04 <_ZN6miosix14TerminalDeviceD1Ev>:
 8004a04:	080087b7          	lui	a5,0x8008
 8004a08:	715d                	addi	sp,sp,-80
 8004a0a:	ec878793          	addi	a5,a5,-312 # 8007ec8 <__gxx_personality_sj0>
 8004a0e:	d23e                	sw	a5,36(sp)
 8004a10:	0800a7b7          	lui	a5,0x800a
 8004a14:	83678793          	addi	a5,a5,-1994 # 8009836 <_GLOBAL__sub_I__ZSt7nothrow+0x38>
 8004a18:	c4a2                	sw	s0,72(sp)
 8004a1a:	842a                	mv	s0,a0
 8004a1c:	0068                	addi	a0,sp,12
 8004a1e:	c686                	sw	ra,76(sp)
 8004a20:	d43e                	sw	a5,40(sp)
 8004a22:	00000097          	auipc	ra,0x0
 8004a26:	8d6080e7          	jalr	-1834(ra) # 80042f8 <_Unwind_SjLj_Register>
 8004a2a:	0800a7b7          	lui	a5,0x800a
 8004a2e:	06078793          	addi	a5,a5,96 # 800a060 <_ZTVN6miosix14TerminalDeviceE+0x8>
 8004a32:	c01c                	sw	a5,0(s0)
 8004a34:	01040513          	addi	a0,s0,16
 8004a38:	c802                	sw	zero,16(sp)
 8004a3a:	00002097          	auipc	ra,0x2
 8004a3e:	3cc080e7          	jalr	972(ra) # 8006e06 <pthread_mutex_destroy>
 8004a42:	4448                	lw	a0,12(s0)
 8004a44:	c919                	beqz	a0,8004a5a <_ZN6miosix14TerminalDeviceD1Ev+0x56>
 8004a46:	4154                	lw	a3,4(a0)
 8004a48:	415c                	lw	a5,4(a0)
 8004a4a:	4705                	li	a4,1
 8004a4c:	17fd                	addi	a5,a5,-1
 8004a4e:	c15c                	sw	a5,4(a0)
 8004a50:	00e69563          	bne	a3,a4,8004a5a <_ZN6miosix14TerminalDeviceD1Ev+0x56>
 8004a54:	411c                	lw	a5,0(a0)
 8004a56:	43dc                	lw	a5,4(a5)
 8004a58:	9782                	jalr	a5
 8004a5a:	8522                	mv	a0,s0
 8004a5c:	00003097          	auipc	ra,0x3
 8004a60:	cb8080e7          	jalr	-840(ra) # 8007714 <_ZN6miosix8FileBaseD1Ev>
 8004a64:	0068                	addi	a0,sp,12
 8004a66:	00000097          	auipc	ra,0x0
 8004a6a:	8b4080e7          	jalr	-1868(ra) # 800431a <_Unwind_SjLj_Unregister>
 8004a6e:	40b6                	lw	ra,76(sp)
 8004a70:	4426                	lw	s0,72(sp)
 8004a72:	6161                	addi	sp,sp,80
 8004a74:	8082                	ret

08004a76 <_ZN6miosix14TerminalDevice5writeEPKvj>:
 8004a76:	02554783          	lbu	a5,37(a0)
 8004a7a:	1101                	addi	sp,sp,-32
 8004a7c:	ca26                	sw	s1,20(sp)
 8004a7e:	ce06                	sw	ra,28(sp)
 8004a80:	cc22                	sw	s0,24(sp)
 8004a82:	c84a                	sw	s2,16(sp)
 8004a84:	c64e                	sw	s3,12(sp)
 8004a86:	c452                	sw	s4,8(sp)
 8004a88:	c256                	sw	s5,4(sp)
 8004a8a:	84aa                	mv	s1,a0
 8004a8c:	c385                	beqz	a5,8004aac <_ZN6miosix14TerminalDevice5writeEPKvj+0x36>
 8004a8e:	4548                	lw	a0,12(a0)
 8004a90:	4462                	lw	s0,24(sp)
 8004a92:	40f2                	lw	ra,28(sp)
 8004a94:	411c                	lw	a5,0(a0)
 8004a96:	44d2                	lw	s1,20(sp)
 8004a98:	4942                	lw	s2,16(sp)
 8004a9a:	49b2                	lw	s3,12(sp)
 8004a9c:	4a22                	lw	s4,8(sp)
 8004a9e:	4a92                	lw	s5,4(sp)
 8004aa0:	0107a303          	lw	t1,16(a5)
 8004aa4:	4681                	li	a3,0
 8004aa6:	4701                	li	a4,0
 8004aa8:	6105                	addi	sp,sp,32
 8004aaa:	8302                	jr	t1
 8004aac:	882e                	mv	a6,a1
 8004aae:	8a32                	mv	s4,a2
 8004ab0:	842e                	mv	s0,a1
 8004ab2:	00b609b3          	add	s3,a2,a1
 8004ab6:	4929                	li	s2,10
 8004ab8:	0800aab7          	lui	s5,0x800a
 8004abc:	c235                	beqz	a2,8004b20 <_ZN6miosix14TerminalDevice5writeEPKvj+0xaa>
 8004abe:	00044703          	lbu	a4,0(s0)
 8004ac2:	00140613          	addi	a2,s0,1
 8004ac6:	03271d63          	bne	a4,s2,8004b00 <_ZN6miosix14TerminalDevice5writeEPKvj+0x8a>
 8004aca:	44c8                	lw	a0,12(s1)
 8004acc:	41040633          	sub	a2,s0,a6
 8004ad0:	85c2                	mv	a1,a6
 8004ad2:	411c                	lw	a5,0(a0)
 8004ad4:	4681                	li	a3,0
 8004ad6:	4701                	li	a4,0
 8004ad8:	4b9c                	lw	a5,16(a5)
 8004ada:	00887863          	bgeu	a6,s0,8004aea <_ZN6miosix14TerminalDevice5writeEPKvj+0x74>
 8004ade:	9782                	jalr	a5
 8004ae0:	04a05163          	blez	a0,8004b22 <_ZN6miosix14TerminalDevice5writeEPKvj+0xac>
 8004ae4:	44c8                	lw	a0,12(s1)
 8004ae6:	411c                	lw	a5,0(a0)
 8004ae8:	4b9c                	lw	a5,16(a5)
 8004aea:	4609                	li	a2,2
 8004aec:	4681                	li	a3,0
 8004aee:	4701                	li	a4,0
 8004af0:	194a8593          	addi	a1,s5,404 # 800a194 <_ZTVN6miosix6DeviceE+0x5c>
 8004af4:	9782                	jalr	a5
 8004af6:	00140613          	addi	a2,s0,1
 8004afa:	02a05463          	blez	a0,8004b22 <_ZN6miosix14TerminalDevice5writeEPKvj+0xac>
 8004afe:	8832                	mv	a6,a2
 8004b00:	8432                	mv	s0,a2
 8004b02:	fb361ee3          	bne	a2,s3,8004abe <_ZN6miosix14TerminalDevice5writeEPKvj+0x48>
 8004b06:	00c87d63          	bgeu	a6,a2,8004b20 <_ZN6miosix14TerminalDevice5writeEPKvj+0xaa>
 8004b0a:	44c8                	lw	a0,12(s1)
 8004b0c:	4681                	li	a3,0
 8004b0e:	4701                	li	a4,0
 8004b10:	411c                	lw	a5,0(a0)
 8004b12:	41060633          	sub	a2,a2,a6
 8004b16:	85c2                	mv	a1,a6
 8004b18:	4b9c                	lw	a5,16(a5)
 8004b1a:	9782                	jalr	a5
 8004b1c:	00a05363          	blez	a0,8004b22 <_ZN6miosix14TerminalDevice5writeEPKvj+0xac>
 8004b20:	8552                	mv	a0,s4
 8004b22:	40f2                	lw	ra,28(sp)
 8004b24:	4462                	lw	s0,24(sp)
 8004b26:	44d2                	lw	s1,20(sp)
 8004b28:	4942                	lw	s2,16(sp)
 8004b2a:	49b2                	lw	s3,12(sp)
 8004b2c:	4a22                	lw	s4,8(sp)
 8004b2e:	4a92                	lw	s5,4(sp)
 8004b30:	6105                	addi	sp,sp,32
 8004b32:	8082                	ret

08004b34 <_ZN6miosix14TerminalDevice5ioctlEiPv>:
 8004b34:	1141                	addi	sp,sp,-16
 8004b36:	c422                	sw	s0,8(sp)
 8004b38:	842a                	mv	s0,a0
 8004b3a:	4548                	lw	a0,12(a0)
 8004b3c:	c226                	sw	s1,4(sp)
 8004b3e:	c04a                	sw	s2,0(sp)
 8004b40:	411c                	lw	a5,0(a0)
 8004b42:	c606                	sw	ra,12(sp)
 8004b44:	84ae                	mv	s1,a1
 8004b46:	4f9c                	lw	a5,24(a5)
 8004b48:	8932                	mv	s2,a2
 8004b4a:	9782                	jalr	a5
 8004b4c:	e13d                	bnez	a0,8004bb2 <_ZN6miosix14TerminalDevice5ioctlEiPv+0x7e>
 8004b4e:	06500793          	li	a5,101
 8004b52:	02f48a63          	beq	s1,a5,8004b86 <_ZN6miosix14TerminalDevice5ioctlEiPv+0x52>
 8004b56:	f9a48493          	addi	s1,s1,-102
 8004b5a:	4789                	li	a5,2
 8004b5c:	0097ef63          	bltu	a5,s1,8004b7a <_ZN6miosix14TerminalDevice5ioctlEiPv+0x46>
 8004b60:	00c92783          	lw	a5,12(s2)
 8004b64:	0017d713          	srli	a4,a5,0x1
 8004b68:	00174713          	xori	a4,a4,1
 8004b6c:	838d                	srli	a5,a5,0x3
 8004b6e:	8b85                	andi	a5,a5,1
 8004b70:	8b05                	andi	a4,a4,1
 8004b72:	02f40223          	sb	a5,36(s0)
 8004b76:	02e402a3          	sb	a4,37(s0)
 8004b7a:	40b2                	lw	ra,12(sp)
 8004b7c:	4422                	lw	s0,8(sp)
 8004b7e:	4492                	lw	s1,4(sp)
 8004b80:	4902                	lw	s2,0(sp)
 8004b82:	0141                	addi	sp,sp,16
 8004b84:	8082                	ret
 8004b86:	00c92703          	lw	a4,12(s2)
 8004b8a:	02444683          	lbu	a3,36(s0)
 8004b8e:	ff777793          	andi	a5,a4,-9
 8004b92:	c299                	beqz	a3,8004b98 <_ZN6miosix14TerminalDevice5ioctlEiPv+0x64>
 8004b94:	00876793          	ori	a5,a4,8
 8004b98:	02544703          	lbu	a4,37(s0)
 8004b9c:	e315                	bnez	a4,8004bc0 <_ZN6miosix14TerminalDevice5ioctlEiPv+0x8c>
 8004b9e:	40b2                	lw	ra,12(sp)
 8004ba0:	4422                	lw	s0,8(sp)
 8004ba2:	0027e793          	ori	a5,a5,2
 8004ba6:	00f92623          	sw	a5,12(s2)
 8004baa:	4492                	lw	s1,4(sp)
 8004bac:	4902                	lw	s2,0(sp)
 8004bae:	0141                	addi	sp,sp,16
 8004bb0:	8082                	ret
 8004bb2:	40b2                	lw	ra,12(sp)
 8004bb4:	4422                	lw	s0,8(sp)
 8004bb6:	4492                	lw	s1,4(sp)
 8004bb8:	4902                	lw	s2,0(sp)
 8004bba:	4505                	li	a0,1
 8004bbc:	0141                	addi	sp,sp,16
 8004bbe:	8082                	ret
 8004bc0:	40b2                	lw	ra,12(sp)
 8004bc2:	4422                	lw	s0,8(sp)
 8004bc4:	9bf5                	andi	a5,a5,-3
 8004bc6:	00f92623          	sw	a5,12(s2)
 8004bca:	4492                	lw	s1,4(sp)
 8004bcc:	4902                	lw	s2,0(sp)
 8004bce:	0141                	addi	sp,sp,16
 8004bd0:	8082                	ret

08004bd2 <_ZN6miosix14TerminalDeviceD0Ev>:
 8004bd2:	080087b7          	lui	a5,0x8008
 8004bd6:	715d                	addi	sp,sp,-80
 8004bd8:	ec878793          	addi	a5,a5,-312 # 8007ec8 <__gxx_personality_sj0>
 8004bdc:	d23e                	sw	a5,36(sp)
 8004bde:	0800a7b7          	lui	a5,0x800a
 8004be2:	83a78793          	addi	a5,a5,-1990 # 800983a <_GLOBAL__sub_I__ZSt7nothrow+0x3c>
 8004be6:	c4a2                	sw	s0,72(sp)
 8004be8:	842a                	mv	s0,a0
 8004bea:	0068                	addi	a0,sp,12
 8004bec:	c686                	sw	ra,76(sp)
 8004bee:	d43e                	sw	a5,40(sp)
 8004bf0:	fffff097          	auipc	ra,0xfffff
 8004bf4:	708080e7          	jalr	1800(ra) # 80042f8 <_Unwind_SjLj_Register>
 8004bf8:	0800a7b7          	lui	a5,0x800a
 8004bfc:	06078793          	addi	a5,a5,96 # 800a060 <_ZTVN6miosix14TerminalDeviceE+0x8>
 8004c00:	c01c                	sw	a5,0(s0)
 8004c02:	01040513          	addi	a0,s0,16
 8004c06:	c802                	sw	zero,16(sp)
 8004c08:	00002097          	auipc	ra,0x2
 8004c0c:	1fe080e7          	jalr	510(ra) # 8006e06 <pthread_mutex_destroy>
 8004c10:	4448                	lw	a0,12(s0)
 8004c12:	c919                	beqz	a0,8004c28 <_ZN6miosix14TerminalDeviceD0Ev+0x56>
 8004c14:	4154                	lw	a3,4(a0)
 8004c16:	415c                	lw	a5,4(a0)
 8004c18:	4705                	li	a4,1
 8004c1a:	17fd                	addi	a5,a5,-1
 8004c1c:	c15c                	sw	a5,4(a0)
 8004c1e:	00e69563          	bne	a3,a4,8004c28 <_ZN6miosix14TerminalDeviceD0Ev+0x56>
 8004c22:	411c                	lw	a5,0(a0)
 8004c24:	43dc                	lw	a5,4(a5)
 8004c26:	9782                	jalr	a5
 8004c28:	8522                	mv	a0,s0
 8004c2a:	00003097          	auipc	ra,0x3
 8004c2e:	aea080e7          	jalr	-1302(ra) # 8007714 <_ZN6miosix8FileBaseD1Ev>
 8004c32:	8522                	mv	a0,s0
 8004c34:	02800593          	li	a1,40
 8004c38:	00003097          	auipc	ra,0x3
 8004c3c:	dc6080e7          	jalr	-570(ra) # 80079fe <_ZdlPvj>
 8004c40:	0068                	addi	a0,sp,12
 8004c42:	fffff097          	auipc	ra,0xfffff
 8004c46:	6d8080e7          	jalr	1752(ra) # 800431a <_Unwind_SjLj_Unregister>
 8004c4a:	40b6                	lw	ra,76(sp)
 8004c4c:	4426                	lw	s0,72(sp)
 8004c4e:	6161                	addi	sp,sp,80
 8004c50:	8082                	ret

08004c52 <_ZN6miosix9FastMutexC1ENS0_7OptionsE>:
 8004c52:	1101                	addi	sp,sp,-32
 8004c54:	ce06                	sw	ra,28(sp)
 8004c56:	cc22                	sw	s0,24(sp)
 8004c58:	4785                	li	a5,1
 8004c5a:	00f58b63          	beq	a1,a5,8004c70 <_ZN6miosix9FastMutexC1ENS0_7OptionsE+0x1e>
 8004c5e:	4581                	li	a1,0
 8004c60:	00002097          	auipc	ra,0x2
 8004c64:	182080e7          	jalr	386(ra) # 8006de2 <pthread_mutex_init>
 8004c68:	40f2                	lw	ra,28(sp)
 8004c6a:	4462                	lw	s0,24(sp)
 8004c6c:	6105                	addi	sp,sp,32
 8004c6e:	8082                	ret
 8004c70:	842a                	mv	s0,a0
 8004c72:	0048                	addi	a0,sp,4
 8004c74:	00002097          	auipc	ra,0x2
 8004c78:	14c080e7          	jalr	332(ra) # 8006dc0 <pthread_mutexattr_init>
 8004c7c:	0048                	addi	a0,sp,4
 8004c7e:	4585                	li	a1,1
 8004c80:	00002097          	auipc	ra,0x2
 8004c84:	14c080e7          	jalr	332(ra) # 8006dcc <pthread_mutexattr_settype>
 8004c88:	004c                	addi	a1,sp,4
 8004c8a:	8522                	mv	a0,s0
 8004c8c:	00002097          	auipc	ra,0x2
 8004c90:	156080e7          	jalr	342(ra) # 8006de2 <pthread_mutex_init>
 8004c94:	0048                	addi	a0,sp,4
 8004c96:	00002097          	auipc	ra,0x2
 8004c9a:	132080e7          	jalr	306(ra) # 8006dc8 <pthread_mutexattr_destroy>
 8004c9e:	40f2                	lw	ra,28(sp)
 8004ca0:	4462                	lw	s0,24(sp)
 8004ca2:	6105                	addi	sp,sp,32
 8004ca4:	8082                	ret

08004ca6 <_ZN6miosix14TerminalDeviceC1ENS_17intrusive_ref_ptrINS_6DeviceEEE>:
 8004ca6:	080087b7          	lui	a5,0x8008
 8004caa:	711d                	addi	sp,sp,-96
 8004cac:	ec878793          	addi	a5,a5,-312 # 8007ec8 <__gxx_personality_sj0>
 8004cb0:	d23e                	sw	a5,36(sp)
 8004cb2:	0800a7b7          	lui	a5,0x800a
 8004cb6:	83e78793          	addi	a5,a5,-1986 # 800983e <_GLOBAL__sub_I__ZSt7nothrow+0x40>
 8004cba:	d43e                	sw	a5,40(sp)
 8004cbc:	089c                	addi	a5,sp,80
 8004cbe:	d63e                	sw	a5,44(sp)
 8004cc0:	080057b7          	lui	a5,0x8005
 8004cc4:	872a                	mv	a4,a0
 8004cc6:	d5878793          	addi	a5,a5,-680 # 8004d58 <_ZN6miosix14TerminalDeviceC1ENS_17intrusive_ref_ptrINS_6DeviceEEE+0xb2>
 8004cca:	0068                	addi	a0,sp,12
 8004ccc:	d83e                	sw	a5,48(sp)
 8004cce:	c42e                	sw	a1,8(sp)
 8004cd0:	ce86                	sw	ra,92(sp)
 8004cd2:	cca2                	sw	s0,88(sp)
 8004cd4:	da0a                	sw	sp,52(sp)
 8004cd6:	c23a                	sw	a4,4(sp)
 8004cd8:	fffff097          	auipc	ra,0xfffff
 8004cdc:	620080e7          	jalr	1568(ra) # 80042f8 <_Unwind_SjLj_Register>
 8004ce0:	4512                	lw	a0,4(sp)
 8004ce2:	4785                	li	a5,1
 8004ce4:	00ec                	addi	a1,sp,76
 8004ce6:	c682                	sw	zero,76(sp)
 8004ce8:	c83e                	sw	a5,16(sp)
 8004cea:	00003097          	auipc	ra,0x3
 8004cee:	a08080e7          	jalr	-1528(ra) # 80076f2 <_ZN6miosix8FileBaseC1ENS_17intrusive_ref_ptrINS_14FilesystemBaseEEE>
 8004cf2:	4536                	lw	a0,76(sp)
 8004cf4:	c901                	beqz	a0,8004d04 <_ZN6miosix14TerminalDeviceC1ENS_17intrusive_ref_ptrINS_6DeviceEEE+0x5e>
 8004cf6:	4154                	lw	a3,4(a0)
 8004cf8:	415c                	lw	a5,4(a0)
 8004cfa:	4705                	li	a4,1
 8004cfc:	17fd                	addi	a5,a5,-1
 8004cfe:	c15c                	sw	a5,4(a0)
 8004d00:	04e68863          	beq	a3,a4,8004d50 <_ZN6miosix14TerminalDeviceC1ENS_17intrusive_ref_ptrINS_6DeviceEEE+0xaa>
 8004d04:	47a2                	lw	a5,8(sp)
 8004d06:	4692                	lw	a3,4(sp)
 8004d08:	0800a737          	lui	a4,0x800a
 8004d0c:	439c                	lw	a5,0(a5)
 8004d0e:	06070713          	addi	a4,a4,96 # 800a060 <_ZTVN6miosix14TerminalDeviceE+0x8>
 8004d12:	c298                	sw	a4,0(a3)
 8004d14:	c6dc                	sw	a5,12(a3)
 8004d16:	c781                	beqz	a5,8004d1e <_ZN6miosix14TerminalDeviceC1ENS_17intrusive_ref_ptrINS_6DeviceEEE+0x78>
 8004d18:	43d8                	lw	a4,4(a5)
 8004d1a:	0705                	addi	a4,a4,1
 8004d1c:	c3d8                	sw	a4,4(a5)
 8004d1e:	4789                	li	a5,2
 8004d20:	c83e                	sw	a5,16(sp)
 8004d22:	4792                	lw	a5,4(sp)
 8004d24:	4581                	li	a1,0
 8004d26:	01078513          	addi	a0,a5,16
 8004d2a:	00000097          	auipc	ra,0x0
 8004d2e:	f28080e7          	jalr	-216(ra) # 8004c52 <_ZN6miosix9FastMutexC1ENS0_7OptionsE>
 8004d32:	4712                	lw	a4,4(sp)
 8004d34:	4785                	li	a5,1
 8004d36:	0068                	addi	a0,sp,12
 8004d38:	02f71223          	sh	a5,36(a4)
 8004d3c:	02070323          	sb	zero,38(a4)
 8004d40:	fffff097          	auipc	ra,0xfffff
 8004d44:	5da080e7          	jalr	1498(ra) # 800431a <_Unwind_SjLj_Unregister>
 8004d48:	40f6                	lw	ra,92(sp)
 8004d4a:	4466                	lw	s0,88(sp)
 8004d4c:	6125                	addi	sp,sp,96
 8004d4e:	8082                	ret
 8004d50:	411c                	lw	a5,0(a0)
 8004d52:	43dc                	lw	a5,4(a5)
 8004d54:	9782                	jalr	a5
 8004d56:	b77d                	j	8004d04 <_ZN6miosix14TerminalDeviceC1ENS_17intrusive_ref_ptrINS_6DeviceEEE+0x5e>
 8004d58:	4752                	lw	a4,20(sp)
 8004d5a:	47c2                	lw	a5,16(sp)
 8004d5c:	c43a                	sw	a4,8(sp)
 8004d5e:	eb91                	bnez	a5,8004d72 <_ZN6miosix14TerminalDeviceC1ENS_17intrusive_ref_ptrINS_6DeviceEEE+0xcc>
 8004d60:	4536                	lw	a0,76(sp)
 8004d62:	e11d                	bnez	a0,8004d88 <_ZN6miosix14TerminalDeviceC1ENS_17intrusive_ref_ptrINS_6DeviceEEE+0xe2>
 8004d64:	4522                	lw	a0,8(sp)
 8004d66:	57fd                	li	a5,-1
 8004d68:	c83e                	sw	a5,16(sp)
 8004d6a:	fffff097          	auipc	ra,0xfffff
 8004d6e:	6e2080e7          	jalr	1762(ra) # 800444c <_Unwind_SjLj_Resume>
 8004d72:	17fd                	addi	a5,a5,-1
 8004d74:	e78d                	bnez	a5,8004d9e <_ZN6miosix14TerminalDeviceC1ENS_17intrusive_ref_ptrINS_6DeviceEEE+0xf8>
 8004d76:	4792                	lw	a5,4(sp)
 8004d78:	47c8                	lw	a0,12(a5)
 8004d7a:	e11d                	bnez	a0,8004da0 <_ZN6miosix14TerminalDeviceC1ENS_17intrusive_ref_ptrINS_6DeviceEEE+0xfa>
 8004d7c:	4512                	lw	a0,4(sp)
 8004d7e:	00003097          	auipc	ra,0x3
 8004d82:	996080e7          	jalr	-1642(ra) # 8007714 <_ZN6miosix8FileBaseD1Ev>
 8004d86:	bff9                	j	8004d64 <_ZN6miosix14TerminalDeviceC1ENS_17intrusive_ref_ptrINS_6DeviceEEE+0xbe>
 8004d88:	4154                	lw	a3,4(a0)
 8004d8a:	415c                	lw	a5,4(a0)
 8004d8c:	4705                	li	a4,1
 8004d8e:	17fd                	addi	a5,a5,-1
 8004d90:	c15c                	sw	a5,4(a0)
 8004d92:	fce699e3          	bne	a3,a4,8004d64 <_ZN6miosix14TerminalDeviceC1ENS_17intrusive_ref_ptrINS_6DeviceEEE+0xbe>
 8004d96:	411c                	lw	a5,0(a0)
 8004d98:	43dc                	lw	a5,4(a5)
 8004d9a:	9782                	jalr	a5
 8004d9c:	b7e1                	j	8004d64 <_ZN6miosix14TerminalDeviceC1ENS_17intrusive_ref_ptrINS_6DeviceEEE+0xbe>
 8004d9e:	9002                	ebreak
 8004da0:	4154                	lw	a3,4(a0)
 8004da2:	415c                	lw	a5,4(a0)
 8004da4:	4705                	li	a4,1
 8004da6:	17fd                	addi	a5,a5,-1
 8004da8:	c15c                	sw	a5,4(a0)
 8004daa:	fce699e3          	bne	a3,a4,8004d7c <_ZN6miosix14TerminalDeviceC1ENS_17intrusive_ref_ptrINS_6DeviceEEE+0xd6>
 8004dae:	411c                	lw	a5,0(a0)
 8004db0:	43dc                	lw	a5,4(a5)
 8004db2:	9782                	jalr	a5
 8004db4:	b7e1                	j	8004d7c <_ZN6miosix14TerminalDeviceC1ENS_17intrusive_ref_ptrINS_6DeviceEEE+0xd6>

08004db6 <_ZN6miosix14TerminalDevice8echoBackEPKcS2_j>:
 8004db6:	02454783          	lbu	a5,36(a0)
 8004dba:	c3a5                	beqz	a5,8004e1a <_ZN6miosix14TerminalDevice8echoBackEPKcS2_j+0x64>
 8004dbc:	1101                	addi	sp,sp,-32
 8004dbe:	ca26                	sw	s1,20(sp)
 8004dc0:	84ae                	mv	s1,a1
 8004dc2:	510c                	lw	a1,32(a0)
 8004dc4:	cc22                	sw	s0,24(sp)
 8004dc6:	c84a                	sw	s2,16(sp)
 8004dc8:	c64e                	sw	s3,12(sp)
 8004dca:	ce06                	sw	ra,28(sp)
 8004dcc:	842a                	mv	s0,a0
 8004dce:	8932                	mv	s2,a2
 8004dd0:	89b6                	mv	s3,a3
 8004dd2:	0095fa63          	bgeu	a1,s1,8004de6 <_ZN6miosix14TerminalDevice8echoBackEPKcS2_j+0x30>
 8004dd6:	4548                	lw	a0,12(a0)
 8004dd8:	4681                	li	a3,0
 8004dda:	4701                	li	a4,0
 8004ddc:	411c                	lw	a5,0(a0)
 8004dde:	40b48633          	sub	a2,s1,a1
 8004de2:	4b9c                	lw	a5,16(a5)
 8004de4:	9782                	jalr	a5
 8004de6:	0485                	addi	s1,s1,1
 8004de8:	d004                	sw	s1,32(s0)
 8004dea:	02090163          	beqz	s2,8004e0c <_ZN6miosix14TerminalDevice8echoBackEPKcS2_j+0x56>
 8004dee:	4448                	lw	a0,12(s0)
 8004df0:	4462                	lw	s0,24(sp)
 8004df2:	40f2                	lw	ra,28(sp)
 8004df4:	411c                	lw	a5,0(a0)
 8004df6:	44d2                	lw	s1,20(sp)
 8004df8:	864e                	mv	a2,s3
 8004dfa:	0107a303          	lw	t1,16(a5)
 8004dfe:	49b2                	lw	s3,12(sp)
 8004e00:	85ca                	mv	a1,s2
 8004e02:	4942                	lw	s2,16(sp)
 8004e04:	4681                	li	a3,0
 8004e06:	4701                	li	a4,0
 8004e08:	6105                	addi	sp,sp,32
 8004e0a:	8302                	jr	t1
 8004e0c:	40f2                	lw	ra,28(sp)
 8004e0e:	4462                	lw	s0,24(sp)
 8004e10:	44d2                	lw	s1,20(sp)
 8004e12:	4942                	lw	s2,16(sp)
 8004e14:	49b2                	lw	s3,12(sp)
 8004e16:	6105                	addi	sp,sp,32
 8004e18:	8082                	ret
 8004e1a:	8082                	ret

08004e1c <_ZN6miosix14TerminalDevice9normalizeEPcii>:
 8004e1c:	715d                	addi	sp,sp,-80
 8004e1e:	c4a2                	sw	s0,72(sp)
 8004e20:	c0ca                	sw	s2,64(sp)
 8004e22:	d06a                	sw	s10,32(sp)
 8004e24:	c686                	sw	ra,76(sp)
 8004e26:	c2a6                	sw	s1,68(sp)
 8004e28:	de4e                	sw	s3,60(sp)
 8004e2a:	dc52                	sw	s4,56(sp)
 8004e2c:	da56                	sw	s5,52(sp)
 8004e2e:	d85a                	sw	s6,48(sp)
 8004e30:	d65e                	sw	s7,44(sp)
 8004e32:	d462                	sw	s8,40(sp)
 8004e34:	d266                	sw	s9,36(sp)
 8004e36:	ce6e                	sw	s11,28(sp)
 8004e38:	00c58433          	add	s0,a1,a2
 8004e3c:	d100                	sw	s0,32(a0)
 8004e3e:	8d2a                	mv	s10,a0
 8004e40:	8936                	mv	s2,a3
 8004e42:	12d65363          	bge	a2,a3,8004f68 <_ZN6miosix14TerminalDevice9normalizeEPcii+0x14c>
 8004e46:	84b2                	mv	s1,a2
 8004e48:	4a81                	li	s5,0
 8004e4a:	4db5                	li	s11,13
 8004e4c:	4ca9                	li	s9,10
 8004e4e:	0800ab37          	lui	s6,0x800a
 8004e52:	07f00a13          	li	s4,127
 8004e56:	49a1                	li	s3,8
 8004e58:	00044783          	lbu	a5,0(s0)
 8004e5c:	00140b93          	addi	s7,s0,1
 8004e60:	0db78163          	beq	a5,s11,8004f22 <_ZN6miosix14TerminalDevice9normalizeEPcii+0x106>
 8004e64:	06fde363          	bltu	s11,a5,8004eca <_ZN6miosix14TerminalDevice9normalizeEPcii+0xae>
 8004e68:	07378a63          	beq	a5,s3,8004edc <_ZN6miosix14TerminalDevice9normalizeEPcii+0xc0>
 8004e6c:	4729                	li	a4,10
 8004e6e:	06e79063          	bne	a5,a4,8004ece <_ZN6miosix14TerminalDevice9normalizeEPcii+0xb2>
 8004e72:	026d4783          	lbu	a5,38(s10)
 8004e76:	cbf1                	beqz	a5,8004f4a <_ZN6miosix14TerminalDevice9normalizeEPcii+0x12e>
 8004e78:	40990633          	sub	a2,s2,s1
 8004e7c:	020d0323          	sb	zero,38(s10)
 8004e80:	167d                	addi	a2,a2,-1
 8004e82:	85de                	mv	a1,s7
 8004e84:	8522                	mv	a0,s0
 8004e86:	197d                	addi	s2,s2,-1
 8004e88:	ffffc097          	auipc	ra,0xffffc
 8004e8c:	2bc080e7          	jalr	700(ra) # 8001144 <memmove>
 8004e90:	fd24c4e3          	blt	s1,s2,8004e58 <_ZN6miosix14TerminalDevice9normalizeEPcii+0x3c>
 8004e94:	85a2                	mv	a1,s0
 8004e96:	856a                	mv	a0,s10
 8004e98:	4681                	li	a3,0
 8004e9a:	4601                	li	a2,0
 8004e9c:	00000097          	auipc	ra,0x0
 8004ea0:	f1a080e7          	jalr	-230(ra) # 8004db6 <_ZN6miosix14TerminalDevice8echoBackEPKcS2_j>
 8004ea4:	40b6                	lw	ra,76(sp)
 8004ea6:	4426                	lw	s0,72(sp)
 8004ea8:	01510623          	sb	s5,12(sp)
 8004eac:	45b2                	lw	a1,12(sp)
 8004eae:	4496                	lw	s1,68(sp)
 8004eb0:	59f2                	lw	s3,60(sp)
 8004eb2:	5a62                	lw	s4,56(sp)
 8004eb4:	5ad2                	lw	s5,52(sp)
 8004eb6:	5b42                	lw	s6,48(sp)
 8004eb8:	5bb2                	lw	s7,44(sp)
 8004eba:	5c22                	lw	s8,40(sp)
 8004ebc:	5c92                	lw	s9,36(sp)
 8004ebe:	5d02                	lw	s10,32(sp)
 8004ec0:	4df2                	lw	s11,28(sp)
 8004ec2:	854a                	mv	a0,s2
 8004ec4:	4906                	lw	s2,64(sp)
 8004ec6:	6161                	addi	sp,sp,80
 8004ec8:	8082                	ret
 8004eca:	01478963          	beq	a5,s4,8004edc <_ZN6miosix14TerminalDevice9normalizeEPcii+0xc0>
 8004ece:	020d0323          	sb	zero,38(s10)
 8004ed2:	0485                	addi	s1,s1,1
 8004ed4:	845e                	mv	s0,s7
 8004ed6:	f924c1e3          	blt	s1,s2,8004e58 <_ZN6miosix14TerminalDevice9normalizeEPcii+0x3c>
 8004eda:	bf6d                	j	8004e94 <_ZN6miosix14TerminalDevice9normalizeEPcii+0x78>
 8004edc:	0800a7b7          	lui	a5,0x800a
 8004ee0:	02478613          	addi	a2,a5,36 # 800a024 <__clz_tab+0x194>
 8004ee4:	46a5                	li	a3,9
 8004ee6:	85a2                	mv	a1,s0
 8004ee8:	856a                	mv	a0,s10
 8004eea:	00000097          	auipc	ra,0x0
 8004eee:	ecc080e7          	jalr	-308(ra) # 8004db6 <_ZN6miosix14TerminalDevice8echoBackEPKcS2_j>
 8004ef2:	fff40793          	addi	a5,s0,-1
 8004ef6:	4c05                	li	s8,1
 8004ef8:	c099                	beqz	s1,8004efe <_ZN6miosix14TerminalDevice9normalizeEPcii+0xe2>
 8004efa:	843e                	mv	s0,a5
 8004efc:	4c09                	li	s8,2
 8004efe:	40990633          	sub	a2,s2,s1
 8004f02:	85de                	mv	a1,s7
 8004f04:	8522                	mv	a0,s0
 8004f06:	418484b3          	sub	s1,s1,s8
 8004f0a:	ffffc097          	auipc	ra,0xffffc
 8004f0e:	23a080e7          	jalr	570(ra) # 8001144 <memmove>
 8004f12:	41890933          	sub	s2,s2,s8
 8004f16:	028d2023          	sw	s0,32(s10)
 8004f1a:	0485                	addi	s1,s1,1
 8004f1c:	f324cee3          	blt	s1,s2,8004e58 <_ZN6miosix14TerminalDevice9normalizeEPcii+0x3c>
 8004f20:	bf95                	j	8004e94 <_ZN6miosix14TerminalDevice9normalizeEPcii+0x78>
 8004f22:	01940023          	sb	s9,0(s0)
 8004f26:	85a2                	mv	a1,s0
 8004f28:	4689                	li	a3,2
 8004f2a:	194b0613          	addi	a2,s6,404 # 800a194 <_ZTVN6miosix6DeviceE+0x5c>
 8004f2e:	856a                	mv	a0,s10
 8004f30:	00000097          	auipc	ra,0x0
 8004f34:	e86080e7          	jalr	-378(ra) # 8004db6 <_ZN6miosix14TerminalDevice8echoBackEPKcS2_j>
 8004f38:	4785                	li	a5,1
 8004f3a:	0485                	addi	s1,s1,1
 8004f3c:	02fd0323          	sb	a5,38(s10)
 8004f40:	845e                	mv	s0,s7
 8004f42:	4a85                	li	s5,1
 8004f44:	f124cae3          	blt	s1,s2,8004e58 <_ZN6miosix14TerminalDevice9normalizeEPcii+0x3c>
 8004f48:	b7b1                	j	8004e94 <_ZN6miosix14TerminalDevice9normalizeEPcii+0x78>
 8004f4a:	85a2                	mv	a1,s0
 8004f4c:	4689                	li	a3,2
 8004f4e:	194b0613          	addi	a2,s6,404
 8004f52:	856a                	mv	a0,s10
 8004f54:	0485                	addi	s1,s1,1
 8004f56:	00000097          	auipc	ra,0x0
 8004f5a:	e60080e7          	jalr	-416(ra) # 8004db6 <_ZN6miosix14TerminalDevice8echoBackEPKcS2_j>
 8004f5e:	845e                	mv	s0,s7
 8004f60:	4a85                	li	s5,1
 8004f62:	ef24cbe3          	blt	s1,s2,8004e58 <_ZN6miosix14TerminalDevice9normalizeEPcii+0x3c>
 8004f66:	b73d                	j	8004e94 <_ZN6miosix14TerminalDevice9normalizeEPcii+0x78>
 8004f68:	4a81                	li	s5,0
 8004f6a:	b72d                	j	8004e94 <_ZN6miosix14TerminalDevice9normalizeEPcii+0x78>

08004f6c <_ZN6miosix14TerminalDevice4readEPvj>:
 8004f6c:	080087b7          	lui	a5,0x8008
 8004f70:	7159                	addi	sp,sp,-112
 8004f72:	ec878793          	addi	a5,a5,-312 # 8007ec8 <__gxx_personality_sj0>
 8004f76:	da3e                	sw	a5,52(sp)
 8004f78:	0800a7b7          	lui	a5,0x800a
 8004f7c:	84678793          	addi	a5,a5,-1978 # 8009846 <_GLOBAL__sub_I__ZSt7nothrow+0x48>
 8004f80:	dc3e                	sw	a5,56(sp)
 8004f82:	109c                	addi	a5,sp,96
 8004f84:	de3e                	sw	a5,60(sp)
 8004f86:	087c                	addi	a5,sp,28
 8004f88:	c42a                	sw	a0,8(sp)
 8004f8a:	853e                	mv	a0,a5
 8004f8c:	080057b7          	lui	a5,0x8005
 8004f90:	08878793          	addi	a5,a5,136 # 8005088 <_ZN6miosix14TerminalDevice4readEPvj+0x11c>
 8004f94:	c0be                	sw	a5,64(sp)
 8004f96:	d686                	sw	ra,108(sp)
 8004f98:	d4a2                	sw	s0,104(sp)
 8004f9a:	c28a                	sw	sp,68(sp)
 8004f9c:	c62e                	sw	a1,12(sp)
 8004f9e:	c832                	sw	a2,16(sp)
 8004fa0:	fffff097          	auipc	ra,0xfffff
 8004fa4:	358080e7          	jalr	856(ra) # 80042f8 <_Unwind_SjLj_Register>
 8004fa8:	4722                	lw	a4,8(sp)
 8004faa:	02574783          	lbu	a5,37(a4)
 8004fae:	c7a1                	beqz	a5,8004ff6 <_ZN6miosix14TerminalDevice4readEPvj+0x8a>
 8004fb0:	4748                	lw	a0,12(a4)
 8004fb2:	4642                	lw	a2,16(sp)
 8004fb4:	45b2                	lw	a1,12(sp)
 8004fb6:	411c                	lw	a5,0(a0)
 8004fb8:	587d                	li	a6,-1
 8004fba:	4701                	li	a4,0
 8004fbc:	47dc                	lw	a5,12(a5)
 8004fbe:	4681                	li	a3,0
 8004fc0:	d042                	sw	a6,32(sp)
 8004fc2:	9782                	jalr	a5
 8004fc4:	4722                	lw	a4,8(sp)
 8004fc6:	ca2a                	sw	a0,20(sp)
 8004fc8:	862a                	mv	a2,a0
 8004fca:	02474783          	lbu	a5,36(a4)
 8004fce:	cb91                	beqz	a5,8004fe2 <_ZN6miosix14TerminalDevice4readEPvj+0x76>
 8004fd0:	00a05963          	blez	a0,8004fe2 <_ZN6miosix14TerminalDevice4readEPvj+0x76>
 8004fd4:	4748                	lw	a0,12(a4)
 8004fd6:	45b2                	lw	a1,12(sp)
 8004fd8:	4681                	li	a3,0
 8004fda:	411c                	lw	a5,0(a0)
 8004fdc:	4701                	li	a4,0
 8004fde:	4b9c                	lw	a5,16(a5)
 8004fe0:	9782                	jalr	a5
 8004fe2:	0868                	addi	a0,sp,28
 8004fe4:	fffff097          	auipc	ra,0xfffff
 8004fe8:	336080e7          	jalr	822(ra) # 800431a <_Unwind_SjLj_Unregister>
 8004fec:	50b6                	lw	ra,108(sp)
 8004fee:	5426                	lw	s0,104(sp)
 8004ff0:	4552                	lw	a0,20(sp)
 8004ff2:	6165                	addi	sp,sp,112
 8004ff4:	8082                	ret
 8004ff6:	47a2                	lw	a5,8(sp)
 8004ff8:	07c1                	addi	a5,a5,16
 8004ffa:	853e                	mv	a0,a5
 8004ffc:	cc3e                	sw	a5,24(sp)
 8004ffe:	57fd                	li	a5,-1
 8005000:	d03e                	sw	a5,32(sp)
 8005002:	00002097          	auipc	ra,0x2
 8005006:	e0e080e7          	jalr	-498(ra) # 8006e10 <pthread_mutex_lock>
 800500a:	c202                	sw	zero,4(sp)
 800500c:	a025                	j	8005034 <_ZN6miosix14TerminalDevice4readEPvj+0xc8>
 800500e:	4412                	lw	s0,4(sp)
 8005010:	45b2                	lw	a1,12(sp)
 8005012:	008506b3          	add	a3,a0,s0
 8005016:	4522                	lw	a0,8(sp)
 8005018:	8622                	mv	a2,s0
 800501a:	00000097          	auipc	ra,0x0
 800501e:	e02080e7          	jalr	-510(ra) # 8004e1c <_ZN6miosix14TerminalDevice9normalizeEPcii>
 8005022:	4642                	lw	a2,16(sp)
 8005024:	ccaa                	sw	a0,88(sp)
 8005026:	ceae                	sw	a1,92(sp)
 8005028:	c22a                	sw	a0,4(sp)
 800502a:	04a60663          	beq	a2,a0,8005076 <_ZN6miosix14TerminalDevice4readEPvj+0x10a>
 800502e:	05c14783          	lbu	a5,92(sp)
 8005032:	e3b1                	bnez	a5,8005076 <_ZN6miosix14TerminalDevice4readEPvj+0x10a>
 8005034:	47a2                	lw	a5,8(sp)
 8005036:	4412                	lw	s0,4(sp)
 8005038:	4642                	lw	a2,16(sp)
 800503a:	47c8                	lw	a0,12(a5)
 800503c:	45b2                	lw	a1,12(sp)
 800503e:	4805                	li	a6,1
 8005040:	411c                	lw	a5,0(a0)
 8005042:	4681                	li	a3,0
 8005044:	4701                	li	a4,0
 8005046:	47dc                	lw	a5,12(a5)
 8005048:	8e01                	sub	a2,a2,s0
 800504a:	95a2                	add	a1,a1,s0
 800504c:	d042                	sw	a6,32(sp)
 800504e:	9782                	jalr	a5
 8005050:	ca2a                	sw	a0,20(sp)
 8005052:	fa055ee3          	bgez	a0,800500e <_ZN6miosix14TerminalDevice4readEPvj+0xa2>
 8005056:	4562                	lw	a0,24(sp)
 8005058:	d002                	sw	zero,32(sp)
 800505a:	00002097          	auipc	ra,0x2
 800505e:	e9e080e7          	jalr	-354(ra) # 8006ef8 <pthread_mutex_unlock>
 8005062:	0868                	addi	a0,sp,28
 8005064:	fffff097          	auipc	ra,0xfffff
 8005068:	2b6080e7          	jalr	694(ra) # 800431a <_Unwind_SjLj_Unregister>
 800506c:	50b6                	lw	ra,108(sp)
 800506e:	5426                	lw	s0,104(sp)
 8005070:	4552                	lw	a0,20(sp)
 8005072:	6165                	addi	sp,sp,112
 8005074:	8082                	ret
 8005076:	4792                	lw	a5,4(sp)
 8005078:	4562                	lw	a0,24(sp)
 800507a:	d002                	sw	zero,32(sp)
 800507c:	ca3e                	sw	a5,20(sp)
 800507e:	00002097          	auipc	ra,0x2
 8005082:	e7a080e7          	jalr	-390(ra) # 8006ef8 <pthread_mutex_unlock>
 8005086:	bff1                	j	8005062 <_ZN6miosix14TerminalDevice4readEPvj+0xf6>
 8005088:	5792                	lw	a5,36(sp)
 800508a:	4562                	lw	a0,24(sp)
 800508c:	d002                	sw	zero,32(sp)
 800508e:	c23e                	sw	a5,4(sp)
 8005090:	00002097          	auipc	ra,0x2
 8005094:	e68080e7          	jalr	-408(ra) # 8006ef8 <pthread_mutex_unlock>
 8005098:	4512                	lw	a0,4(sp)
 800509a:	57fd                	li	a5,-1
 800509c:	d03e                	sw	a5,32(sp)
 800509e:	fffff097          	auipc	ra,0xfffff
 80050a2:	3ae080e7          	jalr	942(ra) # 800444c <_Unwind_SjLj_Resume>

080050a6 <_ZN6miosix14DefaultConsoleC1Ev>:
 80050a6:	1141                	addi	sp,sp,-16
 80050a8:	c422                	sw	s0,8(sp)
 80050aa:	842a                	mv	s0,a0
 80050ac:	4551                	li	a0,20
 80050ae:	c606                	sw	ra,12(sp)
 80050b0:	00004097          	auipc	ra,0x4
 80050b4:	818080e7          	jalr	-2024(ra) # 80088c8 <_Znwj>
 80050b8:	00052223          	sw	zero,4(a0)
 80050bc:	415c                	lw	a5,4(a0)
 80050be:	40b2                	lw	ra,12(sp)
 80050c0:	c008                	sw	a0,0(s0)
 80050c2:	0800a737          	lui	a4,0x800a
 80050c6:	4422                	lw	s0,8(sp)
 80050c8:	0785                	addi	a5,a5,1
 80050ca:	14070713          	addi	a4,a4,320 # 800a140 <_ZTVN6miosix6DeviceE+0x8>
 80050ce:	c118                	sw	a4,0(a0)
 80050d0:	00051723          	sh	zero,14(a0)
 80050d4:	00050823          	sb	zero,16(a0)
 80050d8:	c15c                	sw	a5,4(a0)
 80050da:	0141                	addi	sp,sp,16
 80050dc:	8082                	ret

080050de <_ZN6miosix14DefaultConsole8instanceEv>:
 80050de:	080087b7          	lui	a5,0x8008
 80050e2:	715d                	addi	sp,sp,-80
 80050e4:	ec878793          	addi	a5,a5,-312 # 8007ec8 <__gxx_personality_sj0>
 80050e8:	d23e                	sw	a5,36(sp)
 80050ea:	0800a7b7          	lui	a5,0x800a
 80050ee:	84c78793          	addi	a5,a5,-1972 # 800984c <_GLOBAL__sub_I__ZSt7nothrow+0x4e>
 80050f2:	d43e                	sw	a5,40(sp)
 80050f4:	009c                	addi	a5,sp,64
 80050f6:	d63e                	sw	a5,44(sp)
 80050f8:	080057b7          	lui	a5,0x8005
 80050fc:	1a078793          	addi	a5,a5,416 # 80051a0 <_ZN6miosix14DefaultConsole8instanceEv+0xc2>
 8005100:	0068                	addi	a0,sp,12
 8005102:	d83e                	sw	a5,48(sp)
 8005104:	c686                	sw	ra,76(sp)
 8005106:	c4a2                	sw	s0,72(sp)
 8005108:	da0a                	sw	sp,52(sp)
 800510a:	fffff097          	auipc	ra,0xfffff
 800510e:	1ee080e7          	jalr	494(ra) # 80042f8 <_Unwind_SjLj_Register>
 8005112:	200017b7          	lui	a5,0x20001
 8005116:	9c07c783          	lbu	a5,-1600(a5) # 200009c0 <_ZGVZN6miosix14DefaultConsole8instanceEvE9singleton>
 800511a:	0ff0000f          	fence
 800511e:	0ff7f793          	andi	a5,a5,255
 8005122:	c385                	beqz	a5,8005142 <_ZN6miosix14DefaultConsole8instanceEv+0x64>
 8005124:	200017b7          	lui	a5,0x20001
 8005128:	c43e                	sw	a5,8(sp)
 800512a:	0068                	addi	a0,sp,12
 800512c:	fffff097          	auipc	ra,0xfffff
 8005130:	1ee080e7          	jalr	494(ra) # 800431a <_Unwind_SjLj_Unregister>
 8005134:	47a2                	lw	a5,8(sp)
 8005136:	40b6                	lw	ra,76(sp)
 8005138:	4426                	lw	s0,72(sp)
 800513a:	9c878513          	addi	a0,a5,-1592 # 200009c8 <_ZZN6miosix14DefaultConsole8instanceEvE9singleton>
 800513e:	6161                	addi	sp,sp,80
 8005140:	8082                	ret
 8005142:	200017b7          	lui	a5,0x20001
 8005146:	9c078513          	addi	a0,a5,-1600 # 200009c0 <_ZGVZN6miosix14DefaultConsole8instanceEvE9singleton>
 800514a:	00001097          	auipc	ra,0x1
 800514e:	bb8080e7          	jalr	-1096(ra) # 8005d02 <__cxa_guard_acquire>
 8005152:	200017b7          	lui	a5,0x20001
 8005156:	c43e                	sw	a5,8(sp)
 8005158:	d969                	beqz	a0,800512a <_ZN6miosix14DefaultConsole8instanceEv+0x4c>
 800515a:	4785                	li	a5,1
 800515c:	c83e                	sw	a5,16(sp)
 800515e:	200017b7          	lui	a5,0x20001
 8005162:	9c878513          	addi	a0,a5,-1592 # 200009c8 <_ZZN6miosix14DefaultConsole8instanceEvE9singleton>
 8005166:	00000097          	auipc	ra,0x0
 800516a:	f40080e7          	jalr	-192(ra) # 80050a6 <_ZN6miosix14DefaultConsoleC1Ev>
 800516e:	20001737          	lui	a4,0x20001
 8005172:	9c070513          	addi	a0,a4,-1600 # 200009c0 <_ZGVZN6miosix14DefaultConsole8instanceEvE9singleton>
 8005176:	00001097          	auipc	ra,0x1
 800517a:	d12080e7          	jalr	-750(ra) # 8005e88 <__cxa_guard_release>
 800517e:	200017b7          	lui	a5,0x20001
 8005182:	20001637          	lui	a2,0x20001
 8005186:	08005537          	lui	a0,0x8005
 800518a:	85860613          	addi	a2,a2,-1960 # 20000858 <__dso_handle>
 800518e:	9c878593          	addi	a1,a5,-1592 # 200009c8 <_ZZN6miosix14DefaultConsole8instanceEvE9singleton>
 8005192:	9de50513          	addi	a0,a0,-1570 # 80049de <_ZN6miosix14DefaultConsoleD1Ev>
 8005196:	ffffb097          	auipc	ra,0xffffb
 800519a:	044080e7          	jalr	68(ra) # 80001da <__cxa_atexit>
 800519e:	b771                	j	800512a <_ZN6miosix14DefaultConsole8instanceEv+0x4c>
 80051a0:	47d2                	lw	a5,20(sp)
 80051a2:	20001737          	lui	a4,0x20001
 80051a6:	9c070513          	addi	a0,a4,-1600 # 200009c0 <_ZGVZN6miosix14DefaultConsole8instanceEvE9singleton>
 80051aa:	c43e                	sw	a5,8(sp)
 80051ac:	00001097          	auipc	ra,0x1
 80051b0:	d2a080e7          	jalr	-726(ra) # 8005ed6 <__cxa_guard_abort>
 80051b4:	4522                	lw	a0,8(sp)
 80051b6:	57fd                	li	a5,-1
 80051b8:	c83e                	sw	a5,16(sp)
 80051ba:	fffff097          	auipc	ra,0xfffff
 80051be:	292080e7          	jalr	658(ra) # 800444c <_Unwind_SjLj_Resume>

080051c2 <_ZNK6miosix6Device6isattyEv>:
 80051c2:	01054503          	lbu	a0,16(a0)
 80051c6:	8082                	ret

080051c8 <_ZN6miosix6Device10writeBlockEPKvjx>:
 80051c8:	8532                	mv	a0,a2
 80051ca:	8082                	ret

080051cc <_ZN6miosix6Device8IRQwriteEPKc>:
 80051cc:	8082                	ret

080051ce <_ZN6miosix6Device5ioctlEiPv>:
 80051ce:	551d                	li	a0,-25
 80051d0:	8082                	ret

080051d2 <_ZN6miosix6DeviceD1Ev>:
 80051d2:	8082                	ret

080051d4 <_ZN6miosix6DeviceD0Ev>:
 80051d4:	45d1                	li	a1,20
 80051d6:	00003317          	auipc	t1,0x3
 80051da:	82830067          	jr	-2008(t1) # 80079fe <_ZdlPvj>

080051de <_ZN6miosix6Device9readBlockEPvjx>:
 80051de:	1141                	addi	sp,sp,-16
 80051e0:	852e                	mv	a0,a1
 80051e2:	4581                	li	a1,0
 80051e4:	c422                	sw	s0,8(sp)
 80051e6:	c606                	sw	ra,12(sp)
 80051e8:	8432                	mv	s0,a2
 80051ea:	ffffc097          	auipc	ra,0xffffc
 80051ee:	02a080e7          	jalr	42(ra) # 8001214 <memset>
 80051f2:	40b2                	lw	ra,12(sp)
 80051f4:	8522                	mv	a0,s0
 80051f6:	4422                	lw	s0,8(sp)
 80051f8:	0141                	addi	sp,sp,16
 80051fa:	8082                	ret

080051fc <_ZNK6miosix6Device5fstatEP4stat>:
 80051fc:	00f54703          	lbu	a4,15(a0)
 8005200:	1141                	addi	sp,sp,-16
 8005202:	c606                	sw	ra,12(sp)
 8005204:	c422                	sw	s0,8(sp)
 8005206:	c226                	sw	s1,4(sp)
 8005208:	c04a                	sw	s2,0(sp)
 800520a:	87ae                	mv	a5,a1
 800520c:	ef0d                	bnez	a4,8005246 <_ZNK6miosix6Device5fstatEP4stat+0x4a>
 800520e:	6409                	lui	s0,0x2
 8005210:	1e840413          	addi	s0,s0,488 # 21e8 <_main_stack_size+0x1de8>
 8005214:	4504                	lw	s1,8(a0)
 8005216:	00c51903          	lh	s2,12(a0)
 800521a:	06000613          	li	a2,96
 800521e:	4581                	li	a1,0
 8005220:	853e                	mv	a0,a5
 8005222:	ffffc097          	auipc	ra,0xffffc
 8005226:	ff2080e7          	jalr	-14(ra) # 8001214 <memset>
 800522a:	c500                	sw	s0,8(a0)
 800522c:	40b2                	lw	ra,12(sp)
 800522e:	4422                	lw	s0,8(sp)
 8005230:	4705                	li	a4,1
 8005232:	01251023          	sh	s2,0(a0)
 8005236:	c144                	sw	s1,4(a0)
 8005238:	00e51623          	sh	a4,12(a0)
 800523c:	4492                	lw	s1,4(sp)
 800523e:	4902                	lw	s2,0(sp)
 8005240:	4501                	li	a0,0
 8005242:	0141                	addi	sp,sp,16
 8005244:	8082                	ret
 8005246:	6419                	lui	s0,0x6
 8005248:	1e840413          	addi	s0,s0,488 # 61e8 <_main_stack_size+0x5de8>
 800524c:	b7e1                	j	8005214 <_ZNK6miosix6Device5fstatEP4stat+0x18>

0800524e <_ZN6miosix17intrusive_ref_ptrINS_8FileBaseEEaSERKS2_>:
 800524e:	1141                	addi	sp,sp,-16
 8005250:	c422                	sw	s0,8(sp)
 8005252:	419c                	lw	a5,0(a1)
 8005254:	842a                	mv	s0,a0
 8005256:	4108                	lw	a0,0(a0)
 8005258:	c606                	sw	ra,12(sp)
 800525a:	c226                	sw	s1,4(sp)
 800525c:	00f50f63          	beq	a0,a5,800527a <_ZN6miosix17intrusive_ref_ptrINS_8FileBaseEEaSERKS2_+0x2c>
 8005260:	c901                	beqz	a0,8005270 <_ZN6miosix17intrusive_ref_ptrINS_8FileBaseEEaSERKS2_+0x22>
 8005262:	4150                	lw	a2,4(a0)
 8005264:	4158                	lw	a4,4(a0)
 8005266:	4685                	li	a3,1
 8005268:	177d                	addi	a4,a4,-1
 800526a:	c158                	sw	a4,4(a0)
 800526c:	00d60d63          	beq	a2,a3,8005286 <_ZN6miosix17intrusive_ref_ptrINS_8FileBaseEEaSERKS2_+0x38>
 8005270:	c01c                	sw	a5,0(s0)
 8005272:	c781                	beqz	a5,800527a <_ZN6miosix17intrusive_ref_ptrINS_8FileBaseEEaSERKS2_+0x2c>
 8005274:	43d8                	lw	a4,4(a5)
 8005276:	0705                	addi	a4,a4,1
 8005278:	c3d8                	sw	a4,4(a5)
 800527a:	40b2                	lw	ra,12(sp)
 800527c:	8522                	mv	a0,s0
 800527e:	4422                	lw	s0,8(sp)
 8005280:	4492                	lw	s1,4(sp)
 8005282:	0141                	addi	sp,sp,16
 8005284:	8082                	ret
 8005286:	411c                	lw	a5,0(a0)
 8005288:	84ae                	mv	s1,a1
 800528a:	53dc                	lw	a5,36(a5)
 800528c:	9782                	jalr	a5
 800528e:	409c                	lw	a5,0(s1)
 8005290:	b7c5                	j	8005270 <_ZN6miosix17intrusive_ref_ptrINS_8FileBaseEEaSERKS2_+0x22>

08005292 <_ZN6miosixL24kernelNotStartedGetReentEv>:
 8005292:	200017b7          	lui	a5,0x20001
 8005296:	bb87a503          	lw	a0,-1096(a5) # 20000bb8 <_global_impure_ptr>
 800529a:	8082                	ret

0800529c <_ZN6miosix22setCReentrancyCallbackEPFP6_reentvE>:
 800529c:	200017b7          	lui	a5,0x20001
 80052a0:	84a7ae23          	sw	a0,-1956(a5) # 2000085c <_ZN6miosixL8getReentE>
 80052a4:	8082                	ret

080052a6 <__register_exitproc>:
 80052a6:	4501                	li	a0,0
 80052a8:	8082                	ret

080052aa <_exit>:
 80052aa:	1141                	addi	sp,sp,-16
 80052ac:	c606                	sw	ra,12(sp)
 80052ae:	00001097          	auipc	ra,0x1
 80052b2:	d02080e7          	jalr	-766(ra) # 8005fb0 <_ZN6miosix6rebootEv>
 80052b6:	a001                	j	80052b6 <_exit+0xc>

080052b8 <_sbrk_r>:
 80052b8:	20001737          	lui	a4,0x20001
 80052bc:	9cc72503          	lw	a0,-1588(a4) # 200009cc <_ZZ7_sbrk_rE10curHeapEnd>
 80052c0:	c50d                	beqz	a0,80052ea <_sbrk_r+0x32>
 80052c2:	200087b7          	lui	a5,0x20008
 80052c6:	95aa                	add	a1,a1,a0
 80052c8:	00078793          	mv	a5,a5
 80052cc:	00b7ed63          	bltu	a5,a1,80052e6 <_sbrk_r+0x2e>
 80052d0:	200017b7          	lui	a5,0x20001
 80052d4:	9d07a683          	lw	a3,-1584(a5) # 200009d0 <_ZN6miosixL10maxHeapEndE>
 80052d8:	9cb72623          	sw	a1,-1588(a4)
 80052dc:	00b6f663          	bgeu	a3,a1,80052e8 <_sbrk_r+0x30>
 80052e0:	9cb7a823          	sw	a1,-1584(a5)
 80052e4:	8082                	ret
 80052e6:	557d                	li	a0,-1
 80052e8:	8082                	ret
 80052ea:	20001537          	lui	a0,0x20001
 80052ee:	ba850793          	addi	a5,a0,-1112 # 20000ba8 <_bss_end>
 80052f2:	9cf72623          	sw	a5,-1588(a4)
 80052f6:	ba850513          	addi	a0,a0,-1112
 80052fa:	b7e1                	j	80052c2 <_sbrk_r+0xa>

080052fc <__malloc_lock>:
 80052fc:	00001317          	auipc	t1,0x1
 8005300:	15630067          	jr	342(t1) # 8006452 <_ZN6miosix11pauseKernelEv>

08005304 <__malloc_unlock>:
 8005304:	00001317          	auipc	t1,0x1
 8005308:	17430067          	jr	372(t1) # 8006478 <_ZN6miosix13restartKernelEv>

0800530c <__getreent>:
 800530c:	200017b7          	lui	a5,0x20001
 8005310:	85c7a303          	lw	t1,-1956(a5) # 2000085c <_ZN6miosixL8getReentE>
 8005314:	8302                	jr	t1

08005316 <_close_r>:
 8005316:	080087b7          	lui	a5,0x8008
 800531a:	7119                	addi	sp,sp,-128
 800531c:	ec878793          	addi	a5,a5,-312 # 8007ec8 <__gxx_personality_sj0>
 8005320:	d23e                	sw	a5,36(sp)
 8005322:	0800a7b7          	lui	a5,0x800a
 8005326:	85478793          	addi	a5,a5,-1964 # 8009854 <_GLOBAL__sub_I__ZSt7nothrow+0x56>
 800532a:	d43e                	sw	a5,40(sp)
 800532c:	009c                	addi	a5,sp,64
 800532e:	0074                	addi	a3,sp,12
 8005330:	d63e                	sw	a5,44(sp)
 8005332:	080057b7          	lui	a5,0x8005
 8005336:	872a                	mv	a4,a0
 8005338:	3be78793          	addi	a5,a5,958 # 80053be <_close_r+0xa8>
 800533c:	8536                	mv	a0,a3
 800533e:	d83e                	sw	a5,48(sp)
 8005340:	de86                	sw	ra,124(sp)
 8005342:	dca2                	sw	s0,120(sp)
 8005344:	daa6                	sw	s1,116(sp)
 8005346:	d8ca                	sw	s2,112(sp)
 8005348:	d6ce                	sw	s3,108(sp)
 800534a:	d4d2                	sw	s4,104(sp)
 800534c:	d2d6                	sw	s5,100(sp)
 800534e:	d0da                	sw	s6,96(sp)
 8005350:	cede                	sw	s7,92(sp)
 8005352:	cce2                	sw	s8,88(sp)
 8005354:	cae6                	sw	s9,84(sp)
 8005356:	c8ea                	sw	s10,80(sp)
 8005358:	c6ee                	sw	s11,76(sp)
 800535a:	c236                	sw	a3,4(sp)
 800535c:	da0a                	sw	sp,52(sp)
 800535e:	c43a                	sw	a4,8(sp)
 8005360:	c02e                	sw	a1,0(sp)
 8005362:	fffff097          	auipc	ra,0xfffff
 8005366:	f96080e7          	jalr	-106(ra) # 80042f8 <_Unwind_SjLj_Register>
 800536a:	4785                	li	a5,1
 800536c:	c83e                	sw	a5,16(sp)
 800536e:	00002097          	auipc	ra,0x2
 8005372:	236080e7          	jalr	566(ra) # 80075a4 <_ZN6miosix22getFileDescriptorTableEv>
 8005376:	4582                	lw	a1,0(sp)
 8005378:	00002097          	auipc	ra,0x2
 800537c:	ef2080e7          	jalr	-270(ra) # 800726a <_ZN6miosix19FileDescriptorTable5closeEi>
 8005380:	c02a                	sw	a0,0(sp)
 8005382:	02054763          	bltz	a0,80053b0 <_close_r+0x9a>
 8005386:	4512                	lw	a0,4(sp)
 8005388:	fffff097          	auipc	ra,0xfffff
 800538c:	f92080e7          	jalr	-110(ra) # 800431a <_Unwind_SjLj_Unregister>
 8005390:	50f6                	lw	ra,124(sp)
 8005392:	5466                	lw	s0,120(sp)
 8005394:	4502                	lw	a0,0(sp)
 8005396:	54d6                	lw	s1,116(sp)
 8005398:	5946                	lw	s2,112(sp)
 800539a:	59b6                	lw	s3,108(sp)
 800539c:	5a26                	lw	s4,104(sp)
 800539e:	5a96                	lw	s5,100(sp)
 80053a0:	5b06                	lw	s6,96(sp)
 80053a2:	4bf6                	lw	s7,92(sp)
 80053a4:	4c66                	lw	s8,88(sp)
 80053a6:	4cd6                	lw	s9,84(sp)
 80053a8:	4d46                	lw	s10,80(sp)
 80053aa:	4db6                	lw	s11,76(sp)
 80053ac:	6109                	addi	sp,sp,128
 80053ae:	8082                	ret
 80053b0:	4722                	lw	a4,8(sp)
 80053b2:	40a007b3          	neg	a5,a0
 80053b6:	c31c                	sw	a5,0(a4)
 80053b8:	57fd                	li	a5,-1
 80053ba:	c03e                	sw	a5,0(sp)
 80053bc:	b7e9                	j	8005386 <_close_r+0x70>
 80053be:	4762                	lw	a4,24(sp)
 80053c0:	4785                	li	a5,1
 80053c2:	4552                	lw	a0,20(sp)
 80053c4:	02f71263          	bne	a4,a5,80053e8 <_close_r+0xd2>
 80053c8:	00002097          	auipc	ra,0x2
 80053cc:	646080e7          	jalr	1606(ra) # 8007a0e <__cxa_begin_catch>
 80053d0:	4722                	lw	a4,8(sp)
 80053d2:	47b1                	li	a5,12
 80053d4:	c31c                	sw	a5,0(a4)
 80053d6:	00002097          	auipc	ra,0x2
 80053da:	6b6080e7          	jalr	1718(ra) # 8007a8c <__cxa_end_catch>
 80053de:	57fd                	li	a5,-1
 80053e0:	c03e                	sw	a5,0(sp)
 80053e2:	007c                	addi	a5,sp,12
 80053e4:	c23e                	sw	a5,4(sp)
 80053e6:	b745                	j	8005386 <_close_r+0x70>
 80053e8:	57fd                	li	a5,-1
 80053ea:	c83e                	sw	a5,16(sp)
 80053ec:	fffff097          	auipc	ra,0xfffff
 80053f0:	060080e7          	jalr	96(ra) # 800444c <_Unwind_SjLj_Resume>

080053f4 <_write_r>:
 80053f4:	080087b7          	lui	a5,0x8008
 80053f8:	7175                	addi	sp,sp,-144
 80053fa:	ec878793          	addi	a5,a5,-312 # 8007ec8 <__gxx_personality_sj0>
 80053fe:	da3e                	sw	a5,52(sp)
 8005400:	0800a7b7          	lui	a5,0x800a
 8005404:	86478793          	addi	a5,a5,-1948 # 8009864 <_GLOBAL__sub_I__ZSt7nothrow+0x66>
 8005408:	dc3e                	sw	a5,56(sp)
 800540a:	089c                	addi	a5,sp,80
 800540c:	c522                	sw	s0,136(sp)
 800540e:	de3e                	sw	a5,60(sp)
 8005410:	0860                	addi	s0,sp,28
 8005412:	080057b7          	lui	a5,0x8005
 8005416:	872a                	mv	a4,a0
 8005418:	4f278793          	addi	a5,a5,1266 # 80054f2 <_write_r+0xfe>
 800541c:	8522                	mv	a0,s0
 800541e:	c0be                	sw	a5,64(sp)
 8005420:	c706                	sw	ra,140(sp)
 8005422:	c326                	sw	s1,132(sp)
 8005424:	c14a                	sw	s2,128(sp)
 8005426:	dece                	sw	s3,124(sp)
 8005428:	dcd2                	sw	s4,120(sp)
 800542a:	dad6                	sw	s5,116(sp)
 800542c:	d8da                	sw	s6,112(sp)
 800542e:	d6de                	sw	s7,108(sp)
 8005430:	d4e2                	sw	s8,104(sp)
 8005432:	d2e6                	sw	s9,100(sp)
 8005434:	d0ea                	sw	s10,96(sp)
 8005436:	ceee                	sw	s11,92(sp)
 8005438:	c422                	sw	s0,8(sp)
 800543a:	c28a                	sw	sp,68(sp)
 800543c:	cc3a                	sw	a4,24(sp)
 800543e:	ca2e                	sw	a1,20(sp)
 8005440:	c632                	sw	a2,12(sp)
 8005442:	c836                	sw	a3,16(sp)
 8005444:	fffff097          	auipc	ra,0xfffff
 8005448:	eb4080e7          	jalr	-332(ra) # 80042f8 <_Unwind_SjLj_Register>
 800544c:	4785                	li	a5,1
 800544e:	d03e                	sw	a5,32(sp)
 8005450:	00002097          	auipc	ra,0x2
 8005454:	154080e7          	jalr	340(ra) # 80075a4 <_ZN6miosix22getFileDescriptorTableEv>
 8005458:	4432                	lw	s0,12(sp)
 800545a:	c459                	beqz	s0,80054e8 <_write_r+0xf4>
 800545c:	4642                	lw	a2,16(sp)
 800545e:	08064363          	bltz	a2,80054e4 <_write_r+0xf0>
 8005462:	4752                	lw	a4,20(sp)
 8005464:	479d                	li	a5,7
 8005466:	06e7e963          	bltu	a5,a4,80054d8 <_write_r+0xe4>
 800546a:	02850513          	addi	a0,a0,40
 800546e:	00271793          	slli	a5,a4,0x2
 8005472:	953e                	add	a0,a0,a5
 8005474:	4114                	lw	a3,0(a0)
 8005476:	c236                	sw	a3,4(sp)
 8005478:	c2a5                	beqz	a3,80054d8 <_write_r+0xe4>
 800547a:	42dc                	lw	a5,4(a3)
 800547c:	4298                	lw	a4,0(a3)
 800547e:	85a2                	mv	a1,s0
 8005480:	0785                	addi	a5,a5,1
 8005482:	4318                	lw	a4,0(a4)
 8005484:	c2dc                	sw	a5,4(a3)
 8005486:	4789                	li	a5,2
 8005488:	d03e                	sw	a5,32(sp)
 800548a:	8536                	mv	a0,a3
 800548c:	9702                	jalr	a4
 800548e:	4612                	lw	a2,4(sp)
 8005490:	4705                	li	a4,1
 8005492:	c22a                	sw	a0,4(sp)
 8005494:	4254                	lw	a3,4(a2)
 8005496:	425c                	lw	a5,4(a2)
 8005498:	17fd                	addi	a5,a5,-1
 800549a:	c25c                	sw	a5,4(a2)
 800549c:	00e69663          	bne	a3,a4,80054a8 <_write_r+0xb4>
 80054a0:	421c                	lw	a5,0(a2)
 80054a2:	8532                	mv	a0,a2
 80054a4:	53dc                	lw	a5,36(a5)
 80054a6:	9782                	jalr	a5
 80054a8:	4792                	lw	a5,4(sp)
 80054aa:	0407c163          	bltz	a5,80054ec <_write_r+0xf8>
 80054ae:	4522                	lw	a0,8(sp)
 80054b0:	fffff097          	auipc	ra,0xfffff
 80054b4:	e6a080e7          	jalr	-406(ra) # 800431a <_Unwind_SjLj_Unregister>
 80054b8:	40ba                	lw	ra,140(sp)
 80054ba:	442a                	lw	s0,136(sp)
 80054bc:	4512                	lw	a0,4(sp)
 80054be:	449a                	lw	s1,132(sp)
 80054c0:	490a                	lw	s2,128(sp)
 80054c2:	59f6                	lw	s3,124(sp)
 80054c4:	5a66                	lw	s4,120(sp)
 80054c6:	5ad6                	lw	s5,116(sp)
 80054c8:	5b46                	lw	s6,112(sp)
 80054ca:	5bb6                	lw	s7,108(sp)
 80054cc:	5c26                	lw	s8,104(sp)
 80054ce:	5c96                	lw	s9,100(sp)
 80054d0:	5d06                	lw	s10,96(sp)
 80054d2:	4df6                	lw	s11,92(sp)
 80054d4:	6149                	addi	sp,sp,144
 80054d6:	8082                	ret
 80054d8:	47a5                	li	a5,9
 80054da:	4762                	lw	a4,24(sp)
 80054dc:	c31c                	sw	a5,0(a4)
 80054de:	57fd                	li	a5,-1
 80054e0:	c23e                	sw	a5,4(sp)
 80054e2:	b7f1                	j	80054ae <_write_r+0xba>
 80054e4:	47d9                	li	a5,22
 80054e6:	bfd5                	j	80054da <_write_r+0xe6>
 80054e8:	47b9                	li	a5,14
 80054ea:	bfc5                	j	80054da <_write_r+0xe6>
 80054ec:	40f007b3          	neg	a5,a5
 80054f0:	b7ed                	j	80054da <_write_r+0xe6>
 80054f2:	5712                	lw	a4,36(sp)
 80054f4:	5782                	lw	a5,32(sp)
 80054f6:	c43a                	sw	a4,8(sp)
 80054f8:	5722                	lw	a4,40(sp)
 80054fa:	c63a                	sw	a4,12(sp)
 80054fc:	e795                	bnez	a5,8005528 <_write_r+0x134>
 80054fe:	4732                	lw	a4,12(sp)
 8005500:	4785                	li	a5,1
 8005502:	04f71263          	bne	a4,a5,8005546 <_write_r+0x152>
 8005506:	4522                	lw	a0,8(sp)
 8005508:	00002097          	auipc	ra,0x2
 800550c:	506080e7          	jalr	1286(ra) # 8007a0e <__cxa_begin_catch>
 8005510:	4762                	lw	a4,24(sp)
 8005512:	47b1                	li	a5,12
 8005514:	c31c                	sw	a5,0(a4)
 8005516:	00002097          	auipc	ra,0x2
 800551a:	576080e7          	jalr	1398(ra) # 8007a8c <__cxa_end_catch>
 800551e:	57fd                	li	a5,-1
 8005520:	c23e                	sw	a5,4(sp)
 8005522:	087c                	addi	a5,sp,28
 8005524:	c43e                	sw	a5,8(sp)
 8005526:	b761                	j	80054ae <_write_r+0xba>
 8005528:	17fd                	addi	a5,a5,-1
 800552a:	e78d                	bnez	a5,8005554 <_write_r+0x160>
 800552c:	4612                	lw	a2,4(sp)
 800552e:	4705                	li	a4,1
 8005530:	4254                	lw	a3,4(a2)
 8005532:	425c                	lw	a5,4(a2)
 8005534:	17fd                	addi	a5,a5,-1
 8005536:	c25c                	sw	a5,4(a2)
 8005538:	fce693e3          	bne	a3,a4,80054fe <_write_r+0x10a>
 800553c:	421c                	lw	a5,0(a2)
 800553e:	8532                	mv	a0,a2
 8005540:	53dc                	lw	a5,36(a5)
 8005542:	9782                	jalr	a5
 8005544:	bf6d                	j	80054fe <_write_r+0x10a>
 8005546:	4522                	lw	a0,8(sp)
 8005548:	57fd                	li	a5,-1
 800554a:	d03e                	sw	a5,32(sp)
 800554c:	fffff097          	auipc	ra,0xfffff
 8005550:	f00080e7          	jalr	-256(ra) # 800444c <_Unwind_SjLj_Resume>
 8005554:	9002                	ebreak

08005556 <write>:
 8005556:	200017b7          	lui	a5,0x20001
 800555a:	85c7a783          	lw	a5,-1956(a5) # 2000085c <_ZN6miosixL8getReentE>
 800555e:	1141                	addi	sp,sp,-16
 8005560:	c422                	sw	s0,8(sp)
 8005562:	c226                	sw	s1,4(sp)
 8005564:	c04a                	sw	s2,0(sp)
 8005566:	c606                	sw	ra,12(sp)
 8005568:	84ae                	mv	s1,a1
 800556a:	8932                	mv	s2,a2
 800556c:	842a                	mv	s0,a0
 800556e:	9782                	jalr	a5
 8005570:	85a2                	mv	a1,s0
 8005572:	4422                	lw	s0,8(sp)
 8005574:	40b2                	lw	ra,12(sp)
 8005576:	86ca                	mv	a3,s2
 8005578:	8626                	mv	a2,s1
 800557a:	4902                	lw	s2,0(sp)
 800557c:	4492                	lw	s1,4(sp)
 800557e:	0141                	addi	sp,sp,16
 8005580:	00000317          	auipc	t1,0x0
 8005584:	e7430067          	jr	-396(t1) # 80053f4 <_write_r>

08005588 <_read_r>:
 8005588:	080087b7          	lui	a5,0x8008
 800558c:	7175                	addi	sp,sp,-144
 800558e:	ec878793          	addi	a5,a5,-312 # 8007ec8 <__gxx_personality_sj0>
 8005592:	da3e                	sw	a5,52(sp)
 8005594:	0800a7b7          	lui	a5,0x800a
 8005598:	87878793          	addi	a5,a5,-1928 # 8009878 <_GLOBAL__sub_I__ZSt7nothrow+0x7a>
 800559c:	dc3e                	sw	a5,56(sp)
 800559e:	089c                	addi	a5,sp,80
 80055a0:	c522                	sw	s0,136(sp)
 80055a2:	de3e                	sw	a5,60(sp)
 80055a4:	0860                	addi	s0,sp,28
 80055a6:	080057b7          	lui	a5,0x8005
 80055aa:	872a                	mv	a4,a0
 80055ac:	68678793          	addi	a5,a5,1670 # 8005686 <_read_r+0xfe>
 80055b0:	8522                	mv	a0,s0
 80055b2:	c0be                	sw	a5,64(sp)
 80055b4:	c706                	sw	ra,140(sp)
 80055b6:	c326                	sw	s1,132(sp)
 80055b8:	c14a                	sw	s2,128(sp)
 80055ba:	dece                	sw	s3,124(sp)
 80055bc:	dcd2                	sw	s4,120(sp)
 80055be:	dad6                	sw	s5,116(sp)
 80055c0:	d8da                	sw	s6,112(sp)
 80055c2:	d6de                	sw	s7,108(sp)
 80055c4:	d4e2                	sw	s8,104(sp)
 80055c6:	d2e6                	sw	s9,100(sp)
 80055c8:	d0ea                	sw	s10,96(sp)
 80055ca:	ceee                	sw	s11,92(sp)
 80055cc:	c422                	sw	s0,8(sp)
 80055ce:	c28a                	sw	sp,68(sp)
 80055d0:	cc3a                	sw	a4,24(sp)
 80055d2:	ca2e                	sw	a1,20(sp)
 80055d4:	c632                	sw	a2,12(sp)
 80055d6:	c836                	sw	a3,16(sp)
 80055d8:	fffff097          	auipc	ra,0xfffff
 80055dc:	d20080e7          	jalr	-736(ra) # 80042f8 <_Unwind_SjLj_Register>
 80055e0:	4785                	li	a5,1
 80055e2:	d03e                	sw	a5,32(sp)
 80055e4:	00002097          	auipc	ra,0x2
 80055e8:	fc0080e7          	jalr	-64(ra) # 80075a4 <_ZN6miosix22getFileDescriptorTableEv>
 80055ec:	4432                	lw	s0,12(sp)
 80055ee:	c459                	beqz	s0,800567c <_read_r+0xf4>
 80055f0:	4642                	lw	a2,16(sp)
 80055f2:	08064363          	bltz	a2,8005678 <_read_r+0xf0>
 80055f6:	4752                	lw	a4,20(sp)
 80055f8:	479d                	li	a5,7
 80055fa:	06e7e963          	bltu	a5,a4,800566c <_read_r+0xe4>
 80055fe:	02850513          	addi	a0,a0,40
 8005602:	00271793          	slli	a5,a4,0x2
 8005606:	953e                	add	a0,a0,a5
 8005608:	4114                	lw	a3,0(a0)
 800560a:	c236                	sw	a3,4(sp)
 800560c:	c2a5                	beqz	a3,800566c <_read_r+0xe4>
 800560e:	42dc                	lw	a5,4(a3)
 8005610:	4298                	lw	a4,0(a3)
 8005612:	85a2                	mv	a1,s0
 8005614:	0785                	addi	a5,a5,1
 8005616:	4358                	lw	a4,4(a4)
 8005618:	c2dc                	sw	a5,4(a3)
 800561a:	4789                	li	a5,2
 800561c:	d03e                	sw	a5,32(sp)
 800561e:	8536                	mv	a0,a3
 8005620:	9702                	jalr	a4
 8005622:	4612                	lw	a2,4(sp)
 8005624:	4705                	li	a4,1
 8005626:	c22a                	sw	a0,4(sp)
 8005628:	4254                	lw	a3,4(a2)
 800562a:	425c                	lw	a5,4(a2)
 800562c:	17fd                	addi	a5,a5,-1
 800562e:	c25c                	sw	a5,4(a2)
 8005630:	00e69663          	bne	a3,a4,800563c <_read_r+0xb4>
 8005634:	421c                	lw	a5,0(a2)
 8005636:	8532                	mv	a0,a2
 8005638:	53dc                	lw	a5,36(a5)
 800563a:	9782                	jalr	a5
 800563c:	4792                	lw	a5,4(sp)
 800563e:	0407c163          	bltz	a5,8005680 <_read_r+0xf8>
 8005642:	4522                	lw	a0,8(sp)
 8005644:	fffff097          	auipc	ra,0xfffff
 8005648:	cd6080e7          	jalr	-810(ra) # 800431a <_Unwind_SjLj_Unregister>
 800564c:	40ba                	lw	ra,140(sp)
 800564e:	442a                	lw	s0,136(sp)
 8005650:	4512                	lw	a0,4(sp)
 8005652:	449a                	lw	s1,132(sp)
 8005654:	490a                	lw	s2,128(sp)
 8005656:	59f6                	lw	s3,124(sp)
 8005658:	5a66                	lw	s4,120(sp)
 800565a:	5ad6                	lw	s5,116(sp)
 800565c:	5b46                	lw	s6,112(sp)
 800565e:	5bb6                	lw	s7,108(sp)
 8005660:	5c26                	lw	s8,104(sp)
 8005662:	5c96                	lw	s9,100(sp)
 8005664:	5d06                	lw	s10,96(sp)
 8005666:	4df6                	lw	s11,92(sp)
 8005668:	6149                	addi	sp,sp,144
 800566a:	8082                	ret
 800566c:	47a5                	li	a5,9
 800566e:	4762                	lw	a4,24(sp)
 8005670:	c31c                	sw	a5,0(a4)
 8005672:	57fd                	li	a5,-1
 8005674:	c23e                	sw	a5,4(sp)
 8005676:	b7f1                	j	8005642 <_read_r+0xba>
 8005678:	47d9                	li	a5,22
 800567a:	bfd5                	j	800566e <_read_r+0xe6>
 800567c:	47b9                	li	a5,14
 800567e:	bfc5                	j	800566e <_read_r+0xe6>
 8005680:	40f007b3          	neg	a5,a5
 8005684:	b7ed                	j	800566e <_read_r+0xe6>
 8005686:	5712                	lw	a4,36(sp)
 8005688:	5782                	lw	a5,32(sp)
 800568a:	c43a                	sw	a4,8(sp)
 800568c:	5722                	lw	a4,40(sp)
 800568e:	c63a                	sw	a4,12(sp)
 8005690:	e795                	bnez	a5,80056bc <_read_r+0x134>
 8005692:	4732                	lw	a4,12(sp)
 8005694:	4785                	li	a5,1
 8005696:	04f71263          	bne	a4,a5,80056da <_read_r+0x152>
 800569a:	4522                	lw	a0,8(sp)
 800569c:	00002097          	auipc	ra,0x2
 80056a0:	372080e7          	jalr	882(ra) # 8007a0e <__cxa_begin_catch>
 80056a4:	4762                	lw	a4,24(sp)
 80056a6:	47b1                	li	a5,12
 80056a8:	c31c                	sw	a5,0(a4)
 80056aa:	00002097          	auipc	ra,0x2
 80056ae:	3e2080e7          	jalr	994(ra) # 8007a8c <__cxa_end_catch>
 80056b2:	57fd                	li	a5,-1
 80056b4:	c23e                	sw	a5,4(sp)
 80056b6:	087c                	addi	a5,sp,28
 80056b8:	c43e                	sw	a5,8(sp)
 80056ba:	b761                	j	8005642 <_read_r+0xba>
 80056bc:	17fd                	addi	a5,a5,-1
 80056be:	e78d                	bnez	a5,80056e8 <_read_r+0x160>
 80056c0:	4612                	lw	a2,4(sp)
 80056c2:	4705                	li	a4,1
 80056c4:	4254                	lw	a3,4(a2)
 80056c6:	425c                	lw	a5,4(a2)
 80056c8:	17fd                	addi	a5,a5,-1
 80056ca:	c25c                	sw	a5,4(a2)
 80056cc:	fce693e3          	bne	a3,a4,8005692 <_read_r+0x10a>
 80056d0:	421c                	lw	a5,0(a2)
 80056d2:	8532                	mv	a0,a2
 80056d4:	53dc                	lw	a5,36(a5)
 80056d6:	9782                	jalr	a5
 80056d8:	bf6d                	j	8005692 <_read_r+0x10a>
 80056da:	4522                	lw	a0,8(sp)
 80056dc:	57fd                	li	a5,-1
 80056de:	d03e                	sw	a5,32(sp)
 80056e0:	fffff097          	auipc	ra,0xfffff
 80056e4:	d6c080e7          	jalr	-660(ra) # 800444c <_Unwind_SjLj_Resume>
 80056e8:	9002                	ebreak

080056ea <_lseek_r>:
 80056ea:	080087b7          	lui	a5,0x8008
 80056ee:	7175                	addi	sp,sp,-144
 80056f0:	ec878793          	addi	a5,a5,-312 # 8007ec8 <__gxx_personality_sj0>
 80056f4:	da3e                	sw	a5,52(sp)
 80056f6:	0800a7b7          	lui	a5,0x800a
 80056fa:	88c78793          	addi	a5,a5,-1908 # 800988c <_GLOBAL__sub_I__ZSt7nothrow+0x8e>
 80056fe:	dc3e                	sw	a5,56(sp)
 8005700:	089c                	addi	a5,sp,80
 8005702:	c522                	sw	s0,136(sp)
 8005704:	de3e                	sw	a5,60(sp)
 8005706:	0860                	addi	s0,sp,28
 8005708:	080057b7          	lui	a5,0x8005
 800570c:	882a                	mv	a6,a0
 800570e:	7e278793          	addi	a5,a5,2018 # 80057e2 <_lseek_r+0xf8>
 8005712:	8522                	mv	a0,s0
 8005714:	c0be                	sw	a5,64(sp)
 8005716:	c706                	sw	ra,140(sp)
 8005718:	c326                	sw	s1,132(sp)
 800571a:	c14a                	sw	s2,128(sp)
 800571c:	dece                	sw	s3,124(sp)
 800571e:	dcd2                	sw	s4,120(sp)
 8005720:	dad6                	sw	s5,116(sp)
 8005722:	d8da                	sw	s6,112(sp)
 8005724:	d6de                	sw	s7,108(sp)
 8005726:	d4e2                	sw	s8,104(sp)
 8005728:	d2e6                	sw	s9,100(sp)
 800572a:	d0ea                	sw	s10,96(sp)
 800572c:	ceee                	sw	s11,92(sp)
 800572e:	c422                	sw	s0,8(sp)
 8005730:	c28a                	sw	sp,68(sp)
 8005732:	cc42                	sw	a6,24(sp)
 8005734:	c22e                	sw	a1,4(sp)
 8005736:	c832                	sw	a2,16(sp)
 8005738:	ca36                	sw	a3,20(sp)
 800573a:	c63a                	sw	a4,12(sp)
 800573c:	fffff097          	auipc	ra,0xfffff
 8005740:	bbc080e7          	jalr	-1092(ra) # 80042f8 <_Unwind_SjLj_Register>
 8005744:	4785                	li	a5,1
 8005746:	d03e                	sw	a5,32(sp)
 8005748:	00002097          	auipc	ra,0x2
 800574c:	e5c080e7          	jalr	-420(ra) # 80075a4 <_ZN6miosix22getFileDescriptorTableEv>
 8005750:	4412                	lw	s0,4(sp)
 8005752:	479d                	li	a5,7
 8005754:	0687ec63          	bltu	a5,s0,80057cc <_lseek_r+0xe2>
 8005758:	02850513          	addi	a0,a0,40
 800575c:	00241793          	slli	a5,s0,0x2
 8005760:	953e                	add	a0,a0,a5
 8005762:	4108                	lw	a0,0(a0)
 8005764:	c02a                	sw	a0,0(sp)
 8005766:	c13d                	beqz	a0,80057cc <_lseek_r+0xe2>
 8005768:	415c                	lw	a5,4(a0)
 800576a:	4118                	lw	a4,0(a0)
 800576c:	46b2                	lw	a3,12(sp)
 800576e:	0785                	addi	a5,a5,1
 8005770:	4718                	lw	a4,8(a4)
 8005772:	45c2                	lw	a1,16(sp)
 8005774:	4652                	lw	a2,20(sp)
 8005776:	c15c                	sw	a5,4(a0)
 8005778:	4789                	li	a5,2
 800577a:	d03e                	sw	a5,32(sp)
 800577c:	9702                	jalr	a4
 800577e:	4602                	lw	a2,0(sp)
 8005780:	4705                	li	a4,1
 8005782:	c22a                	sw	a0,4(sp)
 8005784:	4254                	lw	a3,4(a2)
 8005786:	425c                	lw	a5,4(a2)
 8005788:	c02e                	sw	a1,0(sp)
 800578a:	17fd                	addi	a5,a5,-1
 800578c:	c25c                	sw	a5,4(a2)
 800578e:	00e69663          	bne	a3,a4,800579a <_lseek_r+0xb0>
 8005792:	421c                	lw	a5,0(a2)
 8005794:	8532                	mv	a0,a2
 8005796:	53dc                	lw	a5,36(a5)
 8005798:	9782                	jalr	a5
 800579a:	4782                	lw	a5,0(sp)
 800579c:	0207cf63          	bltz	a5,80057da <_lseek_r+0xf0>
 80057a0:	4522                	lw	a0,8(sp)
 80057a2:	fffff097          	auipc	ra,0xfffff
 80057a6:	b78080e7          	jalr	-1160(ra) # 800431a <_Unwind_SjLj_Unregister>
 80057aa:	40ba                	lw	ra,140(sp)
 80057ac:	442a                	lw	s0,136(sp)
 80057ae:	4512                	lw	a0,4(sp)
 80057b0:	4582                	lw	a1,0(sp)
 80057b2:	449a                	lw	s1,132(sp)
 80057b4:	490a                	lw	s2,128(sp)
 80057b6:	59f6                	lw	s3,124(sp)
 80057b8:	5a66                	lw	s4,120(sp)
 80057ba:	5ad6                	lw	s5,116(sp)
 80057bc:	5b46                	lw	s6,112(sp)
 80057be:	5bb6                	lw	s7,108(sp)
 80057c0:	5c26                	lw	s8,104(sp)
 80057c2:	5c96                	lw	s9,100(sp)
 80057c4:	5d06                	lw	s10,96(sp)
 80057c6:	4df6                	lw	s11,92(sp)
 80057c8:	6149                	addi	sp,sp,144
 80057ca:	8082                	ret
 80057cc:	47a5                	li	a5,9
 80057ce:	4762                	lw	a4,24(sp)
 80057d0:	c31c                	sw	a5,0(a4)
 80057d2:	57fd                	li	a5,-1
 80057d4:	c23e                	sw	a5,4(sp)
 80057d6:	c03e                	sw	a5,0(sp)
 80057d8:	b7e1                	j	80057a0 <_lseek_r+0xb6>
 80057da:	4792                	lw	a5,4(sp)
 80057dc:	40f007b3          	neg	a5,a5
 80057e0:	b7fd                	j	80057ce <_lseek_r+0xe4>
 80057e2:	5712                	lw	a4,36(sp)
 80057e4:	5782                	lw	a5,32(sp)
 80057e6:	c23a                	sw	a4,4(sp)
 80057e8:	5722                	lw	a4,40(sp)
 80057ea:	c43a                	sw	a4,8(sp)
 80057ec:	e79d                	bnez	a5,800581a <_lseek_r+0x130>
 80057ee:	4722                	lw	a4,8(sp)
 80057f0:	4785                	li	a5,1
 80057f2:	04f71363          	bne	a4,a5,8005838 <_lseek_r+0x14e>
 80057f6:	4512                	lw	a0,4(sp)
 80057f8:	00002097          	auipc	ra,0x2
 80057fc:	216080e7          	jalr	534(ra) # 8007a0e <__cxa_begin_catch>
 8005800:	4762                	lw	a4,24(sp)
 8005802:	47b1                	li	a5,12
 8005804:	c31c                	sw	a5,0(a4)
 8005806:	00002097          	auipc	ra,0x2
 800580a:	286080e7          	jalr	646(ra) # 8007a8c <__cxa_end_catch>
 800580e:	57fd                	li	a5,-1
 8005810:	c23e                	sw	a5,4(sp)
 8005812:	c03e                	sw	a5,0(sp)
 8005814:	087c                	addi	a5,sp,28
 8005816:	c43e                	sw	a5,8(sp)
 8005818:	b761                	j	80057a0 <_lseek_r+0xb6>
 800581a:	17fd                	addi	a5,a5,-1
 800581c:	e78d                	bnez	a5,8005846 <_lseek_r+0x15c>
 800581e:	4602                	lw	a2,0(sp)
 8005820:	4705                	li	a4,1
 8005822:	4254                	lw	a3,4(a2)
 8005824:	425c                	lw	a5,4(a2)
 8005826:	17fd                	addi	a5,a5,-1
 8005828:	c25c                	sw	a5,4(a2)
 800582a:	fce692e3          	bne	a3,a4,80057ee <_lseek_r+0x104>
 800582e:	421c                	lw	a5,0(a2)
 8005830:	8532                	mv	a0,a2
 8005832:	53dc                	lw	a5,36(a5)
 8005834:	9782                	jalr	a5
 8005836:	bf65                	j	80057ee <_lseek_r+0x104>
 8005838:	4512                	lw	a0,4(sp)
 800583a:	57fd                	li	a5,-1
 800583c:	d03e                	sw	a5,32(sp)
 800583e:	fffff097          	auipc	ra,0xfffff
 8005842:	c0e080e7          	jalr	-1010(ra) # 800444c <_Unwind_SjLj_Resume>
 8005846:	9002                	ebreak

08005848 <_fstat_r>:
 8005848:	080087b7          	lui	a5,0x8008
 800584c:	7175                	addi	sp,sp,-144
 800584e:	ec878793          	addi	a5,a5,-312 # 8007ec8 <__gxx_personality_sj0>
 8005852:	da3e                	sw	a5,52(sp)
 8005854:	0800a7b7          	lui	a5,0x800a
 8005858:	8a078793          	addi	a5,a5,-1888 # 80098a0 <_GLOBAL__sub_I__ZSt7nothrow+0xa2>
 800585c:	dc3e                	sw	a5,56(sp)
 800585e:	089c                	addi	a5,sp,80
 8005860:	0874                	addi	a3,sp,28
 8005862:	de3e                	sw	a5,60(sp)
 8005864:	080067b7          	lui	a5,0x8006
 8005868:	872a                	mv	a4,a0
 800586a:	93a78793          	addi	a5,a5,-1734 # 800593a <_fstat_r+0xf2>
 800586e:	8536                	mv	a0,a3
 8005870:	c0be                	sw	a5,64(sp)
 8005872:	c706                	sw	ra,140(sp)
 8005874:	c522                	sw	s0,136(sp)
 8005876:	c326                	sw	s1,132(sp)
 8005878:	c14a                	sw	s2,128(sp)
 800587a:	dece                	sw	s3,124(sp)
 800587c:	dcd2                	sw	s4,120(sp)
 800587e:	dad6                	sw	s5,116(sp)
 8005880:	d8da                	sw	s6,112(sp)
 8005882:	d6de                	sw	s7,108(sp)
 8005884:	d4e2                	sw	s8,104(sp)
 8005886:	d2e6                	sw	s9,100(sp)
 8005888:	d0ea                	sw	s10,96(sp)
 800588a:	ceee                	sw	s11,92(sp)
 800588c:	c636                	sw	a3,12(sp)
 800588e:	c28a                	sw	sp,68(sp)
 8005890:	cc3a                	sw	a4,24(sp)
 8005892:	ca2e                	sw	a1,20(sp)
 8005894:	c832                	sw	a2,16(sp)
 8005896:	fffff097          	auipc	ra,0xfffff
 800589a:	a62080e7          	jalr	-1438(ra) # 80042f8 <_Unwind_SjLj_Register>
 800589e:	4785                	li	a5,1
 80058a0:	d03e                	sw	a5,32(sp)
 80058a2:	00002097          	auipc	ra,0x2
 80058a6:	d02080e7          	jalr	-766(ra) # 80075a4 <_ZN6miosix22getFileDescriptorTableEv>
 80058aa:	46c2                	lw	a3,16(sp)
 80058ac:	c6c9                	beqz	a3,8005936 <_fstat_r+0xee>
 80058ae:	4752                	lw	a4,20(sp)
 80058b0:	479d                	li	a5,7
 80058b2:	06e7e963          	bltu	a5,a4,8005924 <_fstat_r+0xdc>
 80058b6:	02850513          	addi	a0,a0,40
 80058ba:	00271793          	slli	a5,a4,0x2
 80058be:	953e                	add	a0,a0,a5
 80058c0:	4110                	lw	a2,0(a0)
 80058c2:	c432                	sw	a2,8(sp)
 80058c4:	c225                	beqz	a2,8005924 <_fstat_r+0xdc>
 80058c6:	425c                	lw	a5,4(a2)
 80058c8:	4218                	lw	a4,0(a2)
 80058ca:	85b6                	mv	a1,a3
 80058cc:	0785                	addi	a5,a5,1
 80058ce:	4758                	lw	a4,12(a4)
 80058d0:	c25c                	sw	a5,4(a2)
 80058d2:	4789                	li	a5,2
 80058d4:	d03e                	sw	a5,32(sp)
 80058d6:	8532                	mv	a0,a2
 80058d8:	9702                	jalr	a4
 80058da:	4622                	lw	a2,8(sp)
 80058dc:	4705                	li	a4,1
 80058de:	c42a                	sw	a0,8(sp)
 80058e0:	4254                	lw	a3,4(a2)
 80058e2:	425c                	lw	a5,4(a2)
 80058e4:	17fd                	addi	a5,a5,-1
 80058e6:	c25c                	sw	a5,4(a2)
 80058e8:	00e69663          	bne	a3,a4,80058f4 <_fstat_r+0xac>
 80058ec:	421c                	lw	a5,0(a2)
 80058ee:	8532                	mv	a0,a2
 80058f0:	53dc                	lw	a5,36(a5)
 80058f2:	9782                	jalr	a5
 80058f4:	47a2                	lw	a5,8(sp)
 80058f6:	0207cd63          	bltz	a5,8005930 <_fstat_r+0xe8>
 80058fa:	4532                	lw	a0,12(sp)
 80058fc:	fffff097          	auipc	ra,0xfffff
 8005900:	a1e080e7          	jalr	-1506(ra) # 800431a <_Unwind_SjLj_Unregister>
 8005904:	40ba                	lw	ra,140(sp)
 8005906:	442a                	lw	s0,136(sp)
 8005908:	4522                	lw	a0,8(sp)
 800590a:	449a                	lw	s1,132(sp)
 800590c:	490a                	lw	s2,128(sp)
 800590e:	59f6                	lw	s3,124(sp)
 8005910:	5a66                	lw	s4,120(sp)
 8005912:	5ad6                	lw	s5,116(sp)
 8005914:	5b46                	lw	s6,112(sp)
 8005916:	5bb6                	lw	s7,108(sp)
 8005918:	5c26                	lw	s8,104(sp)
 800591a:	5c96                	lw	s9,100(sp)
 800591c:	5d06                	lw	s10,96(sp)
 800591e:	4df6                	lw	s11,92(sp)
 8005920:	6149                	addi	sp,sp,144
 8005922:	8082                	ret
 8005924:	47a5                	li	a5,9
 8005926:	4762                	lw	a4,24(sp)
 8005928:	c31c                	sw	a5,0(a4)
 800592a:	57fd                	li	a5,-1
 800592c:	c43e                	sw	a5,8(sp)
 800592e:	b7f1                	j	80058fa <_fstat_r+0xb2>
 8005930:	40f007b3          	neg	a5,a5
 8005934:	bfcd                	j	8005926 <_fstat_r+0xde>
 8005936:	47b9                	li	a5,14
 8005938:	b7fd                	j	8005926 <_fstat_r+0xde>
 800593a:	5712                	lw	a4,36(sp)
 800593c:	5782                	lw	a5,32(sp)
 800593e:	c63a                	sw	a4,12(sp)
 8005940:	5722                	lw	a4,40(sp)
 8005942:	c83a                	sw	a4,16(sp)
 8005944:	e795                	bnez	a5,8005970 <_fstat_r+0x128>
 8005946:	4742                	lw	a4,16(sp)
 8005948:	4785                	li	a5,1
 800594a:	04f71263          	bne	a4,a5,800598e <_fstat_r+0x146>
 800594e:	4532                	lw	a0,12(sp)
 8005950:	00002097          	auipc	ra,0x2
 8005954:	0be080e7          	jalr	190(ra) # 8007a0e <__cxa_begin_catch>
 8005958:	4762                	lw	a4,24(sp)
 800595a:	47b1                	li	a5,12
 800595c:	c31c                	sw	a5,0(a4)
 800595e:	00002097          	auipc	ra,0x2
 8005962:	12e080e7          	jalr	302(ra) # 8007a8c <__cxa_end_catch>
 8005966:	57fd                	li	a5,-1
 8005968:	c43e                	sw	a5,8(sp)
 800596a:	087c                	addi	a5,sp,28
 800596c:	c63e                	sw	a5,12(sp)
 800596e:	b771                	j	80058fa <_fstat_r+0xb2>
 8005970:	17fd                	addi	a5,a5,-1
 8005972:	e78d                	bnez	a5,800599c <_fstat_r+0x154>
 8005974:	4622                	lw	a2,8(sp)
 8005976:	4705                	li	a4,1
 8005978:	4254                	lw	a3,4(a2)
 800597a:	425c                	lw	a5,4(a2)
 800597c:	17fd                	addi	a5,a5,-1
 800597e:	c25c                	sw	a5,4(a2)
 8005980:	fce693e3          	bne	a3,a4,8005946 <_fstat_r+0xfe>
 8005984:	421c                	lw	a5,0(a2)
 8005986:	8532                	mv	a0,a2
 8005988:	53dc                	lw	a5,36(a5)
 800598a:	9782                	jalr	a5
 800598c:	bf6d                	j	8005946 <_fstat_r+0xfe>
 800598e:	4532                	lw	a0,12(sp)
 8005990:	57fd                	li	a5,-1
 8005992:	d03e                	sw	a5,32(sp)
 8005994:	fffff097          	auipc	ra,0xfffff
 8005998:	ab8080e7          	jalr	-1352(ra) # 800444c <_Unwind_SjLj_Resume>
 800599c:	9002                	ebreak

0800599e <_isatty_r>:
 800599e:	080087b7          	lui	a5,0x8008
 80059a2:	7175                	addi	sp,sp,-144
 80059a4:	ec878793          	addi	a5,a5,-312 # 8007ec8 <__gxx_personality_sj0>
 80059a8:	da3e                	sw	a5,52(sp)
 80059aa:	0800a7b7          	lui	a5,0x800a
 80059ae:	8b478793          	addi	a5,a5,-1868 # 80098b4 <_GLOBAL__sub_I__ZSt7nothrow+0xb6>
 80059b2:	dc3e                	sw	a5,56(sp)
 80059b4:	089c                	addi	a5,sp,80
 80059b6:	0874                	addi	a3,sp,28
 80059b8:	de3e                	sw	a5,60(sp)
 80059ba:	080067b7          	lui	a5,0x8006
 80059be:	872a                	mv	a4,a0
 80059c0:	a8678793          	addi	a5,a5,-1402 # 8005a86 <_isatty_r+0xe8>
 80059c4:	8536                	mv	a0,a3
 80059c6:	c0be                	sw	a5,64(sp)
 80059c8:	c706                	sw	ra,140(sp)
 80059ca:	c522                	sw	s0,136(sp)
 80059cc:	c326                	sw	s1,132(sp)
 80059ce:	c14a                	sw	s2,128(sp)
 80059d0:	dece                	sw	s3,124(sp)
 80059d2:	dcd2                	sw	s4,120(sp)
 80059d4:	dad6                	sw	s5,116(sp)
 80059d6:	d8da                	sw	s6,112(sp)
 80059d8:	d6de                	sw	s7,108(sp)
 80059da:	d4e2                	sw	s8,104(sp)
 80059dc:	d2e6                	sw	s9,100(sp)
 80059de:	d0ea                	sw	s10,96(sp)
 80059e0:	ceee                	sw	s11,92(sp)
 80059e2:	c836                	sw	a3,16(sp)
 80059e4:	c28a                	sw	sp,68(sp)
 80059e6:	cc3a                	sw	a4,24(sp)
 80059e8:	ca2e                	sw	a1,20(sp)
 80059ea:	fffff097          	auipc	ra,0xfffff
 80059ee:	90e080e7          	jalr	-1778(ra) # 80042f8 <_Unwind_SjLj_Register>
 80059f2:	4785                	li	a5,1
 80059f4:	d03e                	sw	a5,32(sp)
 80059f6:	00002097          	auipc	ra,0x2
 80059fa:	bae080e7          	jalr	-1106(ra) # 80075a4 <_ZN6miosix22getFileDescriptorTableEv>
 80059fe:	4752                	lw	a4,20(sp)
 8005a00:	479d                	li	a5,7
 8005a02:	06e7e863          	bltu	a5,a4,8005a72 <_isatty_r+0xd4>
 8005a06:	02850513          	addi	a0,a0,40
 8005a0a:	00271793          	slli	a5,a4,0x2
 8005a0e:	953e                	add	a0,a0,a5
 8005a10:	4110                	lw	a2,0(a0)
 8005a12:	c632                	sw	a2,12(sp)
 8005a14:	ce39                	beqz	a2,8005a72 <_isatty_r+0xd4>
 8005a16:	425c                	lw	a5,4(a2)
 8005a18:	4218                	lw	a4,0(a2)
 8005a1a:	8532                	mv	a0,a2
 8005a1c:	0785                	addi	a5,a5,1
 8005a1e:	4b18                	lw	a4,16(a4)
 8005a20:	c25c                	sw	a5,4(a2)
 8005a22:	4789                	li	a5,2
 8005a24:	d03e                	sw	a5,32(sp)
 8005a26:	9702                	jalr	a4
 8005a28:	4632                	lw	a2,12(sp)
 8005a2a:	4705                	li	a4,1
 8005a2c:	c62a                	sw	a0,12(sp)
 8005a2e:	4254                	lw	a3,4(a2)
 8005a30:	425c                	lw	a5,4(a2)
 8005a32:	17fd                	addi	a5,a5,-1
 8005a34:	c25c                	sw	a5,4(a2)
 8005a36:	00e69663          	bne	a3,a4,8005a42 <_isatty_r+0xa4>
 8005a3a:	421c                	lw	a5,0(a2)
 8005a3c:	8532                	mv	a0,a2
 8005a3e:	53dc                	lw	a5,36(a5)
 8005a40:	9782                	jalr	a5
 8005a42:	47b2                	lw	a5,12(sp)
 8005a44:	0207cd63          	bltz	a5,8005a7e <_isatty_r+0xe0>
 8005a48:	4542                	lw	a0,16(sp)
 8005a4a:	fffff097          	auipc	ra,0xfffff
 8005a4e:	8d0080e7          	jalr	-1840(ra) # 800431a <_Unwind_SjLj_Unregister>
 8005a52:	40ba                	lw	ra,140(sp)
 8005a54:	442a                	lw	s0,136(sp)
 8005a56:	4532                	lw	a0,12(sp)
 8005a58:	449a                	lw	s1,132(sp)
 8005a5a:	490a                	lw	s2,128(sp)
 8005a5c:	59f6                	lw	s3,124(sp)
 8005a5e:	5a66                	lw	s4,120(sp)
 8005a60:	5ad6                	lw	s5,116(sp)
 8005a62:	5b46                	lw	s6,112(sp)
 8005a64:	5bb6                	lw	s7,108(sp)
 8005a66:	5c26                	lw	s8,104(sp)
 8005a68:	5c96                	lw	s9,100(sp)
 8005a6a:	5d06                	lw	s10,96(sp)
 8005a6c:	4df6                	lw	s11,92(sp)
 8005a6e:	6149                	addi	sp,sp,144
 8005a70:	8082                	ret
 8005a72:	47a5                	li	a5,9
 8005a74:	4762                	lw	a4,24(sp)
 8005a76:	c31c                	sw	a5,0(a4)
 8005a78:	57fd                	li	a5,-1
 8005a7a:	c63e                	sw	a5,12(sp)
 8005a7c:	b7f1                	j	8005a48 <_isatty_r+0xaa>
 8005a7e:	47b2                	lw	a5,12(sp)
 8005a80:	40f007b3          	neg	a5,a5
 8005a84:	bfc5                	j	8005a74 <_isatty_r+0xd6>
 8005a86:	5712                	lw	a4,36(sp)
 8005a88:	5782                	lw	a5,32(sp)
 8005a8a:	c83a                	sw	a4,16(sp)
 8005a8c:	5722                	lw	a4,40(sp)
 8005a8e:	ca3a                	sw	a4,20(sp)
 8005a90:	e795                	bnez	a5,8005abc <_isatty_r+0x11e>
 8005a92:	4752                	lw	a4,20(sp)
 8005a94:	4785                	li	a5,1
 8005a96:	04f71263          	bne	a4,a5,8005ada <_isatty_r+0x13c>
 8005a9a:	4542                	lw	a0,16(sp)
 8005a9c:	00002097          	auipc	ra,0x2
 8005aa0:	f72080e7          	jalr	-142(ra) # 8007a0e <__cxa_begin_catch>
 8005aa4:	4762                	lw	a4,24(sp)
 8005aa6:	47b1                	li	a5,12
 8005aa8:	c31c                	sw	a5,0(a4)
 8005aaa:	00002097          	auipc	ra,0x2
 8005aae:	fe2080e7          	jalr	-30(ra) # 8007a8c <__cxa_end_catch>
 8005ab2:	57fd                	li	a5,-1
 8005ab4:	c63e                	sw	a5,12(sp)
 8005ab6:	087c                	addi	a5,sp,28
 8005ab8:	c83e                	sw	a5,16(sp)
 8005aba:	b779                	j	8005a48 <_isatty_r+0xaa>
 8005abc:	17fd                	addi	a5,a5,-1
 8005abe:	e78d                	bnez	a5,8005ae8 <_isatty_r+0x14a>
 8005ac0:	4632                	lw	a2,12(sp)
 8005ac2:	4705                	li	a4,1
 8005ac4:	4254                	lw	a3,4(a2)
 8005ac6:	425c                	lw	a5,4(a2)
 8005ac8:	17fd                	addi	a5,a5,-1
 8005aca:	c25c                	sw	a5,4(a2)
 8005acc:	fce693e3          	bne	a3,a4,8005a92 <_isatty_r+0xf4>
 8005ad0:	421c                	lw	a5,0(a2)
 8005ad2:	8532                	mv	a0,a2
 8005ad4:	53dc                	lw	a5,36(a5)
 8005ad6:	9782                	jalr	a5
 8005ad8:	bf6d                	j	8005a92 <_isatty_r+0xf4>
 8005ada:	4542                	lw	a0,16(sp)
 8005adc:	57fd                	li	a5,-1
 8005ade:	d03e                	sw	a5,32(sp)
 8005ae0:	fffff097          	auipc	ra,0xfffff
 8005ae4:	96c080e7          	jalr	-1684(ra) # 800444c <_Unwind_SjLj_Resume>
 8005ae8:	9002                	ebreak

08005aea <_ioctl_r>:
 8005aea:	080087b7          	lui	a5,0x8008
 8005aee:	7175                	addi	sp,sp,-144
 8005af0:	ec878793          	addi	a5,a5,-312 # 8007ec8 <__gxx_personality_sj0>
 8005af4:	da3e                	sw	a5,52(sp)
 8005af6:	0800a7b7          	lui	a5,0x800a
 8005afa:	8c878793          	addi	a5,a5,-1848 # 80098c8 <_GLOBAL__sub_I__ZSt7nothrow+0xca>
 8005afe:	dc3e                	sw	a5,56(sp)
 8005b00:	089c                	addi	a5,sp,80
 8005b02:	c522                	sw	s0,136(sp)
 8005b04:	de3e                	sw	a5,60(sp)
 8005b06:	0860                	addi	s0,sp,28
 8005b08:	080067b7          	lui	a5,0x8006
 8005b0c:	872a                	mv	a4,a0
 8005b0e:	bd878793          	addi	a5,a5,-1064 # 8005bd8 <_ioctl_r+0xee>
 8005b12:	8522                	mv	a0,s0
 8005b14:	c0be                	sw	a5,64(sp)
 8005b16:	c706                	sw	ra,140(sp)
 8005b18:	c326                	sw	s1,132(sp)
 8005b1a:	c14a                	sw	s2,128(sp)
 8005b1c:	dece                	sw	s3,124(sp)
 8005b1e:	dcd2                	sw	s4,120(sp)
 8005b20:	dad6                	sw	s5,116(sp)
 8005b22:	d8da                	sw	s6,112(sp)
 8005b24:	d6de                	sw	s7,108(sp)
 8005b26:	d4e2                	sw	s8,104(sp)
 8005b28:	d2e6                	sw	s9,100(sp)
 8005b2a:	d0ea                	sw	s10,96(sp)
 8005b2c:	ceee                	sw	s11,92(sp)
 8005b2e:	c422                	sw	s0,8(sp)
 8005b30:	c28a                	sw	sp,68(sp)
 8005b32:	cc3a                	sw	a4,24(sp)
 8005b34:	c62e                	sw	a1,12(sp)
 8005b36:	c832                	sw	a2,16(sp)
 8005b38:	ca36                	sw	a3,20(sp)
 8005b3a:	ffffe097          	auipc	ra,0xffffe
 8005b3e:	7be080e7          	jalr	1982(ra) # 80042f8 <_Unwind_SjLj_Register>
 8005b42:	4785                	li	a5,1
 8005b44:	d03e                	sw	a5,32(sp)
 8005b46:	00002097          	auipc	ra,0x2
 8005b4a:	a5e080e7          	jalr	-1442(ra) # 80075a4 <_ZN6miosix22getFileDescriptorTableEv>
 8005b4e:	4732                	lw	a4,12(sp)
 8005b50:	479d                	li	a5,7
 8005b52:	06e7e963          	bltu	a5,a4,8005bc4 <_ioctl_r+0xda>
 8005b56:	02850513          	addi	a0,a0,40
 8005b5a:	00271793          	slli	a5,a4,0x2
 8005b5e:	953e                	add	a0,a0,a5
 8005b60:	4108                	lw	a0,0(a0)
 8005b62:	c22a                	sw	a0,4(sp)
 8005b64:	c125                	beqz	a0,8005bc4 <_ioctl_r+0xda>
 8005b66:	415c                	lw	a5,4(a0)
 8005b68:	4118                	lw	a4,0(a0)
 8005b6a:	4652                	lw	a2,20(sp)
 8005b6c:	0785                	addi	a5,a5,1
 8005b6e:	4f18                	lw	a4,24(a4)
 8005b70:	45c2                	lw	a1,16(sp)
 8005b72:	c15c                	sw	a5,4(a0)
 8005b74:	4789                	li	a5,2
 8005b76:	d03e                	sw	a5,32(sp)
 8005b78:	9702                	jalr	a4
 8005b7a:	4612                	lw	a2,4(sp)
 8005b7c:	4705                	li	a4,1
 8005b7e:	c22a                	sw	a0,4(sp)
 8005b80:	4254                	lw	a3,4(a2)
 8005b82:	425c                	lw	a5,4(a2)
 8005b84:	17fd                	addi	a5,a5,-1
 8005b86:	c25c                	sw	a5,4(a2)
 8005b88:	00e69663          	bne	a3,a4,8005b94 <_ioctl_r+0xaa>
 8005b8c:	421c                	lw	a5,0(a2)
 8005b8e:	8532                	mv	a0,a2
 8005b90:	53dc                	lw	a5,36(a5)
 8005b92:	9782                	jalr	a5
 8005b94:	4792                	lw	a5,4(sp)
 8005b96:	0207cd63          	bltz	a5,8005bd0 <_ioctl_r+0xe6>
 8005b9a:	4522                	lw	a0,8(sp)
 8005b9c:	ffffe097          	auipc	ra,0xffffe
 8005ba0:	77e080e7          	jalr	1918(ra) # 800431a <_Unwind_SjLj_Unregister>
 8005ba4:	40ba                	lw	ra,140(sp)
 8005ba6:	442a                	lw	s0,136(sp)
 8005ba8:	4512                	lw	a0,4(sp)
 8005baa:	449a                	lw	s1,132(sp)
 8005bac:	490a                	lw	s2,128(sp)
 8005bae:	59f6                	lw	s3,124(sp)
 8005bb0:	5a66                	lw	s4,120(sp)
 8005bb2:	5ad6                	lw	s5,116(sp)
 8005bb4:	5b46                	lw	s6,112(sp)
 8005bb6:	5bb6                	lw	s7,108(sp)
 8005bb8:	5c26                	lw	s8,104(sp)
 8005bba:	5c96                	lw	s9,100(sp)
 8005bbc:	5d06                	lw	s10,96(sp)
 8005bbe:	4df6                	lw	s11,92(sp)
 8005bc0:	6149                	addi	sp,sp,144
 8005bc2:	8082                	ret
 8005bc4:	47a5                	li	a5,9
 8005bc6:	4762                	lw	a4,24(sp)
 8005bc8:	c31c                	sw	a5,0(a4)
 8005bca:	57fd                	li	a5,-1
 8005bcc:	c23e                	sw	a5,4(sp)
 8005bce:	b7f1                	j	8005b9a <_ioctl_r+0xb0>
 8005bd0:	4792                	lw	a5,4(sp)
 8005bd2:	40f007b3          	neg	a5,a5
 8005bd6:	bfc5                	j	8005bc6 <_ioctl_r+0xdc>
 8005bd8:	5712                	lw	a4,36(sp)
 8005bda:	5782                	lw	a5,32(sp)
 8005bdc:	c43a                	sw	a4,8(sp)
 8005bde:	5722                	lw	a4,40(sp)
 8005be0:	c63a                	sw	a4,12(sp)
 8005be2:	e795                	bnez	a5,8005c0e <_ioctl_r+0x124>
 8005be4:	4732                	lw	a4,12(sp)
 8005be6:	4785                	li	a5,1
 8005be8:	04f71263          	bne	a4,a5,8005c2c <_ioctl_r+0x142>
 8005bec:	4522                	lw	a0,8(sp)
 8005bee:	00002097          	auipc	ra,0x2
 8005bf2:	e20080e7          	jalr	-480(ra) # 8007a0e <__cxa_begin_catch>
 8005bf6:	4762                	lw	a4,24(sp)
 8005bf8:	47b1                	li	a5,12
 8005bfa:	c31c                	sw	a5,0(a4)
 8005bfc:	00002097          	auipc	ra,0x2
 8005c00:	e90080e7          	jalr	-368(ra) # 8007a8c <__cxa_end_catch>
 8005c04:	57fd                	li	a5,-1
 8005c06:	c23e                	sw	a5,4(sp)
 8005c08:	087c                	addi	a5,sp,28
 8005c0a:	c43e                	sw	a5,8(sp)
 8005c0c:	b779                	j	8005b9a <_ioctl_r+0xb0>
 8005c0e:	17fd                	addi	a5,a5,-1
 8005c10:	e78d                	bnez	a5,8005c3a <_ioctl_r+0x150>
 8005c12:	4612                	lw	a2,4(sp)
 8005c14:	4705                	li	a4,1
 8005c16:	4254                	lw	a3,4(a2)
 8005c18:	425c                	lw	a5,4(a2)
 8005c1a:	17fd                	addi	a5,a5,-1
 8005c1c:	c25c                	sw	a5,4(a2)
 8005c1e:	fce693e3          	bne	a3,a4,8005be4 <_ioctl_r+0xfa>
 8005c22:	421c                	lw	a5,0(a2)
 8005c24:	8532                	mv	a0,a2
 8005c26:	53dc                	lw	a5,36(a5)
 8005c28:	9782                	jalr	a5
 8005c2a:	bf6d                	j	8005be4 <_ioctl_r+0xfa>
 8005c2c:	4522                	lw	a0,8(sp)
 8005c2e:	57fd                	li	a5,-1
 8005c30:	d03e                	sw	a5,32(sp)
 8005c32:	fffff097          	auipc	ra,0xfffff
 8005c36:	81a080e7          	jalr	-2022(ra) # 800444c <_Unwind_SjLj_Resume>
 8005c3a:	9002                	ebreak

08005c3c <ioctl>:
 8005c3c:	200017b7          	lui	a5,0x20001
 8005c40:	85c7a783          	lw	a5,-1956(a5) # 2000085c <_ZN6miosixL8getReentE>
 8005c44:	1141                	addi	sp,sp,-16
 8005c46:	c422                	sw	s0,8(sp)
 8005c48:	c226                	sw	s1,4(sp)
 8005c4a:	c04a                	sw	s2,0(sp)
 8005c4c:	c606                	sw	ra,12(sp)
 8005c4e:	84ae                	mv	s1,a1
 8005c50:	8932                	mv	s2,a2
 8005c52:	842a                	mv	s0,a0
 8005c54:	9782                	jalr	a5
 8005c56:	85a2                	mv	a1,s0
 8005c58:	4422                	lw	s0,8(sp)
 8005c5a:	40b2                	lw	ra,12(sp)
 8005c5c:	86ca                	mv	a3,s2
 8005c5e:	8626                	mv	a2,s1
 8005c60:	4902                	lw	s2,0(sp)
 8005c62:	4492                	lw	s1,4(sp)
 8005c64:	0141                	addi	sp,sp,16
 8005c66:	00000317          	auipc	t1,0x0
 8005c6a:	e8430067          	jr	-380(t1) # 8005aea <_ioctl_r>

08005c6e <_kill_r>:
 8005c6e:	c199                	beqz	a1,8005c74 <_kill_r+0x6>
 8005c70:	557d                	li	a0,-1
 8005c72:	8082                	ret
 8005c74:	1141                	addi	sp,sp,-16
 8005c76:	c606                	sw	ra,12(sp)
 8005c78:	00000097          	auipc	ra,0x0
 8005c7c:	338080e7          	jalr	824(ra) # 8005fb0 <_ZN6miosix6rebootEv>
 8005c80:	a001                	j	8005c80 <_kill_r+0x12>

08005c82 <_getpid_r>:
 8005c82:	4501                	li	a0,0
 8005c84:	8082                	ret

08005c86 <__cxa_get_globals_fast>:
 8005c86:	1141                	addi	sp,sp,-16
 8005c88:	c606                	sw	ra,12(sp)
 8005c8a:	00001097          	auipc	ra,0x1
 8005c8e:	dcc080e7          	jalr	-564(ra) # 8006a56 <_ZN6miosix6Thread19IRQgetCurrentThreadEv>
 8005c92:	40b2                	lw	ra,12(sp)
 8005c94:	0a850513          	addi	a0,a0,168
 8005c98:	0141                	addi	sp,sp,16
 8005c9a:	8082                	ret

08005c9c <__cxa_get_globals>:
 8005c9c:	1141                	addi	sp,sp,-16
 8005c9e:	c606                	sw	ra,12(sp)
 8005ca0:	00001097          	auipc	ra,0x1
 8005ca4:	db6080e7          	jalr	-586(ra) # 8006a56 <_ZN6miosix6Thread19IRQgetCurrentThreadEv>
 8005ca8:	40b2                	lw	ra,12(sp)
 8005caa:	0a850513          	addi	a0,a0,168
 8005cae:	0141                	addi	sp,sp,16
 8005cb0:	8082                	ret

08005cb2 <_Miosix_set_sjlj_ptr>:
 8005cb2:	1141                	addi	sp,sp,-16
 8005cb4:	c422                	sw	s0,8(sp)
 8005cb6:	c606                	sw	ra,12(sp)
 8005cb8:	842a                	mv	s0,a0
 8005cba:	00001097          	auipc	ra,0x1
 8005cbe:	d9c080e7          	jalr	-612(ra) # 8006a56 <_ZN6miosix6Thread19IRQgetCurrentThreadEv>
 8005cc2:	40b2                	lw	ra,12(sp)
 8005cc4:	0a852823          	sw	s0,176(a0)
 8005cc8:	4422                	lw	s0,8(sp)
 8005cca:	0141                	addi	sp,sp,16
 8005ccc:	8082                	ret

08005cce <_Miosix_get_sjlj_ptr>:
 8005cce:	1141                	addi	sp,sp,-16
 8005cd0:	c606                	sw	ra,12(sp)
 8005cd2:	00001097          	auipc	ra,0x1
 8005cd6:	d84080e7          	jalr	-636(ra) # 8006a56 <_ZN6miosix6Thread19IRQgetCurrentThreadEv>
 8005cda:	40b2                	lw	ra,12(sp)
 8005cdc:	0b052503          	lw	a0,176(a0)
 8005ce0:	0141                	addi	sp,sp,16
 8005ce2:	8082                	ret

08005ce4 <_ZN9__gnu_cxx27__verbose_terminate_handlerEv>:
 8005ce4:	0800a537          	lui	a0,0x800a
 8005ce8:	1141                	addi	sp,sp,-16
 8005cea:	15c50513          	addi	a0,a0,348 # 800a15c <_ZTVN6miosix6DeviceE+0x24>
 8005cee:	c606                	sw	ra,12(sp)
 8005cf0:	fffff097          	auipc	ra,0xfffff
 8005cf4:	924080e7          	jalr	-1756(ra) # 8004614 <_Z8errorLogPKcz>
 8005cf8:	4505                	li	a0,1
 8005cfa:	fffff097          	auipc	ra,0xfffff
 8005cfe:	5b0080e7          	jalr	1456(ra) # 80052aa <_exit>

08005d02 <__cxa_guard_acquire>:
 8005d02:	080087b7          	lui	a5,0x8008
 8005d06:	715d                	addi	sp,sp,-80
 8005d08:	ec878793          	addi	a5,a5,-312 # 8007ec8 <__gxx_personality_sj0>
 8005d0c:	d23e                	sw	a5,36(sp)
 8005d0e:	0800a7b7          	lui	a5,0x800a
 8005d12:	8dc78793          	addi	a5,a5,-1828 # 80098dc <_GLOBAL__sub_I__ZSt7nothrow+0xde>
 8005d16:	d43e                	sw	a5,40(sp)
 8005d18:	009c                	addi	a5,sp,64
 8005d1a:	d63e                	sw	a5,44(sp)
 8005d1c:	080067b7          	lui	a5,0x8006
 8005d20:	872a                	mv	a4,a0
 8005d22:	e3878793          	addi	a5,a5,-456 # 8005e38 <__cxa_guard_acquire+0x136>
 8005d26:	0068                	addi	a0,sp,12
 8005d28:	c03a                	sw	a4,0(sp)
 8005d2a:	c686                	sw	ra,76(sp)
 8005d2c:	d83e                	sw	a5,48(sp)
 8005d2e:	c4a2                	sw	s0,72(sp)
 8005d30:	da0a                	sw	sp,52(sp)
 8005d32:	ffffe097          	auipc	ra,0xffffe
 8005d36:	5c6080e7          	jalr	1478(ra) # 80042f8 <_Unwind_SjLj_Register>
 8005d3a:	57fd                	li	a5,-1
 8005d3c:	c83e                	sw	a5,16(sp)
 8005d3e:	00000097          	auipc	ra,0x0
 8005d42:	68a080e7          	jalr	1674(ra) # 80063c8 <_ZN6miosix17disableInterruptsEv>
 8005d46:	4782                	lw	a5,0(sp)
 8005d48:	4398                	lw	a4,0(a5)
 8005d4a:	4785                	li	a5,1
 8005d4c:	04f71563          	bne	a4,a5,8005d96 <__cxa_guard_acquire+0x94>
 8005d50:	a0a5                	j	8005db8 <__cxa_guard_acquire+0xb6>
 8005d52:	4782                	lw	a5,0(sp)
 8005d54:	4705                	li	a4,1
 8005d56:	439c                	lw	a5,0(a5)
 8005d58:	c83a                	sw	a4,16(sp)
 8005d5a:	c23e                	sw	a5,4(sp)
 8005d5c:	00001097          	auipc	ra,0x1
 8005d60:	cfa080e7          	jalr	-774(ra) # 8006a56 <_ZN6miosix6Thread19IRQgetCurrentThreadEv>
 8005d64:	4792                	lw	a5,4(sp)
 8005d66:	08a78163          	beq	a5,a0,8005de8 <__cxa_guard_acquire+0xe6>
 8005d6a:	4785                	li	a5,1
 8005d6c:	c83e                	sw	a5,16(sp)
 8005d6e:	00000097          	auipc	ra,0x0
 8005d72:	69e080e7          	jalr	1694(ra) # 800640c <_ZN6miosix16enableInterruptsEv>
 8005d76:	4689                	li	a3,2
 8005d78:	c836                	sw	a3,16(sp)
 8005d7a:	00001097          	auipc	ra,0x1
 8005d7e:	806080e7          	jalr	-2042(ra) # 8006580 <_ZN6miosix6Thread5yieldEv>
 8005d82:	c802                	sw	zero,16(sp)
 8005d84:	00000097          	auipc	ra,0x0
 8005d88:	644080e7          	jalr	1604(ra) # 80063c8 <_ZN6miosix17disableInterruptsEv>
 8005d8c:	4682                	lw	a3,0(sp)
 8005d8e:	4705                	li	a4,1
 8005d90:	429c                	lw	a5,0(a3)
 8005d92:	02e78363          	beq	a5,a4,8005db8 <__cxa_guard_acquire+0xb6>
 8005d96:	4782                	lw	a5,0(sp)
 8005d98:	439c                	lw	a5,0(a5)
 8005d9a:	ffc5                	bnez	a5,8005d52 <__cxa_guard_acquire+0x50>
 8005d9c:	4785                	li	a5,1
 8005d9e:	c83e                	sw	a5,16(sp)
 8005da0:	00001097          	auipc	ra,0x1
 8005da4:	cb6080e7          	jalr	-842(ra) # 8006a56 <_ZN6miosix6Thread19IRQgetCurrentThreadEv>
 8005da8:	4782                	lw	a5,0(sp)
 8005daa:	c388                	sw	a0,0(a5)
 8005dac:	439c                	lw	a5,0(a5)
 8005dae:	8b85                	andi	a5,a5,1
 8005db0:	e785                	bnez	a5,8005dd8 <__cxa_guard_acquire+0xd6>
 8005db2:	4785                	li	a5,1
 8005db4:	c03e                	sw	a5,0(sp)
 8005db6:	a011                	j	8005dba <__cxa_guard_acquire+0xb8>
 8005db8:	c002                	sw	zero,0(sp)
 8005dba:	c802                	sw	zero,16(sp)
 8005dbc:	00000097          	auipc	ra,0x0
 8005dc0:	650080e7          	jalr	1616(ra) # 800640c <_ZN6miosix16enableInterruptsEv>
 8005dc4:	0068                	addi	a0,sp,12
 8005dc6:	ffffe097          	auipc	ra,0xffffe
 8005dca:	554080e7          	jalr	1364(ra) # 800431a <_Unwind_SjLj_Unregister>
 8005dce:	40b6                	lw	ra,76(sp)
 8005dd0:	4426                	lw	s0,72(sp)
 8005dd2:	4502                	lw	a0,0(sp)
 8005dd4:	6161                	addi	sp,sp,80
 8005dd6:	8082                	ret
 8005dd8:	4785                	li	a5,1
 8005dda:	4509                	li	a0,2
 8005ddc:	c83e                	sw	a5,16(sp)
 8005dde:	00001097          	auipc	ra,0x1
 8005de2:	d56080e7          	jalr	-682(ra) # 8006b34 <_ZN6miosix12errorHandlerENS_5ErrorE>
 8005de6:	b7f1                	j	8005db2 <__cxa_guard_acquire+0xb0>
 8005de8:	fffff097          	auipc	ra,0xfffff
 8005dec:	2f6080e7          	jalr	758(ra) # 80050de <_ZN6miosix14DefaultConsole8instanceEv>
 8005df0:	4118                	lw	a4,0(a0)
 8005df2:	c43a                	sw	a4,8(sp)
 8005df4:	c701                	beqz	a4,8005dfc <__cxa_guard_acquire+0xfa>
 8005df6:	435c                	lw	a5,4(a4)
 8005df8:	0785                	addi	a5,a5,1
 8005dfa:	c35c                	sw	a5,4(a4)
 8005dfc:	46a2                	lw	a3,8(sp)
 8005dfe:	0800a5b7          	lui	a1,0x800a
 8005e02:	470d                	li	a4,3
 8005e04:	429c                	lw	a5,0(a3)
 8005e06:	17c58593          	addi	a1,a1,380 # 800a17c <_ZTVN6miosix6DeviceE+0x44>
 8005e0a:	8536                	mv	a0,a3
 8005e0c:	4bdc                	lw	a5,20(a5)
 8005e0e:	c83a                	sw	a4,16(sp)
 8005e10:	9782                	jalr	a5
 8005e12:	4622                	lw	a2,8(sp)
 8005e14:	4705                	li	a4,1
 8005e16:	4254                	lw	a3,4(a2)
 8005e18:	425c                	lw	a5,4(a2)
 8005e1a:	17fd                	addi	a5,a5,-1
 8005e1c:	c25c                	sw	a5,4(a2)
 8005e1e:	00e69663          	bne	a3,a4,8005e2a <__cxa_guard_acquire+0x128>
 8005e22:	421c                	lw	a5,0(a2)
 8005e24:	8532                	mv	a0,a2
 8005e26:	43dc                	lw	a5,4(a5)
 8005e28:	9782                	jalr	a5
 8005e2a:	4785                	li	a5,1
 8005e2c:	4505                	li	a0,1
 8005e2e:	c83e                	sw	a5,16(sp)
 8005e30:	fffff097          	auipc	ra,0xfffff
 8005e34:	47a080e7          	jalr	1146(ra) # 80052aa <_exit>
 8005e38:	4752                	lw	a4,20(sp)
 8005e3a:	47c2                	lw	a5,16(sp)
 8005e3c:	c03a                	sw	a4,0(sp)
 8005e3e:	ef89                	bnez	a5,8005e58 <__cxa_guard_acquire+0x156>
 8005e40:	c802                	sw	zero,16(sp)
 8005e42:	00000097          	auipc	ra,0x0
 8005e46:	5ca080e7          	jalr	1482(ra) # 800640c <_ZN6miosix16enableInterruptsEv>
 8005e4a:	4502                	lw	a0,0(sp)
 8005e4c:	57fd                	li	a5,-1
 8005e4e:	c83e                	sw	a5,16(sp)
 8005e50:	ffffe097          	auipc	ra,0xffffe
 8005e54:	5fc080e7          	jalr	1532(ra) # 800444c <_Unwind_SjLj_Resume>
 8005e58:	17fd                	addi	a5,a5,-1
 8005e5a:	e799                	bnez	a5,8005e68 <__cxa_guard_acquire+0x166>
 8005e5c:	c802                	sw	zero,16(sp)
 8005e5e:	00000097          	auipc	ra,0x0
 8005e62:	56a080e7          	jalr	1386(ra) # 80063c8 <_ZN6miosix17disableInterruptsEv>
 8005e66:	bfe9                	j	8005e40 <__cxa_guard_acquire+0x13e>
 8005e68:	17fd                	addi	a5,a5,-1
 8005e6a:	ef91                	bnez	a5,8005e86 <__cxa_guard_acquire+0x184>
 8005e6c:	4622                	lw	a2,8(sp)
 8005e6e:	4705                	li	a4,1
 8005e70:	4254                	lw	a3,4(a2)
 8005e72:	425c                	lw	a5,4(a2)
 8005e74:	17fd                	addi	a5,a5,-1
 8005e76:	c25c                	sw	a5,4(a2)
 8005e78:	fce694e3          	bne	a3,a4,8005e40 <__cxa_guard_acquire+0x13e>
 8005e7c:	421c                	lw	a5,0(a2)
 8005e7e:	8532                	mv	a0,a2
 8005e80:	43dc                	lw	a5,4(a5)
 8005e82:	9782                	jalr	a5
 8005e84:	bf75                	j	8005e40 <__cxa_guard_acquire+0x13e>
 8005e86:	9002                	ebreak

08005e88 <__cxa_guard_release>:
 8005e88:	080087b7          	lui	a5,0x8008
 8005e8c:	715d                	addi	sp,sp,-80
 8005e8e:	ec878793          	addi	a5,a5,-312 # 8007ec8 <__gxx_personality_sj0>
 8005e92:	d23e                	sw	a5,36(sp)
 8005e94:	0800a7b7          	lui	a5,0x800a
 8005e98:	c4a2                	sw	s0,72(sp)
 8005e9a:	8e678793          	addi	a5,a5,-1818 # 80098e6 <_GLOBAL__sub_I__ZSt7nothrow+0xe8>
 8005e9e:	842a                	mv	s0,a0
 8005ea0:	0068                	addi	a0,sp,12
 8005ea2:	c686                	sw	ra,76(sp)
 8005ea4:	d43e                	sw	a5,40(sp)
 8005ea6:	ffffe097          	auipc	ra,0xffffe
 8005eaa:	452080e7          	jalr	1106(ra) # 80042f8 <_Unwind_SjLj_Register>
 8005eae:	c802                	sw	zero,16(sp)
 8005eb0:	00000097          	auipc	ra,0x0
 8005eb4:	518080e7          	jalr	1304(ra) # 80063c8 <_ZN6miosix17disableInterruptsEv>
 8005eb8:	4785                	li	a5,1
 8005eba:	c01c                	sw	a5,0(s0)
 8005ebc:	00000097          	auipc	ra,0x0
 8005ec0:	550080e7          	jalr	1360(ra) # 800640c <_ZN6miosix16enableInterruptsEv>
 8005ec4:	0068                	addi	a0,sp,12
 8005ec6:	ffffe097          	auipc	ra,0xffffe
 8005eca:	454080e7          	jalr	1108(ra) # 800431a <_Unwind_SjLj_Unregister>
 8005ece:	40b6                	lw	ra,76(sp)
 8005ed0:	4426                	lw	s0,72(sp)
 8005ed2:	6161                	addi	sp,sp,80
 8005ed4:	8082                	ret

08005ed6 <__cxa_guard_abort>:
 8005ed6:	080087b7          	lui	a5,0x8008
 8005eda:	715d                	addi	sp,sp,-80
 8005edc:	ec878793          	addi	a5,a5,-312 # 8007ec8 <__gxx_personality_sj0>
 8005ee0:	d23e                	sw	a5,36(sp)
 8005ee2:	0800a7b7          	lui	a5,0x800a
 8005ee6:	c4a2                	sw	s0,72(sp)
 8005ee8:	8ea78793          	addi	a5,a5,-1814 # 80098ea <_GLOBAL__sub_I__ZSt7nothrow+0xec>
 8005eec:	842a                	mv	s0,a0
 8005eee:	0068                	addi	a0,sp,12
 8005ef0:	c686                	sw	ra,76(sp)
 8005ef2:	d43e                	sw	a5,40(sp)
 8005ef4:	ffffe097          	auipc	ra,0xffffe
 8005ef8:	404080e7          	jalr	1028(ra) # 80042f8 <_Unwind_SjLj_Register>
 8005efc:	c802                	sw	zero,16(sp)
 8005efe:	00000097          	auipc	ra,0x0
 8005f02:	4ca080e7          	jalr	1226(ra) # 80063c8 <_ZN6miosix17disableInterruptsEv>
 8005f06:	00042023          	sw	zero,0(s0)
 8005f0a:	00000097          	auipc	ra,0x0
 8005f0e:	502080e7          	jalr	1282(ra) # 800640c <_ZN6miosix16enableInterruptsEv>
 8005f12:	0068                	addi	a0,sp,12
 8005f14:	ffffe097          	auipc	ra,0xffffe
 8005f18:	406080e7          	jalr	1030(ra) # 800431a <_Unwind_SjLj_Unregister>
 8005f1c:	40b6                	lw	ra,76(sp)
 8005f1e:	4426                	lw	s0,72(sp)
 8005f20:	6161                	addi	sp,sp,80
 8005f22:	8082                	ret

08005f24 <_ZN6miosix15MemoryProfiling11getHeapSizeEv>:
 8005f24:	20008537          	lui	a0,0x20008
 8005f28:	200017b7          	lui	a5,0x20001
 8005f2c:	ba878793          	addi	a5,a5,-1112 # 20000ba8 <_bss_end>
 8005f30:	00050513          	mv	a0,a0
 8005f34:	8d1d                	sub	a0,a0,a5
 8005f36:	8082                	ret

08005f38 <_ZN6miosix15MemoryProfiling18getCurrentFreeHeapEv>:
 8005f38:	7139                	addi	sp,sp,-64
 8005f3a:	de06                	sw	ra,60(sp)
 8005f3c:	fffff097          	auipc	ra,0xfffff
 8005f40:	3d0080e7          	jalr	976(ra) # 800530c <__getreent>
 8005f44:	85aa                	mv	a1,a0
 8005f46:	0028                	addi	a0,sp,8
 8005f48:	ffffb097          	auipc	ra,0xffffb
 8005f4c:	9c6080e7          	jalr	-1594(ra) # 800090e <_mallinfo_r>
 8005f50:	5792                	lw	a5,36(sp)
 8005f52:	20001537          	lui	a0,0x20001
 8005f56:	50f2                	lw	ra,60(sp)
 8005f58:	ba850513          	addi	a0,a0,-1112 # 20000ba8 <_bss_end>
 8005f5c:	97aa                	add	a5,a5,a0
 8005f5e:	20008537          	lui	a0,0x20008
 8005f62:	00050513          	mv	a0,a0
 8005f66:	8d1d                	sub	a0,a0,a5
 8005f68:	6121                	addi	sp,sp,64
 8005f6a:	8082                	ret

08005f6c <_ZN6miosix16getMiosixVersionEv>:
 8005f6c:	0800a537          	lui	a0,0x800a
 8005f70:	a0c50513          	addi	a0,a0,-1524 # 8009a0c <_ZN6miosixL3verE>
 8005f74:	8082                	ret

08005f76 <_ZN6miosix10IRQbspInitEv>:
 8005f76:	1141                	addi	sp,sp,-16
 8005f78:	c422                	sw	s0,8(sp)
 8005f7a:	40011437          	lui	s0,0x40011
 8005f7e:	c226                	sw	s1,4(sp)
 8005f80:	c04a                	sw	s2,0(sp)
 8005f82:	c606                	sw	ra,12(sp)
 8005f84:	81040413          	addi	s0,s0,-2032 # 40010810 <_heap_end+0x20008810>
 8005f88:	00020937          	lui	s2,0x20
 8005f8c:	4489                	li	s1,2
 8005f8e:	01242023          	sw	s2,0(s0)
 8005f92:	3e800513          	li	a0,1000
 8005f96:	00000097          	auipc	ra,0x0
 8005f9a:	2f0080e7          	jalr	752(ra) # 8006286 <_ZN6miosix7delayMsEj>
 8005f9e:	3e800513          	li	a0,1000
 8005fa2:	c004                	sw	s1,0(s0)
 8005fa4:	00000097          	auipc	ra,0x0
 8005fa8:	2e2080e7          	jalr	738(ra) # 8006286 <_ZN6miosix7delayMsEj>
 8005fac:	b7cd                	j	8005f8e <_ZN6miosix10IRQbspInitEv+0x18>

08005fae <_ZN6miosix8bspInit2Ev>:
 8005fae:	8082                	ret

08005fb0 <_ZN6miosix6rebootEv>:
 8005fb0:	1141                	addi	sp,sp,-16
 8005fb2:	4601                	li	a2,0
 8005fb4:	06400593          	li	a1,100
 8005fb8:	4505                	li	a0,1
 8005fba:	c606                	sw	ra,12(sp)
 8005fbc:	00000097          	auipc	ra,0x0
 8005fc0:	c80080e7          	jalr	-896(ra) # 8005c3c <ioctl>
 8005fc4:	00000097          	auipc	ra,0x0
 8005fc8:	404080e7          	jalr	1028(ra) # 80063c8 <_ZN6miosix17disableInterruptsEv>
 8005fcc:	40b2                	lw	ra,12(sp)
 8005fce:	0141                	addi	sp,sp,16
 8005fd0:	00000317          	auipc	t1,0x0
 8005fd4:	0d230067          	jr	210(t1) # 80060a2 <_ZN14miosix_private15IRQsystemRebootEv>

08005fd8 <_ZN6miosix8shutdownEv>:
 8005fd8:	00000317          	auipc	t1,0x0
 8005fdc:	fd830067          	jr	-40(t1) # 8005fb0 <_ZN6miosix6rebootEv>

08005fe0 <_Z19unexpectedInterruptv>:
 8005fe0:	080087b7          	lui	a5,0x8008
 8005fe4:	715d                	addi	sp,sp,-80
 8005fe6:	ec878793          	addi	a5,a5,-312 # 8007ec8 <__gxx_personality_sj0>
 8005fea:	d23e                	sw	a5,36(sp)
 8005fec:	0800a7b7          	lui	a5,0x800a
 8005ff0:	8ee78793          	addi	a5,a5,-1810 # 80098ee <_GLOBAL__sub_I__ZSt7nothrow+0xf0>
 8005ff4:	d43e                	sw	a5,40(sp)
 8005ff6:	009c                	addi	a5,sp,64
 8005ff8:	d63e                	sw	a5,44(sp)
 8005ffa:	080067b7          	lui	a5,0x8006
 8005ffe:	07878793          	addi	a5,a5,120 # 8006078 <_Z19unexpectedInterruptv+0x98>
 8006002:	0068                	addi	a0,sp,12
 8006004:	c686                	sw	ra,76(sp)
 8006006:	d83e                	sw	a5,48(sp)
 8006008:	c4a2                	sw	s0,72(sp)
 800600a:	da0a                	sw	sp,52(sp)
 800600c:	ffffe097          	auipc	ra,0xffffe
 8006010:	2ec080e7          	jalr	748(ra) # 80042f8 <_Unwind_SjLj_Register>
 8006014:	57fd                	li	a5,-1
 8006016:	c83e                	sw	a5,16(sp)
 8006018:	fffff097          	auipc	ra,0xfffff
 800601c:	0c6080e7          	jalr	198(ra) # 80050de <_ZN6miosix14DefaultConsole8instanceEv>
 8006020:	4118                	lw	a4,0(a0)
 8006022:	c23a                	sw	a4,4(sp)
 8006024:	c701                	beqz	a4,800602c <_Z19unexpectedInterruptv+0x4c>
 8006026:	435c                	lw	a5,4(a4)
 8006028:	0785                	addi	a5,a5,1
 800602a:	c35c                	sw	a5,4(a4)
 800602c:	4692                	lw	a3,4(sp)
 800602e:	0800a5b7          	lui	a1,0x800a
 8006032:	4705                	li	a4,1
 8006034:	429c                	lw	a5,0(a3)
 8006036:	19858593          	addi	a1,a1,408 # 800a198 <_ZTVN6miosix6DeviceE+0x60>
 800603a:	8536                	mv	a0,a3
 800603c:	4bdc                	lw	a5,20(a5)
 800603e:	c83a                	sw	a4,16(sp)
 8006040:	9782                	jalr	a5
 8006042:	4612                	lw	a2,4(sp)
 8006044:	4705                	li	a4,1
 8006046:	4254                	lw	a3,4(a2)
 8006048:	425c                	lw	a5,4(a2)
 800604a:	17fd                	addi	a5,a5,-1
 800604c:	c25c                	sw	a5,4(a2)
 800604e:	00e69663          	bne	a3,a4,800605a <_Z19unexpectedInterruptv+0x7a>
 8006052:	421c                	lw	a5,0(a2)
 8006054:	8532                	mv	a0,a2
 8006056:	43dc                	lw	a5,4(a5)
 8006058:	9782                	jalr	a5
 800605a:	57fd                	li	a5,-1
 800605c:	c83e                	sw	a5,16(sp)
 800605e:	00000097          	auipc	ra,0x0
 8006062:	044080e7          	jalr	68(ra) # 80060a2 <_ZN14miosix_private15IRQsystemRebootEv>
 8006066:	0068                	addi	a0,sp,12
 8006068:	ffffe097          	auipc	ra,0xffffe
 800606c:	2b2080e7          	jalr	690(ra) # 800431a <_Unwind_SjLj_Unregister>
 8006070:	40b6                	lw	ra,76(sp)
 8006072:	4426                	lw	s0,72(sp)
 8006074:	6161                	addi	sp,sp,80
 8006076:	8082                	ret
 8006078:	4612                	lw	a2,4(sp)
 800607a:	4752                	lw	a4,20(sp)
 800607c:	4254                	lw	a3,4(a2)
 800607e:	425c                	lw	a5,4(a2)
 8006080:	c43a                	sw	a4,8(sp)
 8006082:	4705                	li	a4,1
 8006084:	17fd                	addi	a5,a5,-1
 8006086:	c25c                	sw	a5,4(a2)
 8006088:	00e69663          	bne	a3,a4,8006094 <_Z19unexpectedInterruptv+0xb4>
 800608c:	421c                	lw	a5,0(a2)
 800608e:	8532                	mv	a0,a2
 8006090:	43dc                	lw	a5,4(a5)
 8006092:	9782                	jalr	a5
 8006094:	4522                	lw	a0,8(sp)
 8006096:	57fd                	li	a5,-1
 8006098:	c83e                	sw	a5,16(sp)
 800609a:	ffffe097          	auipc	ra,0xffffe
 800609e:	3b2080e7          	jalr	946(ra) # 800444c <_Unwind_SjLj_Resume>

080060a2 <_ZN14miosix_private15IRQsystemRebootEv>:
 80060a2:	080087b7          	lui	a5,0x8008
 80060a6:	715d                	addi	sp,sp,-80
 80060a8:	ec878793          	addi	a5,a5,-312 # 8007ec8 <__gxx_personality_sj0>
 80060ac:	d23e                	sw	a5,36(sp)
 80060ae:	0800a7b7          	lui	a5,0x800a
 80060b2:	8f478793          	addi	a5,a5,-1804 # 80098f4 <_GLOBAL__sub_I__ZSt7nothrow+0xf6>
 80060b6:	d43e                	sw	a5,40(sp)
 80060b8:	009c                	addi	a5,sp,64
 80060ba:	d63e                	sw	a5,44(sp)
 80060bc:	080067b7          	lui	a5,0x8006
 80060c0:	13678793          	addi	a5,a5,310 # 8006136 <_ZN14miosix_private15IRQsystemRebootEv+0x94>
 80060c4:	0068                	addi	a0,sp,12
 80060c6:	c686                	sw	ra,76(sp)
 80060c8:	d83e                	sw	a5,48(sp)
 80060ca:	c4a2                	sw	s0,72(sp)
 80060cc:	da0a                	sw	sp,52(sp)
 80060ce:	ffffe097          	auipc	ra,0xffffe
 80060d2:	22a080e7          	jalr	554(ra) # 80042f8 <_Unwind_SjLj_Register>
 80060d6:	57fd                	li	a5,-1
 80060d8:	c83e                	sw	a5,16(sp)
 80060da:	fffff097          	auipc	ra,0xfffff
 80060de:	004080e7          	jalr	4(ra) # 80050de <_ZN6miosix14DefaultConsole8instanceEv>
 80060e2:	4118                	lw	a4,0(a0)
 80060e4:	c23a                	sw	a4,4(sp)
 80060e6:	c701                	beqz	a4,80060ee <_ZN14miosix_private15IRQsystemRebootEv+0x4c>
 80060e8:	435c                	lw	a5,4(a4)
 80060ea:	0785                	addi	a5,a5,1
 80060ec:	c35c                	sw	a5,4(a4)
 80060ee:	4692                	lw	a3,4(sp)
 80060f0:	0800a5b7          	lui	a1,0x800a
 80060f4:	4705                	li	a4,1
 80060f6:	429c                	lw	a5,0(a3)
 80060f8:	1b458593          	addi	a1,a1,436 # 800a1b4 <_ZTVN6miosix6DeviceE+0x7c>
 80060fc:	8536                	mv	a0,a3
 80060fe:	4bdc                	lw	a5,20(a5)
 8006100:	c83a                	sw	a4,16(sp)
 8006102:	9782                	jalr	a5
 8006104:	4612                	lw	a2,4(sp)
 8006106:	4705                	li	a4,1
 8006108:	4254                	lw	a3,4(a2)
 800610a:	425c                	lw	a5,4(a2)
 800610c:	17fd                	addi	a5,a5,-1
 800610e:	c25c                	sw	a5,4(a2)
 8006110:	00e69663          	bne	a3,a4,800611c <_ZN14miosix_private15IRQsystemRebootEv+0x7a>
 8006114:	421c                	lw	a5,0(a2)
 8006116:	8532                	mv	a0,a2
 8006118:	43dc                	lw	a5,4(a5)
 800611a:	9782                	jalr	a5
 800611c:	300477f3          	csrrci	a5,mstatus,8
 8006120:	cb8fe06f          	j	80045d8 <_Z13Reset_Handlerv>
 8006124:	0068                	addi	a0,sp,12
 8006126:	ffffe097          	auipc	ra,0xffffe
 800612a:	1f4080e7          	jalr	500(ra) # 800431a <_Unwind_SjLj_Unregister>
 800612e:	40b6                	lw	ra,76(sp)
 8006130:	4426                	lw	s0,72(sp)
 8006132:	6161                	addi	sp,sp,80
 8006134:	8082                	ret
 8006136:	4612                	lw	a2,4(sp)
 8006138:	4752                	lw	a4,20(sp)
 800613a:	4254                	lw	a3,4(a2)
 800613c:	425c                	lw	a5,4(a2)
 800613e:	c43a                	sw	a4,8(sp)
 8006140:	4705                	li	a4,1
 8006142:	17fd                	addi	a5,a5,-1
 8006144:	c25c                	sw	a5,4(a2)
 8006146:	00e69663          	bne	a3,a4,8006152 <_ZN14miosix_private15IRQsystemRebootEv+0xb0>
 800614a:	421c                	lw	a5,0(a2)
 800614c:	8532                	mv	a0,a2
 800614e:	43dc                	lw	a5,4(a5)
 8006150:	9782                	jalr	a5
 8006152:	4522                	lw	a0,8(sp)
 8006154:	57fd                	li	a5,-1
 8006156:	c83e                	sw	a5,16(sp)
 8006158:	ffffe097          	auipc	ra,0xffffe
 800615c:	2f4080e7          	jalr	756(ra) # 800444c <_Unwind_SjLj_Resume>

08006160 <_ZN14miosix_private11initCtxsaveEPjPFPvS1_ES0_S1_>:
 8006160:	080077b7          	lui	a5,0x8007
 8006164:	80e78793          	addi	a5,a5,-2034 # 800680e <_ZN6miosix6Thread14threadLauncherEPFPvS1_ES1_>
 8006168:	00052023          	sw	zero,0(a0)
 800616c:	c150                	sw	a2,4(a0)
 800616e:	00052423          	sw	zero,8(a0)
 8006172:	00052623          	sw	zero,12(a0)
 8006176:	00052823          	sw	zero,16(a0)
 800617a:	00052a23          	sw	zero,20(a0)
 800617e:	00052c23          	sw	zero,24(a0)
 8006182:	00052e23          	sw	zero,28(a0)
 8006186:	d10c                	sw	a1,32(a0)
 8006188:	d154                	sw	a3,36(a0)
 800618a:	02052423          	sw	zero,40(a0)
 800618e:	02052623          	sw	zero,44(a0)
 8006192:	02052823          	sw	zero,48(a0)
 8006196:	02052a23          	sw	zero,52(a0)
 800619a:	02052c23          	sw	zero,56(a0)
 800619e:	02052e23          	sw	zero,60(a0)
 80061a2:	04052023          	sw	zero,64(a0)
 80061a6:	04052223          	sw	zero,68(a0)
 80061aa:	04052423          	sw	zero,72(a0)
 80061ae:	04052623          	sw	zero,76(a0)
 80061b2:	04052823          	sw	zero,80(a0)
 80061b6:	04052a23          	sw	zero,84(a0)
 80061ba:	04052c23          	sw	zero,88(a0)
 80061be:	04052e23          	sw	zero,92(a0)
 80061c2:	06052023          	sw	zero,96(a0)
 80061c6:	06052223          	sw	zero,100(a0)
 80061ca:	06052423          	sw	zero,104(a0)
 80061ce:	06052623          	sw	zero,108(a0)
 80061d2:	06052823          	sw	zero,112(a0)
 80061d6:	06052a23          	sw	zero,116(a0)
 80061da:	dd3c                	sw	a5,120(a0)
 80061dc:	8082                	ret

080061de <_ZN14miosix_private22IRQportableStartKernelEv>:
 80061de:	7175                	addi	sp,sp,-144
 80061e0:	200017b7          	lui	a5,0x20001
 80061e4:	0058                	addi	a4,sp,4
 80061e6:	c706                	sw	ra,140(sp)
 80061e8:	9ee7a623          	sw	a4,-1556(a5) # 200009ec <ctxsave>
 80061ec:	300467f3          	csrrsi	a5,mstatus,8
 80061f0:	3045e7f3          	csrrsi	a5,mie,11
 80061f4:	00000097          	auipc	ra,0x0
 80061f8:	38c080e7          	jalr	908(ra) # 8006580 <_ZN6miosix6Thread5yieldEv>
 80061fc:	40ba                	lw	ra,140(sp)
 80061fe:	6149                	addi	sp,sp,144
 8006200:	8082                	ret

08006202 <_ZN14miosix_private8sleepCpuEv>:
 8006202:	8082                	ret

08006204 <_ZN6miosix8internal14IRQosTimerInitEv>:
 8006204:	8082                	ret

08006206 <_ZN6miosix8internal19osTimerGetFrequencyEv>:
 8006206:	4501                	li	a0,0
 8006208:	8082                	ret

0800620a <_ZN6miosix8GpioBase8modeImplEjhNS_4Mode5Mode_E>:
 800620a:	471d                	li	a4,7
 800620c:	00f67793          	andi	a5,a2,15
 8006210:	02b77f63          	bgeu	a4,a1,800624e <_ZN6miosix8GpioBase8modeImplEjhNS_4Mode5Mode_E+0x44>
 8006214:	15e1                	addi	a1,a1,-8
 8006216:	0ff5f593          	andi	a1,a1,255
 800621a:	00452803          	lw	a6,4(a0)
 800621e:	00259693          	slli	a3,a1,0x2
 8006222:	473d                	li	a4,15
 8006224:	00d71733          	sll	a4,a4,a3
 8006228:	fff74713          	not	a4,a4
 800622c:	01077733          	and	a4,a4,a6
 8006230:	c158                	sw	a4,4(a0)
 8006232:	4158                	lw	a4,4(a0)
 8006234:	00d797b3          	sll	a5,a5,a3
 8006238:	8a41                	andi	a2,a2,16
 800623a:	8fd9                	or	a5,a5,a4
 800623c:	c15c                	sw	a5,4(a0)
 800623e:	4785                	li	a5,1
 8006240:	00b795b3          	sll	a1,a5,a1
 8006244:	455c                	lw	a5,12(a0)
 8006246:	ca1d                	beqz	a2,800627c <_ZN6miosix8GpioBase8modeImplEjhNS_4Mode5Mode_E+0x72>
 8006248:	8ddd                	or	a1,a1,a5
 800624a:	c54c                	sw	a1,12(a0)
 800624c:	8082                	ret
 800624e:	00052803          	lw	a6,0(a0)
 8006252:	00259693          	slli	a3,a1,0x2
 8006256:	473d                	li	a4,15
 8006258:	00d71733          	sll	a4,a4,a3
 800625c:	fff74713          	not	a4,a4
 8006260:	01077733          	and	a4,a4,a6
 8006264:	c118                	sw	a4,0(a0)
 8006266:	4118                	lw	a4,0(a0)
 8006268:	00d797b3          	sll	a5,a5,a3
 800626c:	8a41                	andi	a2,a2,16
 800626e:	8fd9                	or	a5,a5,a4
 8006270:	c11c                	sw	a5,0(a0)
 8006272:	4785                	li	a5,1
 8006274:	00b795b3          	sll	a1,a5,a1
 8006278:	455c                	lw	a5,12(a0)
 800627a:	f679                	bnez	a2,8006248 <_ZN6miosix8GpioBase8modeImplEjhNS_4Mode5Mode_E+0x3e>
 800627c:	fff5c593          	not	a1,a1
 8006280:	8dfd                	and	a1,a1,a5
 8006282:	c54c                	sw	a1,12(a0)
 8006284:	8082                	ret

08006286 <_ZN6miosix7delayMsEj>:
 8006286:	c10d                	beqz	a0,80062a8 <___loop_a_out+0x6>
 8006288:	6719                	lui	a4,0x6
 800628a:	4781                	li	a5,0
 800628c:	1a870713          	addi	a4,a4,424 # 61a8 <_main_stack_size+0x5da8>
 8006290:	00e002b3          	add	t0,zero,a4
 8006294:	00100313          	li	t1,1

08006298 <___loop_a_start>:
 8006298:	00028563          	beqz	t0,80062a2 <___loop_a_out>
 800629c:	406282b3          	sub	t0,t0,t1
 80062a0:	bfe5                	j	8006298 <___loop_a_start>

080062a2 <___loop_a_out>:
 80062a2:	0785                	addi	a5,a5,1
 80062a4:	fef516e3          	bne	a0,a5,8006290 <_ZN6miosix7delayMsEj+0xa>
 80062a8:	8082                	ret

080062aa <SystemInit>:
 80062aa:	400217b7          	lui	a5,0x40021
 80062ae:	4398                	lw	a4,0(a5)
 80062b0:	e0ff06b7          	lui	a3,0xe0ff0
 80062b4:	06b1                	addi	a3,a3,12
 80062b6:	00176713          	ori	a4,a4,1
 80062ba:	c398                	sw	a4,0(a5)
 80062bc:	43d8                	lw	a4,4(a5)
 80062be:	eaf70637          	lui	a2,0xeaf70
 80062c2:	167d                	addi	a2,a2,-1
 80062c4:	8f75                	and	a4,a4,a3
 80062c6:	c3d8                	sw	a4,4(a5)
 80062c8:	4398                	lw	a4,0(a5)
 80062ca:	fef706b7          	lui	a3,0xfef70
 80062ce:	16fd                	addi	a3,a3,-1
 80062d0:	8f75                	and	a4,a4,a3
 80062d2:	c398                	sw	a4,0(a5)
 80062d4:	4398                	lw	a4,0(a5)
 80062d6:	fffc06b7          	lui	a3,0xfffc0
 80062da:	16fd                	addi	a3,a3,-1
 80062dc:	8f75                	and	a4,a4,a3
 80062de:	c398                	sw	a4,0(a5)
 80062e0:	43d8                	lw	a4,4(a5)
 80062e2:	df0106b7          	lui	a3,0xdf010
 80062e6:	16fd                	addi	a3,a3,-1
 80062e8:	8f75                	and	a4,a4,a3
 80062ea:	c3d8                	sw	a4,4(a5)
 80062ec:	0207a623          	sw	zero,44(a5) # 4002102c <_heap_end+0x2001902c>
 80062f0:	4394                	lw	a3,0(a5)
 80062f2:	00ff0737          	lui	a4,0xff0
 80062f6:	65c1                	lui	a1,0x10
 80062f8:	8ef1                	and	a3,a3,a2
 80062fa:	c394                	sw	a3,0(a5)
 80062fc:	c798                	sw	a4,8(a5)
 80062fe:	4398                	lw	a4,0(a5)
 8006300:	fff58693          	addi	a3,a1,-1 # ffff <_main_stack_size+0xfbff>
 8006304:	40021637          	lui	a2,0x40021
 8006308:	8f4d                	or	a4,a4,a1
 800630a:	c398                	sw	a4,0(a5)
 800630c:	a011                	j	8006310 <SystemInit+0x66>
 800630e:	c699                	beqz	a3,800631c <SystemInit+0x72>
 8006310:	421c                	lw	a5,0(a2)
 8006312:	16fd                	addi	a3,a3,-1
 8006314:	00e79713          	slli	a4,a5,0xe
 8006318:	fe075be3          	bgez	a4,800630e <SystemInit+0x64>
 800631c:	400217b7          	lui	a5,0x40021
 8006320:	4398                	lw	a4,0(a5)
 8006322:	00e71693          	slli	a3,a4,0xe
 8006326:	0a06d063          	bgez	a3,80063c6 <SystemInit+0x11c>
 800632a:	43d8                	lw	a4,4(a5)
 800632c:	dfc40637          	lui	a2,0xdfc40
 8006330:	167d                	addi	a2,a2,-1
 8006332:	c3d8                	sw	a4,4(a5)
 8006334:	43d8                	lw	a4,4(a5)
 8006336:	400216b7          	lui	a3,0x40021
 800633a:	c3d8                	sw	a4,4(a5)
 800633c:	43d8                	lw	a4,4(a5)
 800633e:	40076713          	ori	a4,a4,1024
 8006342:	c3d8                	sw	a4,4(a5)
 8006344:	43d8                	lw	a4,4(a5)
 8006346:	8f71                	and	a4,a4,a2
 8006348:	c3d8                	sw	a4,4(a5)
 800634a:	43d8                	lw	a4,4(a5)
 800634c:	20290637          	lui	a2,0x20290
 8006350:	8f51                	or	a4,a4,a2
 8006352:	c3d8                	sw	a4,4(a5)
 8006354:	57d8                	lw	a4,44(a5)
 8006356:	763d                	lui	a2,0xfffef
 8006358:	8f71                	and	a4,a4,a2
 800635a:	d7d8                	sw	a4,44(a5)
 800635c:	57d8                	lw	a4,44(a5)
 800635e:	6641                	lui	a2,0x10
 8006360:	f1160613          	addi	a2,a2,-239 # ff11 <_main_stack_size+0xfb11>
 8006364:	8f51                	or	a4,a4,a2
 8006366:	d7d8                	sw	a4,44(a5)
 8006368:	4398                	lw	a4,0(a5)
 800636a:	04000637          	lui	a2,0x4000
 800636e:	8f51                	or	a4,a4,a2
 8006370:	c398                	sw	a4,0(a5)
 8006372:	429c                	lw	a5,0(a3)
 8006374:	00479713          	slli	a4,a5,0x4
 8006378:	fe075de3          	bgez	a4,8006372 <SystemInit+0xc8>
 800637c:	429c                	lw	a5,0(a3)
 800637e:	10000637          	lui	a2,0x10000
 8006382:	40021737          	lui	a4,0x40021
 8006386:	8fd1                	or	a5,a5,a2
 8006388:	c29c                	sw	a5,0(a3)
 800638a:	431c                	lw	a5,0(a4)
 800638c:	00279693          	slli	a3,a5,0x2
 8006390:	fe06dde3          	bgez	a3,800638a <SystemInit+0xe0>
 8006394:	4314                	lw	a3,0(a4)
 8006396:	01000637          	lui	a2,0x1000
 800639a:	400217b7          	lui	a5,0x40021
 800639e:	8ed1                	or	a3,a3,a2
 80063a0:	c314                	sw	a3,0(a4)
 80063a2:	4398                	lw	a4,0(a5)
 80063a4:	00671693          	slli	a3,a4,0x6
 80063a8:	fe06dde3          	bgez	a3,80063a2 <SystemInit+0xf8>
 80063ac:	43d8                	lw	a4,4(a5)
 80063ae:	400216b7          	lui	a3,0x40021
 80063b2:	9b71                	andi	a4,a4,-4
 80063b4:	c3d8                	sw	a4,4(a5)
 80063b6:	43d8                	lw	a4,4(a5)
 80063b8:	00276713          	ori	a4,a4,2
 80063bc:	c3d8                	sw	a4,4(a5)
 80063be:	42dc                	lw	a5,4(a3)
 80063c0:	8ba1                	andi	a5,a5,8
 80063c2:	dff5                	beqz	a5,80063be <SystemInit+0x114>
 80063c4:	8082                	ret
 80063c6:	a001                	j	80063c6 <SystemInit+0x11c>

080063c8 <_ZN6miosix17disableInterruptsEv>:
 80063c8:	1141                	addi	sp,sp,-16
 80063ca:	c606                	sw	ra,12(sp)
 80063cc:	c422                	sw	s0,8(sp)
 80063ce:	300477f3          	csrrci	a5,mstatus,8
 80063d2:	20001437          	lui	s0,0x20001
 80063d6:	9d444783          	lbu	a5,-1580(s0) # 200009d4 <_ZN6miosixL23interruptDisableNestingE>
 80063da:	0ff00713          	li	a4,255
 80063de:	00e78963          	beq	a5,a4,80063f0 <_ZN6miosix17disableInterruptsEv+0x28>
 80063e2:	0785                	addi	a5,a5,1
 80063e4:	40b2                	lw	ra,12(sp)
 80063e6:	9cf40a23          	sb	a5,-1580(s0)
 80063ea:	4422                	lw	s0,8(sp)
 80063ec:	0141                	addi	sp,sp,16
 80063ee:	8082                	ret
 80063f0:	4519                	li	a0,6
 80063f2:	00000097          	auipc	ra,0x0
 80063f6:	742080e7          	jalr	1858(ra) # 8006b34 <_ZN6miosix12errorHandlerENS_5ErrorE>
 80063fa:	9d444783          	lbu	a5,-1580(s0)
 80063fe:	40b2                	lw	ra,12(sp)
 8006400:	0785                	addi	a5,a5,1
 8006402:	9cf40a23          	sb	a5,-1580(s0)
 8006406:	4422                	lw	s0,8(sp)
 8006408:	0141                	addi	sp,sp,16
 800640a:	8082                	ret

0800640c <_ZN6miosix16enableInterruptsEv>:
 800640c:	1141                	addi	sp,sp,-16
 800640e:	c422                	sw	s0,8(sp)
 8006410:	20001437          	lui	s0,0x20001
 8006414:	9d444783          	lbu	a5,-1580(s0) # 200009d4 <_ZN6miosixL23interruptDisableNestingE>
 8006418:	c606                	sw	ra,12(sp)
 800641a:	c785                	beqz	a5,8006442 <_ZN6miosix16enableInterruptsEv+0x36>
 800641c:	17fd                	addi	a5,a5,-1
 800641e:	0ff7f793          	andi	a5,a5,255
 8006422:	9cf40a23          	sb	a5,-1580(s0)
 8006426:	eb91                	bnez	a5,800643a <_ZN6miosix16enableInterruptsEv+0x2e>
 8006428:	200017b7          	lui	a5,0x20001
 800642c:	9d57c783          	lbu	a5,-1579(a5) # 200009d5 <_ZN6miosixL13kernelStartedE>
 8006430:	c789                	beqz	a5,800643a <_ZN6miosix16enableInterruptsEv+0x2e>
 8006432:	300467f3          	csrrsi	a5,mstatus,8
 8006436:	3045e7f3          	csrrsi	a5,mie,11
 800643a:	40b2                	lw	ra,12(sp)
 800643c:	4422                	lw	s0,8(sp)
 800643e:	0141                	addi	sp,sp,16
 8006440:	8082                	ret
 8006442:	4511                	li	a0,4
 8006444:	00000097          	auipc	ra,0x0
 8006448:	6f0080e7          	jalr	1776(ra) # 8006b34 <_ZN6miosix12errorHandlerENS_5ErrorE>
 800644c:	9d444783          	lbu	a5,-1580(s0)
 8006450:	b7f1                	j	800641c <_ZN6miosix16enableInterruptsEv+0x10>

08006452 <_ZN6miosix11pauseKernelEv>:
 8006452:	200017b7          	lui	a5,0x20001
 8006456:	9d87a603          	lw	a2,-1576(a5) # 200009d8 <_ZN6miosix13kernelRunningE>
 800645a:	9d87a703          	lw	a4,-1576(a5)
 800645e:	0fe00693          	li	a3,254
 8006462:	0705                	addi	a4,a4,1
 8006464:	9ce7ac23          	sw	a4,-1576(a5)
 8006468:	00c6c363          	blt	a3,a2,800646e <_ZN6miosix11pauseKernelEv+0x1c>
 800646c:	8082                	ret
 800646e:	4519                	li	a0,6
 8006470:	00000317          	auipc	t1,0x0
 8006474:	6c430067          	jr	1732(t1) # 8006b34 <_ZN6miosix12errorHandlerENS_5ErrorE>

08006478 <_ZN6miosix13restartKernelEv>:
 8006478:	200017b7          	lui	a5,0x20001
 800647c:	9d87a683          	lw	a3,-1576(a5) # 200009d8 <_ZN6miosix13kernelRunningE>
 8006480:	9d87a703          	lw	a4,-1576(a5)
 8006484:	177d                	addi	a4,a4,-1
 8006486:	9ce7ac23          	sw	a4,-1576(a5)
 800648a:	00d05b63          	blez	a3,80064a0 <_ZN6miosix13restartKernelEv+0x28>
 800648e:	200017b7          	lui	a5,0x20001
 8006492:	9d47c783          	lbu	a5,-1580(a5) # 200009d4 <_ZN6miosixL23interruptDisableNestingE>
 8006496:	e781                	bnez	a5,800649e <_ZN6miosix13restartKernelEv+0x26>
 8006498:	4785                	li	a5,1
 800649a:	00f68863          	beq	a3,a5,80064aa <_ZN6miosix13restartKernelEv+0x32>
 800649e:	8082                	ret
 80064a0:	450d                	li	a0,3
 80064a2:	00000317          	auipc	t1,0x0
 80064a6:	69230067          	jr	1682(t1) # 8006b34 <_ZN6miosix12errorHandlerENS_5ErrorE>
 80064aa:	20001737          	lui	a4,0x20001
 80064ae:	9d674783          	lbu	a5,-1578(a4) # 200009d6 <_ZN6miosix13pendingWakeupE>
 80064b2:	0ff7f793          	andi	a5,a5,255
 80064b6:	d7e5                	beqz	a5,800649e <_ZN6miosix13restartKernelEv+0x26>
 80064b8:	9c070b23          	sb	zero,-1578(a4)
 80064bc:	00000073          	ecall
 80064c0:	8082                	ret

080064c2 <_ZN6miosix10idleThreadEPv>:
 80064c2:	080087b7          	lui	a5,0x8008
 80064c6:	715d                	addi	sp,sp,-80
 80064c8:	ec878793          	addi	a5,a5,-312 # 8007ec8 <__gxx_personality_sj0>
 80064cc:	d23e                	sw	a5,36(sp)
 80064ce:	0800a7b7          	lui	a5,0x800a
 80064d2:	8fa78793          	addi	a5,a5,-1798 # 80098fa <_GLOBAL__sub_I__ZSt7nothrow+0xfc>
 80064d6:	d43e                	sw	a5,40(sp)
 80064d8:	009c                	addi	a5,sp,64
 80064da:	d63e                	sw	a5,44(sp)
 80064dc:	080067b7          	lui	a5,0x8006
 80064e0:	55a78793          	addi	a5,a5,1370 # 800655a <_ZN6miosix10idleThreadEPv+0x98>
 80064e4:	0068                	addi	a0,sp,12
 80064e6:	c686                	sw	ra,76(sp)
 80064e8:	c4a2                	sw	s0,72(sp)
 80064ea:	d83e                	sw	a5,48(sp)
 80064ec:	da0a                	sw	sp,52(sp)
 80064ee:	ffffe097          	auipc	ra,0xffffe
 80064f2:	e0a080e7          	jalr	-502(ra) # 80042f8 <_Unwind_SjLj_Register>
 80064f6:	a035                	j	8006522 <_ZN6miosix10idleThreadEPv+0x60>
 80064f8:	200017b7          	lui	a5,0x20001
 80064fc:	9e078223          	sb	zero,-1564(a5) # 200009e4 <_ZN6miosixL12existDeletedE>
 8006500:	4785                	li	a5,1
 8006502:	c83e                	sw	a5,16(sp)
 8006504:	00001097          	auipc	ra,0x1
 8006508:	aea080e7          	jalr	-1302(ra) # 8006fee <_ZN6miosix17PriorityScheduler19PKremoveDeadThreadsEv>
 800650c:	c802                	sw	zero,16(sp)
 800650e:	00000097          	auipc	ra,0x0
 8006512:	f6a080e7          	jalr	-150(ra) # 8006478 <_ZN6miosix13restartKernelEv>
 8006516:	57fd                	li	a5,-1
 8006518:	c83e                	sw	a5,16(sp)
 800651a:	00000097          	auipc	ra,0x0
 800651e:	ce8080e7          	jalr	-792(ra) # 8006202 <_ZN14miosix_private8sleepCpuEv>
 8006522:	200017b7          	lui	a5,0x20001
 8006526:	9e47c783          	lbu	a5,-1564(a5) # 200009e4 <_ZN6miosixL12existDeletedE>
 800652a:	0ff7f793          	andi	a5,a5,255
 800652e:	d7e5                	beqz	a5,8006516 <_ZN6miosix10idleThreadEPv+0x54>
 8006530:	200016b7          	lui	a3,0x20001
 8006534:	9d86a703          	lw	a4,-1576(a3) # 200009d8 <_ZN6miosix13kernelRunningE>
 8006538:	9d86a783          	lw	a5,-1576(a3)
 800653c:	0785                	addi	a5,a5,1
 800653e:	9cf6ac23          	sw	a5,-1576(a3)
 8006542:	0fe00793          	li	a5,254
 8006546:	fae7d9e3          	bge	a5,a4,80064f8 <_ZN6miosix10idleThreadEPv+0x36>
 800654a:	57fd                	li	a5,-1
 800654c:	4519                	li	a0,6
 800654e:	c83e                	sw	a5,16(sp)
 8006550:	00000097          	auipc	ra,0x0
 8006554:	5e4080e7          	jalr	1508(ra) # 8006b34 <_ZN6miosix12errorHandlerENS_5ErrorE>
 8006558:	b745                	j	80064f8 <_ZN6miosix10idleThreadEPv+0x36>
 800655a:	47d2                	lw	a5,20(sp)
 800655c:	c802                	sw	zero,16(sp)
 800655e:	c43e                	sw	a5,8(sp)
 8006560:	00000097          	auipc	ra,0x0
 8006564:	f18080e7          	jalr	-232(ra) # 8006478 <_ZN6miosix13restartKernelEv>
 8006568:	4522                	lw	a0,8(sp)
 800656a:	57fd                	li	a5,-1
 800656c:	c83e                	sw	a5,16(sp)
 800656e:	ffffe097          	auipc	ra,0xffffe
 8006572:	ede080e7          	jalr	-290(ra) # 800444c <_Unwind_SjLj_Resume>

08006576 <_ZN6miosix20areInterruptsEnabledEv>:
 8006576:	30002573          	csrr	a0,mstatus
 800657a:	8121                	srli	a0,a0,0x8
 800657c:	8905                	andi	a0,a0,1
 800657e:	8082                	ret

08006580 <_ZN6miosix6Thread5yieldEv>:
 8006580:	00000073          	ecall
 8006584:	8082                	ret

08006586 <_ZN6miosix6Thread9IRQwakeupEv>:
 8006586:	00c54783          	lbu	a5,12(a0)
 800658a:	9bf9                	andi	a5,a5,-2
 800658c:	00f50623          	sb	a5,12(a0)
 8006590:	8082                	ret

08006592 <_ZN6miosix6Thread11getPriorityEv>:
 8006592:	00055503          	lhu	a0,0(a0)
 8006596:	8082                	ret

08006598 <_ZN6miosix6ThreadC1EPjjb>:
 8006598:	080087b7          	lui	a5,0x8008
 800659c:	711d                	addi	sp,sp,-96
 800659e:	ec878793          	addi	a5,a5,-312 # 8007ec8 <__gxx_personality_sj0>
 80065a2:	da3e                	sw	a5,52(sp)
 80065a4:	0800a7b7          	lui	a5,0x800a
 80065a8:	90078793          	addi	a5,a5,-1792 # 8009900 <_GLOBAL__sub_I__ZSt7nothrow+0x102>
 80065ac:	dc3e                	sw	a5,56(sp)
 80065ae:	089c                	addi	a5,sp,80
 80065b0:	de3e                	sw	a5,60(sp)
 80065b2:	080067b7          	lui	a5,0x8006
 80065b6:	872a                	mv	a4,a0
 80065b8:	6a078793          	addi	a5,a5,1696 # 80066a0 <_ZN6miosix6ThreadC1EPjjb+0x108>
 80065bc:	0868                	addi	a0,sp,28
 80065be:	c0be                	sw	a5,64(sp)
 80065c0:	c63a                	sw	a4,12(sp)
 80065c2:	ce86                	sw	ra,92(sp)
 80065c4:	cca2                	sw	s0,88(sp)
 80065c6:	c28a                	sw	sp,68(sp)
 80065c8:	c82e                	sw	a1,16(sp)
 80065ca:	ca32                	sw	a2,20(sp)
 80065cc:	cc36                	sw	a3,24(sp)
 80065ce:	ffffe097          	auipc	ra,0xffffe
 80065d2:	d2a080e7          	jalr	-726(ra) # 80042f8 <_Unwind_SjLj_Register>
 80065d6:	4732                	lw	a4,12(sp)
 80065d8:	4785                	li	a5,1
 80065da:	00f71023          	sh	a5,0(a4)
 80065de:	00072223          	sw	zero,4(a4)
 80065e2:	87ba                	mv	a5,a4
 80065e4:	c718                	sw	a4,8(a4)
 80065e6:	00070623          	sb	zero,12(a4)
 80065ea:	00071823          	sh	zero,16(a4)
 80065ee:	00072a23          	sw	zero,20(a4)
 80065f2:	00072c23          	sw	zero,24(a4)
 80065f6:	4742                	lw	a4,16(sp)
 80065f8:	cfd8                	sw	a4,28(a5)
 80065fa:	873e                	mv	a4,a5
 80065fc:	09c70713          	addi	a4,a4,156
 8006600:	02078793          	addi	a5,a5,32
 8006604:	0007a023          	sw	zero,0(a5)
 8006608:	0791                	addi	a5,a5,4
 800660a:	fef71de3          	bne	a4,a5,8006604 <_ZN6miosix6ThreadC1EPjjb+0x6c>
 800660e:	4732                	lw	a4,12(sp)
 8006610:	47d2                	lw	a5,20(sp)
 8006612:	0a072423          	sw	zero,168(a4)
 8006616:	08f72e23          	sw	a5,156(a4)
 800661a:	47e2                	lw	a5,24(sp)
 800661c:	0a072623          	sw	zero,172(a4)
 8006620:	0a072823          	sw	zero,176(a4)
 8006624:	0a072023          	sw	zero,160(a4)
 8006628:	c385                	beqz	a5,8006648 <_ZN6miosix6ThreadC1EPjjb+0xb0>
 800662a:	200017b7          	lui	a5,0x20001
 800662e:	bb87a783          	lw	a5,-1096(a5) # 20000bb8 <_global_impure_ptr>
 8006632:	0868                	addi	a0,sp,28
 8006634:	0af72223          	sw	a5,164(a4)
 8006638:	ffffe097          	auipc	ra,0xffffe
 800663c:	ce2080e7          	jalr	-798(ra) # 800431a <_Unwind_SjLj_Unregister>
 8006640:	40f6                	lw	ra,92(sp)
 8006642:	4466                	lw	s0,88(sp)
 8006644:	6125                	addi	sp,sp,96
 8006646:	8082                	ret
 8006648:	4785                	li	a5,1
 800664a:	05000513          	li	a0,80
 800664e:	d03e                	sw	a5,32(sp)
 8006650:	00002097          	auipc	ra,0x2
 8006654:	278080e7          	jalr	632(ra) # 80088c8 <_Znwj>
 8006658:	47b2                	lw	a5,12(sp)
 800665a:	05000613          	li	a2,80
 800665e:	4581                	li	a1,0
 8006660:	0aa7a223          	sw	a0,164(a5)
 8006664:	c62a                	sw	a0,12(sp)
 8006666:	ffffb097          	auipc	ra,0xffffb
 800666a:	bae080e7          	jalr	-1106(ra) # 8001214 <memset>
 800666e:	4732                	lw	a4,12(sp)
 8006670:	200017b7          	lui	a5,0x20001
 8006674:	a2878793          	addi	a5,a5,-1496 # 20000a28 <__sf>
 8006678:	c35c                	sw	a5,4(a4)
 800667a:	200017b7          	lui	a5,0x20001
 800667e:	aa878793          	addi	a5,a5,-1368 # 20000aa8 <__sf+0x80>
 8006682:	c71c                	sw	a5,8(a4)
 8006684:	200017b7          	lui	a5,0x20001
 8006688:	b2878793          	addi	a5,a5,-1240 # 20000b28 <__sf+0x100>
 800668c:	0868                	addi	a0,sp,28
 800668e:	c75c                	sw	a5,12(a4)
 8006690:	ffffe097          	auipc	ra,0xffffe
 8006694:	c8a080e7          	jalr	-886(ra) # 800431a <_Unwind_SjLj_Unregister>
 8006698:	40f6                	lw	ra,92(sp)
 800669a:	4466                	lw	s0,88(sp)
 800669c:	6125                	addi	sp,sp,96
 800669e:	8082                	ret
 80066a0:	47b2                	lw	a5,12(sp)
 80066a2:	5712                	lw	a4,36(sp)
 80066a4:	0a87a783          	lw	a5,168(a5)
 80066a8:	c63a                	sw	a4,12(sp)
 80066aa:	c799                	beqz	a5,80066b8 <_ZN6miosix6ThreadC1EPjjb+0x120>
 80066ac:	4509                	li	a0,2
 80066ae:	d002                	sw	zero,32(sp)
 80066b0:	00000097          	auipc	ra,0x0
 80066b4:	484080e7          	jalr	1156(ra) # 8006b34 <_ZN6miosix12errorHandlerENS_5ErrorE>
 80066b8:	4532                	lw	a0,12(sp)
 80066ba:	57fd                	li	a5,-1
 80066bc:	d03e                	sw	a5,32(sp)
 80066be:	ffffe097          	auipc	ra,0xffffe
 80066c2:	d8e080e7          	jalr	-626(ra) # 800444c <_Unwind_SjLj_Resume>

080066c6 <_ZN6miosix6ThreadD1Ev>:
 80066c6:	080087b7          	lui	a5,0x8008
 80066ca:	715d                	addi	sp,sp,-80
 80066cc:	ec878793          	addi	a5,a5,-312 # 8007ec8 <__gxx_personality_sj0>
 80066d0:	d23e                	sw	a5,36(sp)
 80066d2:	0800a7b7          	lui	a5,0x800a
 80066d6:	c4a2                	sw	s0,72(sp)
 80066d8:	90678793          	addi	a5,a5,-1786 # 8009906 <_GLOBAL__sub_I__ZSt7nothrow+0x108>
 80066dc:	842a                	mv	s0,a0
 80066de:	0068                	addi	a0,sp,12
 80066e0:	c686                	sw	ra,76(sp)
 80066e2:	d43e                	sw	a5,40(sp)
 80066e4:	ffffe097          	auipc	ra,0xffffe
 80066e8:	c14080e7          	jalr	-1004(ra) # 80042f8 <_Unwind_SjLj_Register>
 80066ec:	0a442503          	lw	a0,164(s0)
 80066f0:	c50d                	beqz	a0,800671a <_ZN6miosix6ThreadD1Ev+0x54>
 80066f2:	200017b7          	lui	a5,0x20001
 80066f6:	bb87a783          	lw	a5,-1096(a5) # 20000bb8 <_global_impure_ptr>
 80066fa:	02f50063          	beq	a0,a5,800671a <_ZN6miosix6ThreadD1Ev+0x54>
 80066fe:	c802                	sw	zero,16(sp)
 8006700:	ffffb097          	auipc	ra,0xffffb
 8006704:	c44080e7          	jalr	-956(ra) # 8001344 <_reclaim_reent>
 8006708:	0a442503          	lw	a0,164(s0)
 800670c:	c519                	beqz	a0,800671a <_ZN6miosix6ThreadD1Ev+0x54>
 800670e:	05000593          	li	a1,80
 8006712:	00001097          	auipc	ra,0x1
 8006716:	2ec080e7          	jalr	748(ra) # 80079fe <_ZdlPvj>
 800671a:	0a842783          	lw	a5,168(s0)
 800671e:	c799                	beqz	a5,800672c <_ZN6miosix6ThreadD1Ev+0x66>
 8006720:	4509                	li	a0,2
 8006722:	c802                	sw	zero,16(sp)
 8006724:	00000097          	auipc	ra,0x0
 8006728:	410080e7          	jalr	1040(ra) # 8006b34 <_ZN6miosix12errorHandlerENS_5ErrorE>
 800672c:	0068                	addi	a0,sp,12
 800672e:	ffffe097          	auipc	ra,0xffffe
 8006732:	bec080e7          	jalr	-1044(ra) # 800431a <_Unwind_SjLj_Unregister>
 8006736:	40b6                	lw	ra,76(sp)
 8006738:	4426                	lw	s0,72(sp)
 800673a:	6161                	addi	sp,sp,80
 800673c:	8082                	ret

0800673e <_ZN6miosix6Thread8doCreateEPFPvS1_EjS1_tb>:
 800673e:	7179                	addi	sp,sp,-48
 8006740:	d04a                	sw	s2,32(sp)
 8006742:	01f58913          	addi	s2,a1,31
 8006746:	ff097913          	andi	s2,s2,-16
 800674a:	ca56                	sw	s5,20(sp)
 800674c:	8aaa                	mv	s5,a0
 800674e:	0b490513          	addi	a0,s2,180 # 200b4 <_main_stack_size+0x1fcb4>
 8006752:	ce4e                	sw	s3,28(sp)
 8006754:	cc52                	sw	s4,24(sp)
 8006756:	c85a                	sw	s6,16(sp)
 8006758:	c65e                	sw	s7,12(sp)
 800675a:	d606                	sw	ra,44(sp)
 800675c:	d422                	sw	s0,40(sp)
 800675e:	d226                	sw	s1,36(sp)
 8006760:	89ae                	mv	s3,a1
 8006762:	8b32                	mv	s6,a2
 8006764:	8bb6                	mv	s7,a3
 8006766:	8a3a                	mv	s4,a4
 8006768:	ffffa097          	auipc	ra,0xffffa
 800676c:	21e080e7          	jalr	542(ra) # 8000986 <malloc>
 8006770:	cd49                	beqz	a0,800680a <_ZN6miosix6Thread8doCreateEPFPvS1_EjS1_tb+0xcc>
 8006772:	012504b3          	add	s1,a0,s2
 8006776:	85aa                	mv	a1,a0
 8006778:	842a                	mv	s0,a0
 800677a:	86d2                	mv	a3,s4
 800677c:	864e                	mv	a2,s3
 800677e:	8526                	mv	a0,s1
 8006780:	00000097          	auipc	ra,0x0
 8006784:	e18080e7          	jalr	-488(ra) # 8006598 <_ZN6miosix6ThreadC1EPjjb>
 8006788:	0a44a783          	lw	a5,164(s1)
 800678c:	c3bd                	beqz	a5,80067f2 <_ZN6miosix6Thread8doCreateEPFPvS1_EjS1_tb+0xb4>
 800678e:	aaaab7b7          	lui	a5,0xaaaab
 8006792:	aaa78793          	addi	a5,a5,-1366 # aaaaaaaa <_heap_end+0x8aaa2aaa>
 8006796:	bbbbc5b7          	lui	a1,0xbbbbc
 800679a:	ff090613          	addi	a2,s2,-16
 800679e:	bbb58593          	addi	a1,a1,-1093 # bbbbbbbb <_heap_end+0x9bbb3bbb>
 80067a2:	c01c                	sw	a5,0(s0)
 80067a4:	c05c                	sw	a5,4(s0)
 80067a6:	c41c                	sw	a5,8(s0)
 80067a8:	c45c                	sw	a5,12(s0)
 80067aa:	01040513          	addi	a0,s0,16
 80067ae:	ffffb097          	auipc	ra,0xffffb
 80067b2:	a66080e7          	jalr	-1434(ra) # 8001214 <memset>
 80067b6:	86da                	mv	a3,s6
 80067b8:	8626                	mv	a2,s1
 80067ba:	85d6                	mv	a1,s5
 80067bc:	02048513          	addi	a0,s1,32
 80067c0:	00000097          	auipc	ra,0x0
 80067c4:	9a0080e7          	jalr	-1632(ra) # 8006160 <_ZN14miosix_private11initCtxsaveEPjPFPvS1_ES0_S1_>
 80067c8:	001bf693          	andi	a3,s7,1
 80067cc:	e699                	bnez	a3,80067da <_ZN6miosix6Thread8doCreateEPFPvS1_EjS1_tb+0x9c>
 80067ce:	00c4c783          	lbu	a5,12(s1)
 80067d2:	0107e793          	ori	a5,a5,16
 80067d6:	00f48623          	sb	a5,12(s1)
 80067da:	50b2                	lw	ra,44(sp)
 80067dc:	5422                	lw	s0,40(sp)
 80067de:	5902                	lw	s2,32(sp)
 80067e0:	49f2                	lw	s3,28(sp)
 80067e2:	4a62                	lw	s4,24(sp)
 80067e4:	4ad2                	lw	s5,20(sp)
 80067e6:	4b42                	lw	s6,16(sp)
 80067e8:	4bb2                	lw	s7,12(sp)
 80067ea:	8526                	mv	a0,s1
 80067ec:	5492                	lw	s1,36(sp)
 80067ee:	6145                	addi	sp,sp,48
 80067f0:	8082                	ret
 80067f2:	8526                	mv	a0,s1
 80067f4:	00000097          	auipc	ra,0x0
 80067f8:	ed2080e7          	jalr	-302(ra) # 80066c6 <_ZN6miosix6ThreadD1Ev>
 80067fc:	8522                	mv	a0,s0
 80067fe:	ffffa097          	auipc	ra,0xffffa
 8006802:	1a8080e7          	jalr	424(ra) # 80009a6 <free>
 8006806:	4481                	li	s1,0
 8006808:	bfc9                	j	80067da <_ZN6miosix6Thread8doCreateEPFPvS1_EjS1_tb+0x9c>
 800680a:	4481                	li	s1,0
 800680c:	b7f9                	j	80067da <_ZN6miosix6Thread8doCreateEPFPvS1_EjS1_tb+0x9c>

0800680e <_ZN6miosix6Thread14threadLauncherEPFPvS1_ES1_>:
 800680e:	7119                	addi	sp,sp,-128
 8006810:	007c                	addi	a5,sp,12
 8006812:	872a                	mv	a4,a0
 8006814:	c03e                	sw	a5,0(sp)
 8006816:	853e                	mv	a0,a5
 8006818:	080087b7          	lui	a5,0x8008
 800681c:	ec878793          	addi	a5,a5,-312 # 8007ec8 <__gxx_personality_sj0>
 8006820:	d23e                	sw	a5,36(sp)
 8006822:	0800a7b7          	lui	a5,0x800a
 8006826:	90c78793          	addi	a5,a5,-1780 # 800990c <_GLOBAL__sub_I__ZSt7nothrow+0x10e>
 800682a:	d43e                	sw	a5,40(sp)
 800682c:	009c                	addi	a5,sp,64
 800682e:	d63e                	sw	a5,44(sp)
 8006830:	080077b7          	lui	a5,0x8007
 8006834:	8f078793          	addi	a5,a5,-1808 # 80068f0 <_ZN6miosix6Thread14threadLauncherEPFPvS1_ES1_+0xe2>
 8006838:	d83e                	sw	a5,48(sp)
 800683a:	de86                	sw	ra,124(sp)
 800683c:	dca2                	sw	s0,120(sp)
 800683e:	daa6                	sw	s1,116(sp)
 8006840:	d8ca                	sw	s2,112(sp)
 8006842:	d6ce                	sw	s3,108(sp)
 8006844:	d4d2                	sw	s4,104(sp)
 8006846:	d2d6                	sw	s5,100(sp)
 8006848:	d0da                	sw	s6,96(sp)
 800684a:	cede                	sw	s7,92(sp)
 800684c:	cce2                	sw	s8,88(sp)
 800684e:	cae6                	sw	s9,84(sp)
 8006850:	c8ea                	sw	s10,80(sp)
 8006852:	c6ee                	sw	s11,76(sp)
 8006854:	da0a                	sw	sp,52(sp)
 8006856:	c42e                	sw	a1,8(sp)
 8006858:	c23a                	sw	a4,4(sp)
 800685a:	ffffe097          	auipc	ra,0xffffe
 800685e:	a9e080e7          	jalr	-1378(ra) # 80042f8 <_Unwind_SjLj_Register>
 8006862:	4785                	li	a5,1
 8006864:	c83e                	sw	a5,16(sp)
 8006866:	4522                	lw	a0,8(sp)
 8006868:	4792                	lw	a5,4(sp)
 800686a:	9782                	jalr	a5
 800686c:	300477f3          	csrrci	a5,mstatus,8
 8006870:	200017b7          	lui	a5,0x20001
 8006874:	9e87a703          	lw	a4,-1560(a5) # 200009e8 <_ZN6miosix13runningThreadE>
 8006878:	00c74783          	lbu	a5,12(a4)
 800687c:	0047e693          	ori	a3,a5,4
 8006880:	00d70623          	sb	a3,12(a4)
 8006884:	8bc1                	andi	a5,a5,16
 8006886:	efb9                	bnez	a5,80068e4 <_ZN6miosix6Thread14threadLauncherEPFPvS1_ES1_+0xd6>
 8006888:	0a072783          	lw	a5,160(a4)
 800688c:	cb89                	beqz	a5,800689e <_ZN6miosix6Thread14threadLauncherEPFPvS1_ES1_+0x90>
 800688e:	0a072683          	lw	a3,160(a4)
 8006892:	00c6c783          	lbu	a5,12(a3)
 8006896:	fdf7f793          	andi	a5,a5,-33
 800689a:	00f68623          	sb	a5,12(a3)
 800689e:	0aa72023          	sw	a0,160(a4)
 80068a2:	300467f3          	csrrsi	a5,mstatus,8
 80068a6:	3045e7f3          	csrrsi	a5,mie,11
 80068aa:	00000073          	ecall
 80068ae:	57fd                	li	a5,-1
 80068b0:	4509                	li	a0,2
 80068b2:	c83e                	sw	a5,16(sp)
 80068b4:	00000097          	auipc	ra,0x0
 80068b8:	280080e7          	jalr	640(ra) # 8006b34 <_ZN6miosix12errorHandlerENS_5ErrorE>
 80068bc:	4502                	lw	a0,0(sp)
 80068be:	ffffe097          	auipc	ra,0xffffe
 80068c2:	a5c080e7          	jalr	-1444(ra) # 800431a <_Unwind_SjLj_Unregister>
 80068c6:	50f6                	lw	ra,124(sp)
 80068c8:	5466                	lw	s0,120(sp)
 80068ca:	54d6                	lw	s1,116(sp)
 80068cc:	5946                	lw	s2,112(sp)
 80068ce:	59b6                	lw	s3,108(sp)
 80068d0:	5a26                	lw	s4,104(sp)
 80068d2:	5a96                	lw	s5,100(sp)
 80068d4:	5b06                	lw	s6,96(sp)
 80068d6:	4bf6                	lw	s7,92(sp)
 80068d8:	4c66                	lw	s8,88(sp)
 80068da:	4cd6                	lw	s9,84(sp)
 80068dc:	4d46                	lw	s10,80(sp)
 80068de:	4db6                	lw	s11,76(sp)
 80068e0:	6109                	addi	sp,sp,128
 80068e2:	8082                	ret
 80068e4:	200017b7          	lui	a5,0x20001
 80068e8:	4705                	li	a4,1
 80068ea:	9ee78223          	sb	a4,-1564(a5) # 200009e4 <_ZN6miosixL12existDeletedE>
 80068ee:	bf55                	j	80068a2 <_ZN6miosix6Thread14threadLauncherEPFPvS1_ES1_+0x94>
 80068f0:	4752                	lw	a4,20(sp)
 80068f2:	47c2                	lw	a5,16(sp)
 80068f4:	c03a                	sw	a4,0(sp)
 80068f6:	4762                	lw	a4,24(sp)
 80068f8:	e3b9                	bnez	a5,800693e <_ZN6miosix6Thread14threadLauncherEPFPvS1_ES1_+0x130>
 80068fa:	4785                	li	a5,1
 80068fc:	4502                	lw	a0,0(sp)
 80068fe:	04f71d63          	bne	a4,a5,8006958 <_ZN6miosix6Thread14threadLauncherEPFPvS1_ES1_+0x14a>
 8006902:	00001097          	auipc	ra,0x1
 8006906:	10c080e7          	jalr	268(ra) # 8007a0e <__cxa_begin_catch>
 800690a:	87aa                	mv	a5,a0
 800690c:	0800a537          	lui	a0,0x800a
 8006910:	4709                	li	a4,2
 8006912:	fd450513          	addi	a0,a0,-44 # 8009fd4 <__clz_tab+0x144>
 8006916:	c83a                	sw	a4,16(sp)
 8006918:	c03e                	sw	a5,0(sp)
 800691a:	ffffe097          	auipc	ra,0xffffe
 800691e:	cfa080e7          	jalr	-774(ra) # 8004614 <_Z8errorLogPKcz>
 8006922:	4502                	lw	a0,0(sp)
 8006924:	411c                	lw	a5,0(a0)
 8006926:	479c                	lw	a5,8(a5)
 8006928:	9782                	jalr	a5
 800692a:	85aa                	mv	a1,a0
 800692c:	0800a537          	lui	a0,0x800a
 8006930:	00450513          	addi	a0,a0,4 # 800a004 <__clz_tab+0x174>
 8006934:	ffffe097          	auipc	ra,0xffffe
 8006938:	ce0080e7          	jalr	-800(ra) # 8004614 <_Z8errorLogPKcz>
 800693c:	a825                	j	8006974 <_ZN6miosix6Thread14threadLauncherEPFPvS1_ES1_+0x166>
 800693e:	17fd                	addi	a5,a5,-1
 8006940:	e3b1                	bnez	a5,8006984 <_ZN6miosix6Thread14threadLauncherEPFPvS1_ES1_+0x176>
 8006942:	00001097          	auipc	ra,0x1
 8006946:	14a080e7          	jalr	330(ra) # 8007a8c <__cxa_end_catch>
 800694a:	4502                	lw	a0,0(sp)
 800694c:	57fd                	li	a5,-1
 800694e:	c83e                	sw	a5,16(sp)
 8006950:	ffffe097          	auipc	ra,0xffffe
 8006954:	afc080e7          	jalr	-1284(ra) # 800444c <_Unwind_SjLj_Resume>
 8006958:	00001097          	auipc	ra,0x1
 800695c:	0b6080e7          	jalr	182(ra) # 8007a0e <__cxa_begin_catch>
 8006960:	0800a537          	lui	a0,0x800a
 8006964:	478d                	li	a5,3
 8006966:	fd450513          	addi	a0,a0,-44 # 8009fd4 <__clz_tab+0x144>
 800696a:	c83e                	sw	a5,16(sp)
 800696c:	ffffe097          	auipc	ra,0xffffe
 8006970:	ca8080e7          	jalr	-856(ra) # 8004614 <_Z8errorLogPKcz>
 8006974:	00001097          	auipc	ra,0x1
 8006978:	118080e7          	jalr	280(ra) # 8007a8c <__cxa_end_catch>
 800697c:	007c                	addi	a5,sp,12
 800697e:	c03e                	sw	a5,0(sp)
 8006980:	4501                	li	a0,0
 8006982:	b5ed                	j	800686c <_ZN6miosix6Thread14threadLauncherEPFPvS1_ES1_+0x5e>
 8006984:	17fd                	addi	a5,a5,-1
 8006986:	ef89                	bnez	a5,80069a0 <_ZN6miosix6Thread14threadLauncherEPFPvS1_ES1_+0x192>
 8006988:	c802                	sw	zero,16(sp)
 800698a:	00001097          	auipc	ra,0x1
 800698e:	102080e7          	jalr	258(ra) # 8007a8c <__cxa_end_catch>
 8006992:	4502                	lw	a0,0(sp)
 8006994:	57fd                	li	a5,-1
 8006996:	c83e                	sw	a5,16(sp)
 8006998:	ffffe097          	auipc	ra,0xffffe
 800699c:	ab4080e7          	jalr	-1356(ra) # 800444c <_Unwind_SjLj_Resume>
 80069a0:	9002                	ebreak

080069a2 <_ZN6miosix6Thread23IRQenableIrqAndWaitImplEv>:
 80069a2:	200017b7          	lui	a5,0x20001
 80069a6:	9e87a703          	lw	a4,-1560(a5) # 200009e8 <_ZN6miosix13runningThreadE>
 80069aa:	1141                	addi	sp,sp,-16
 80069ac:	c422                	sw	s0,8(sp)
 80069ae:	c226                	sw	s1,4(sp)
 80069b0:	c606                	sw	ra,12(sp)
 80069b2:	00c74783          	lbu	a5,12(a4)
 80069b6:	20001437          	lui	s0,0x20001
 80069ba:	9d444483          	lbu	s1,-1580(s0) # 200009d4 <_ZN6miosixL23interruptDisableNestingE>
 80069be:	0017e793          	ori	a5,a5,1
 80069c2:	9c040a23          	sb	zero,-1580(s0)
 80069c6:	00f70623          	sb	a5,12(a4)
 80069ca:	300467f3          	csrrsi	a5,mstatus,8
 80069ce:	3045e7f3          	csrrsi	a5,mie,11
 80069d2:	00000073          	ecall
 80069d6:	300477f3          	csrrci	a5,mstatus,8
 80069da:	9d444783          	lbu	a5,-1580(s0)
 80069de:	eb81                	bnez	a5,80069ee <_ZN6miosix6Thread23IRQenableIrqAndWaitImplEv+0x4c>
 80069e0:	9c940a23          	sb	s1,-1580(s0)
 80069e4:	40b2                	lw	ra,12(sp)
 80069e6:	4422                	lw	s0,8(sp)
 80069e8:	4492                	lw	s1,4(sp)
 80069ea:	0141                	addi	sp,sp,16
 80069ec:	8082                	ret
 80069ee:	4509                	li	a0,2
 80069f0:	00000097          	auipc	ra,0x0
 80069f4:	144080e7          	jalr	324(ra) # 8006b34 <_ZN6miosix12errorHandlerENS_5ErrorE>
 80069f8:	40b2                	lw	ra,12(sp)
 80069fa:	9c940a23          	sb	s1,-1580(s0)
 80069fe:	4422                	lw	s0,8(sp)
 8006a00:	4492                	lw	s1,4(sp)
 8006a02:	0141                	addi	sp,sp,16
 8006a04:	8082                	ret

08006a06 <_ZN6miosix6Thread18allocateIdleThreadEv>:
 8006a06:	08006537          	lui	a0,0x8006
 8006a0a:	1141                	addi	sp,sp,-16
 8006a0c:	4705                	li	a4,1
 8006a0e:	4681                	li	a3,0
 8006a10:	4601                	li	a2,0
 8006a12:	10000593          	li	a1,256
 8006a16:	4c250513          	addi	a0,a0,1218 # 80064c2 <_ZN6miosix10idleThreadEPv>
 8006a1a:	c422                	sw	s0,8(sp)
 8006a1c:	c606                	sw	ra,12(sp)
 8006a1e:	00000097          	auipc	ra,0x0
 8006a22:	d20080e7          	jalr	-736(ra) # 800673e <_ZN6miosix6Thread8doCreateEPFPvS1_EjS1_tb>
 8006a26:	842a                	mv	s0,a0
 8006a28:	c911                	beqz	a0,8006a3c <_ZN6miosix6Thread18allocateIdleThreadEv+0x36>
 8006a2a:	200017b7          	lui	a5,0x20001
 8006a2e:	40b2                	lw	ra,12(sp)
 8006a30:	9e87a423          	sw	s0,-1560(a5) # 200009e8 <_ZN6miosix13runningThreadE>
 8006a34:	8522                	mv	a0,s0
 8006a36:	4422                	lw	s0,8(sp)
 8006a38:	0141                	addi	sp,sp,16
 8006a3a:	8082                	ret
 8006a3c:	00000097          	auipc	ra,0x0
 8006a40:	0f8080e7          	jalr	248(ra) # 8006b34 <_ZN6miosix12errorHandlerENS_5ErrorE>
 8006a44:	200017b7          	lui	a5,0x20001
 8006a48:	40b2                	lw	ra,12(sp)
 8006a4a:	9e87a423          	sw	s0,-1560(a5) # 200009e8 <_ZN6miosix13runningThreadE>
 8006a4e:	8522                	mv	a0,s0
 8006a50:	4422                	lw	s0,8(sp)
 8006a52:	0141                	addi	sp,sp,16
 8006a54:	8082                	ret

08006a56 <_ZN6miosix6Thread19IRQgetCurrentThreadEv>:
 8006a56:	200017b7          	lui	a5,0x20001
 8006a5a:	9e87a503          	lw	a0,-1560(a5) # 200009e8 <_ZN6miosix13runningThreadE>
 8006a5e:	c111                	beqz	a0,8006a62 <_ZN6miosix6Thread19IRQgetCurrentThreadEv+0xc>
 8006a60:	8082                	ret
 8006a62:	00000317          	auipc	t1,0x0
 8006a66:	fa430067          	jr	-92(t1) # 8006a06 <_ZN6miosix6Thread18allocateIdleThreadEv>

08006a6a <_ZN6miosix6Thread9getCReentEv>:
 8006a6a:	200017b7          	lui	a5,0x20001
 8006a6e:	9e87a503          	lw	a0,-1560(a5) # 200009e8 <_ZN6miosix13runningThreadE>
 8006a72:	c501                	beqz	a0,8006a7a <_ZN6miosix6Thread9getCReentEv+0x10>
 8006a74:	0a452503          	lw	a0,164(a0)
 8006a78:	8082                	ret
 8006a7a:	1141                	addi	sp,sp,-16
 8006a7c:	c606                	sw	ra,12(sp)
 8006a7e:	00000097          	auipc	ra,0x0
 8006a82:	f88080e7          	jalr	-120(ra) # 8006a06 <_ZN6miosix6Thread18allocateIdleThreadEv>
 8006a86:	40b2                	lw	ra,12(sp)
 8006a88:	0a452503          	lw	a0,164(a0)
 8006a8c:	0141                	addi	sp,sp,16
 8006a8e:	8082                	ret

08006a90 <_ZN6miosix11startKernelEv>:
 8006a90:	1141                	addi	sp,sp,-16
 8006a92:	200017b7          	lui	a5,0x20001
 8006a96:	c226                	sw	s1,4(sp)
 8006a98:	9e87a483          	lw	s1,-1560(a5) # 200009e8 <_ZN6miosix13runningThreadE>
 8006a9c:	c606                	sw	ra,12(sp)
 8006a9e:	c422                	sw	s0,8(sp)
 8006aa0:	c4b5                	beqz	s1,8006b0c <_ZN6miosix11startKernelEv+0x7c>
 8006aa2:	08004537          	lui	a0,0x8004
 8006aa6:	4705                	li	a4,1
 8006aa8:	4681                	li	a3,0
 8006aaa:	4601                	li	a2,0
 8006aac:	6585                	lui	a1,0x1
 8006aae:	63c50513          	addi	a0,a0,1596 # 800463c <_ZN6miosix10mainLoaderEPv>
 8006ab2:	00000097          	auipc	ra,0x0
 8006ab6:	c8c080e7          	jalr	-884(ra) # 800673e <_ZN6miosix6Thread8doCreateEPFPvS1_EjS1_tb>
 8006aba:	842a                	mv	s0,a0
 8006abc:	cd31                	beqz	a0,8006b18 <_ZN6miosix11startKernelEv+0x88>
 8006abe:	4585                	li	a1,1
 8006ac0:	8522                	mv	a0,s0
 8006ac2:	00000097          	auipc	ra,0x0
 8006ac6:	4fe080e7          	jalr	1278(ra) # 8006fc0 <_ZN6miosix17PriorityScheduler11PKaddThreadEPNS_6ThreadENS_25PrioritySchedulerPriorityE>
 8006aca:	c91d                	beqz	a0,8006b00 <_ZN6miosix11startKernelEv+0x70>
 8006acc:	8526                	mv	a0,s1
 8006ace:	00000097          	auipc	ra,0x0
 8006ad2:	5f2080e7          	jalr	1522(ra) # 80070c0 <_ZN6miosix17PriorityScheduler16IRQsetIdleThreadEPNS_6ThreadE>
 8006ad6:	08007537          	lui	a0,0x8007
 8006ada:	a6a50513          	addi	a0,a0,-1430 # 8006a6a <_ZN6miosix6Thread9getCReentEv>
 8006ade:	ffffe097          	auipc	ra,0xffffe
 8006ae2:	7be080e7          	jalr	1982(ra) # 800529c <_ZN6miosix22setCReentrancyCallbackEPFP6_reentvE>
 8006ae6:	4422                	lw	s0,8(sp)
 8006ae8:	40b2                	lw	ra,12(sp)
 8006aea:	4492                	lw	s1,4(sp)
 8006aec:	200017b7          	lui	a5,0x20001
 8006af0:	4705                	li	a4,1
 8006af2:	9ce78aa3          	sb	a4,-1579(a5) # 200009d5 <_ZN6miosixL13kernelStartedE>
 8006af6:	0141                	addi	sp,sp,16
 8006af8:	fffff317          	auipc	t1,0xfffff
 8006afc:	6e630067          	jr	1766(t1) # 80061de <_ZN14miosix_private22IRQportableStartKernelEv>
 8006b00:	4509                	li	a0,2
 8006b02:	00000097          	auipc	ra,0x0
 8006b06:	032080e7          	jalr	50(ra) # 8006b34 <_ZN6miosix12errorHandlerENS_5ErrorE>
 8006b0a:	b7c9                	j	8006acc <_ZN6miosix11startKernelEv+0x3c>
 8006b0c:	00000097          	auipc	ra,0x0
 8006b10:	efa080e7          	jalr	-262(ra) # 8006a06 <_ZN6miosix6Thread18allocateIdleThreadEv>
 8006b14:	84aa                	mv	s1,a0
 8006b16:	b771                	j	8006aa2 <_ZN6miosix11startKernelEv+0x12>
 8006b18:	00000097          	auipc	ra,0x0
 8006b1c:	01c080e7          	jalr	28(ra) # 8006b34 <_ZN6miosix12errorHandlerENS_5ErrorE>
 8006b20:	bf79                	j	8006abe <_ZN6miosix11startKernelEv+0x2e>

08006b22 <_GLOBAL__sub_I_ctxsave>:
 8006b22:	200017b7          	lui	a5,0x20001
 8006b26:	9dc78793          	addi	a5,a5,-1572 # 200009dc <_ZN6miosix12sleepingListE>
 8006b2a:	0007a023          	sw	zero,0(a5)
 8006b2e:	0007a223          	sw	zero,4(a5)
 8006b32:	8082                	ret

08006b34 <_ZN6miosix12errorHandlerENS_5ErrorE>:
 8006b34:	080087b7          	lui	a5,0x8008
 8006b38:	7159                	addi	sp,sp,-112
 8006b3a:	ec878793          	addi	a5,a5,-312 # 8007ec8 <__gxx_personality_sj0>
 8006b3e:	c2be                	sw	a5,68(sp)
 8006b40:	0800a7b7          	lui	a5,0x800a
 8006b44:	92478793          	addi	a5,a5,-1756 # 8009924 <_GLOBAL__sub_I__ZSt7nothrow+0x126>
 8006b48:	c4be                	sw	a5,72(sp)
 8006b4a:	109c                	addi	a5,sp,96
 8006b4c:	c6be                	sw	a5,76(sp)
 8006b4e:	080077b7          	lui	a5,0x8007
 8006b52:	872a                	mv	a4,a0
 8006b54:	d6078793          	addi	a5,a5,-672 # 8006d60 <_ZN6miosix12errorHandlerENS_5ErrorE+0x22c>
 8006b58:	1068                	addi	a0,sp,44
 8006b5a:	d686                	sw	ra,108(sp)
 8006b5c:	d4a2                	sw	s0,104(sp)
 8006b5e:	c8be                	sw	a5,80(sp)
 8006b60:	ca8a                	sw	sp,84(sp)
 8006b62:	c43a                	sw	a4,8(sp)
 8006b64:	ffffd097          	auipc	ra,0xffffd
 8006b68:	794080e7          	jalr	1940(ra) # 80042f8 <_Unwind_SjLj_Register>
 8006b6c:	57fd                	li	a5,-1
 8006b6e:	d83e                	sw	a5,48(sp)
 8006b70:	00000097          	auipc	ra,0x0
 8006b74:	a06080e7          	jalr	-1530(ra) # 8006576 <_ZN6miosix20areInterruptsEnabledEv>
 8006b78:	e141                	bnez	a0,8006bf8 <_ZN6miosix12errorHandlerENS_5ErrorE+0xc4>
 8006b7a:	4722                	lw	a4,8(sp)
 8006b7c:	479d                	li	a5,7
 8006b7e:	04e7ee63          	bltu	a5,a4,8006bda <_ZN6miosix12errorHandlerENS_5ErrorE+0xa6>
 8006b82:	00271793          	slli	a5,a4,0x2
 8006b86:	0800a737          	lui	a4,0x800a
 8006b8a:	a5c70713          	addi	a4,a4,-1444 # 8009a5c <_ZN6miosixL3verE+0x50>
 8006b8e:	97ba                	add	a5,a5,a4
 8006b90:	439c                	lw	a5,0(a5)
 8006b92:	8782                	jr	a5
 8006b94:	57fd                	li	a5,-1
 8006b96:	d83e                	sw	a5,48(sp)
 8006b98:	ffffe097          	auipc	ra,0xffffe
 8006b9c:	546080e7          	jalr	1350(ra) # 80050de <_ZN6miosix14DefaultConsole8instanceEv>
 8006ba0:	4118                	lw	a4,0(a0)
 8006ba2:	d23a                	sw	a4,36(sp)
 8006ba4:	c701                	beqz	a4,8006bac <_ZN6miosix12errorHandlerENS_5ErrorE+0x78>
 8006ba6:	435c                	lw	a5,4(a4)
 8006ba8:	0785                	addi	a5,a5,1
 8006baa:	c35c                	sw	a5,4(a4)
 8006bac:	5692                	lw	a3,36(sp)
 8006bae:	0800a5b7          	lui	a1,0x800a
 8006bb2:	471d                	li	a4,7
 8006bb4:	429c                	lw	a5,0(a3)
 8006bb6:	25858593          	addi	a1,a1,600 # 800a258 <_ZTVN6miosix6DeviceE+0x120>
 8006bba:	8536                	mv	a0,a3
 8006bbc:	4bdc                	lw	a5,20(a5)
 8006bbe:	d83a                	sw	a4,48(sp)
 8006bc0:	9782                	jalr	a5
 8006bc2:	5612                	lw	a2,36(sp)
 8006bc4:	4254                	lw	a3,4(a2)
 8006bc6:	425c                	lw	a5,4(a2)
 8006bc8:	4705                	li	a4,1
 8006bca:	17fd                	addi	a5,a5,-1
 8006bcc:	c25c                	sw	a5,4(a2)
 8006bce:	00e69663          	bne	a3,a4,8006bda <_ZN6miosix12errorHandlerENS_5ErrorE+0xa6>
 8006bd2:	421c                	lw	a5,0(a2)
 8006bd4:	8532                	mv	a0,a2
 8006bd6:	43dc                	lw	a5,4(a5)
 8006bd8:	9782                	jalr	a5
 8006bda:	57fd                	li	a5,-1
 8006bdc:	d83e                	sw	a5,48(sp)
 8006bde:	fffff097          	auipc	ra,0xfffff
 8006be2:	4c4080e7          	jalr	1220(ra) # 80060a2 <_ZN14miosix_private15IRQsystemRebootEv>
 8006be6:	1068                	addi	a0,sp,44
 8006be8:	ffffd097          	auipc	ra,0xffffd
 8006bec:	732080e7          	jalr	1842(ra) # 800431a <_Unwind_SjLj_Unregister>
 8006bf0:	50b6                	lw	ra,108(sp)
 8006bf2:	5426                	lw	s0,104(sp)
 8006bf4:	6165                	addi	sp,sp,112
 8006bf6:	8082                	ret
 8006bf8:	fffff097          	auipc	ra,0xfffff
 8006bfc:	7d0080e7          	jalr	2000(ra) # 80063c8 <_ZN6miosix17disableInterruptsEv>
 8006c00:	bfad                	j	8006b7a <_ZN6miosix12errorHandlerENS_5ErrorE+0x46>
 8006c02:	57fd                	li	a5,-1
 8006c04:	d83e                	sw	a5,48(sp)
 8006c06:	ffffe097          	auipc	ra,0xffffe
 8006c0a:	4d8080e7          	jalr	1240(ra) # 80050de <_ZN6miosix14DefaultConsole8instanceEv>
 8006c0e:	4118                	lw	a4,0(a0)
 8006c10:	d43a                	sw	a4,40(sp)
 8006c12:	c701                	beqz	a4,8006c1a <_ZN6miosix12errorHandlerENS_5ErrorE+0xe6>
 8006c14:	435c                	lw	a5,4(a4)
 8006c16:	0785                	addi	a5,a5,1
 8006c18:	c35c                	sw	a5,4(a4)
 8006c1a:	56a2                	lw	a3,40(sp)
 8006c1c:	0800a5b7          	lui	a1,0x800a
 8006c20:	4721                	li	a4,8
 8006c22:	429c                	lw	a5,0(a3)
 8006c24:	27058593          	addi	a1,a1,624 # 800a270 <_ZTVN6miosix6DeviceE+0x138>
 8006c28:	8536                	mv	a0,a3
 8006c2a:	4bdc                	lw	a5,20(a5)
 8006c2c:	d83a                	sw	a4,48(sp)
 8006c2e:	9782                	jalr	a5
 8006c30:	5622                	lw	a2,40(sp)
 8006c32:	bf49                	j	8006bc4 <_ZN6miosix12errorHandlerENS_5ErrorE+0x90>
 8006c34:	57fd                	li	a5,-1
 8006c36:	d83e                	sw	a5,48(sp)
 8006c38:	ffffe097          	auipc	ra,0xffffe
 8006c3c:	4a6080e7          	jalr	1190(ra) # 80050de <_ZN6miosix14DefaultConsole8instanceEv>
 8006c40:	4118                	lw	a4,0(a0)
 8006c42:	c63a                	sw	a4,12(sp)
 8006c44:	c701                	beqz	a4,8006c4c <_ZN6miosix12errorHandlerENS_5ErrorE+0x118>
 8006c46:	435c                	lw	a5,4(a4)
 8006c48:	0785                	addi	a5,a5,1
 8006c4a:	c35c                	sw	a5,4(a4)
 8006c4c:	46b2                	lw	a3,12(sp)
 8006c4e:	0800a5b7          	lui	a1,0x800a
 8006c52:	4705                	li	a4,1
 8006c54:	429c                	lw	a5,0(a3)
 8006c56:	1c058593          	addi	a1,a1,448 # 800a1c0 <_ZTVN6miosix6DeviceE+0x88>
 8006c5a:	8536                	mv	a0,a3
 8006c5c:	4bdc                	lw	a5,20(a5)
 8006c5e:	d83a                	sw	a4,48(sp)
 8006c60:	9782                	jalr	a5
 8006c62:	4632                	lw	a2,12(sp)
 8006c64:	b785                	j	8006bc4 <_ZN6miosix12errorHandlerENS_5ErrorE+0x90>
 8006c66:	57fd                	li	a5,-1
 8006c68:	d83e                	sw	a5,48(sp)
 8006c6a:	ffffe097          	auipc	ra,0xffffe
 8006c6e:	474080e7          	jalr	1140(ra) # 80050de <_ZN6miosix14DefaultConsole8instanceEv>
 8006c72:	4118                	lw	a4,0(a0)
 8006c74:	c83a                	sw	a4,16(sp)
 8006c76:	c701                	beqz	a4,8006c7e <_ZN6miosix12errorHandlerENS_5ErrorE+0x14a>
 8006c78:	435c                	lw	a5,4(a4)
 8006c7a:	0785                	addi	a5,a5,1
 8006c7c:	c35c                	sw	a5,4(a4)
 8006c7e:	46c2                	lw	a3,16(sp)
 8006c80:	0800a5b7          	lui	a1,0x800a
 8006c84:	4709                	li	a4,2
 8006c86:	429c                	lw	a5,0(a3)
 8006c88:	1d858593          	addi	a1,a1,472 # 800a1d8 <_ZTVN6miosix6DeviceE+0xa0>
 8006c8c:	8536                	mv	a0,a3
 8006c8e:	4bdc                	lw	a5,20(a5)
 8006c90:	d83a                	sw	a4,48(sp)
 8006c92:	9782                	jalr	a5
 8006c94:	4642                	lw	a2,16(sp)
 8006c96:	b73d                	j	8006bc4 <_ZN6miosix12errorHandlerENS_5ErrorE+0x90>
 8006c98:	57fd                	li	a5,-1
 8006c9a:	d83e                	sw	a5,48(sp)
 8006c9c:	ffffe097          	auipc	ra,0xffffe
 8006ca0:	442080e7          	jalr	1090(ra) # 80050de <_ZN6miosix14DefaultConsole8instanceEv>
 8006ca4:	4118                	lw	a4,0(a0)
 8006ca6:	ca3a                	sw	a4,20(sp)
 8006ca8:	c701                	beqz	a4,8006cb0 <_ZN6miosix12errorHandlerENS_5ErrorE+0x17c>
 8006caa:	435c                	lw	a5,4(a4)
 8006cac:	0785                	addi	a5,a5,1
 8006cae:	c35c                	sw	a5,4(a4)
 8006cb0:	46d2                	lw	a3,20(sp)
 8006cb2:	0800a5b7          	lui	a1,0x800a
 8006cb6:	470d                	li	a4,3
 8006cb8:	429c                	lw	a5,0(a3)
 8006cba:	1f058593          	addi	a1,a1,496 # 800a1f0 <_ZTVN6miosix6DeviceE+0xb8>
 8006cbe:	8536                	mv	a0,a3
 8006cc0:	4bdc                	lw	a5,20(a5)
 8006cc2:	d83a                	sw	a4,48(sp)
 8006cc4:	9782                	jalr	a5
 8006cc6:	4652                	lw	a2,20(sp)
 8006cc8:	bdf5                	j	8006bc4 <_ZN6miosix12errorHandlerENS_5ErrorE+0x90>
 8006cca:	57fd                	li	a5,-1
 8006ccc:	d83e                	sw	a5,48(sp)
 8006cce:	ffffe097          	auipc	ra,0xffffe
 8006cd2:	410080e7          	jalr	1040(ra) # 80050de <_ZN6miosix14DefaultConsole8instanceEv>
 8006cd6:	4118                	lw	a4,0(a0)
 8006cd8:	cc3a                	sw	a4,24(sp)
 8006cda:	c701                	beqz	a4,8006ce2 <_ZN6miosix12errorHandlerENS_5ErrorE+0x1ae>
 8006cdc:	435c                	lw	a5,4(a4)
 8006cde:	0785                	addi	a5,a5,1
 8006ce0:	c35c                	sw	a5,4(a4)
 8006ce2:	46e2                	lw	a3,24(sp)
 8006ce4:	0800a5b7          	lui	a1,0x800a
 8006ce8:	4711                	li	a4,4
 8006cea:	429c                	lw	a5,0(a3)
 8006cec:	20858593          	addi	a1,a1,520 # 800a208 <_ZTVN6miosix6DeviceE+0xd0>
 8006cf0:	8536                	mv	a0,a3
 8006cf2:	4bdc                	lw	a5,20(a5)
 8006cf4:	d83a                	sw	a4,48(sp)
 8006cf6:	9782                	jalr	a5
 8006cf8:	4662                	lw	a2,24(sp)
 8006cfa:	b5e9                	j	8006bc4 <_ZN6miosix12errorHandlerENS_5ErrorE+0x90>
 8006cfc:	57fd                	li	a5,-1
 8006cfe:	d83e                	sw	a5,48(sp)
 8006d00:	ffffe097          	auipc	ra,0xffffe
 8006d04:	3de080e7          	jalr	990(ra) # 80050de <_ZN6miosix14DefaultConsole8instanceEv>
 8006d08:	4118                	lw	a4,0(a0)
 8006d0a:	ce3a                	sw	a4,28(sp)
 8006d0c:	c701                	beqz	a4,8006d14 <_ZN6miosix12errorHandlerENS_5ErrorE+0x1e0>
 8006d0e:	435c                	lw	a5,4(a4)
 8006d10:	0785                	addi	a5,a5,1
 8006d12:	c35c                	sw	a5,4(a4)
 8006d14:	46f2                	lw	a3,28(sp)
 8006d16:	0800a5b7          	lui	a1,0x800a
 8006d1a:	4715                	li	a4,5
 8006d1c:	429c                	lw	a5,0(a3)
 8006d1e:	22458593          	addi	a1,a1,548 # 800a224 <_ZTVN6miosix6DeviceE+0xec>
 8006d22:	8536                	mv	a0,a3
 8006d24:	4bdc                	lw	a5,20(a5)
 8006d26:	d83a                	sw	a4,48(sp)
 8006d28:	9782                	jalr	a5
 8006d2a:	4672                	lw	a2,28(sp)
 8006d2c:	bd61                	j	8006bc4 <_ZN6miosix12errorHandlerENS_5ErrorE+0x90>
 8006d2e:	57fd                	li	a5,-1
 8006d30:	d83e                	sw	a5,48(sp)
 8006d32:	ffffe097          	auipc	ra,0xffffe
 8006d36:	3ac080e7          	jalr	940(ra) # 80050de <_ZN6miosix14DefaultConsole8instanceEv>
 8006d3a:	4118                	lw	a4,0(a0)
 8006d3c:	d03a                	sw	a4,32(sp)
 8006d3e:	c701                	beqz	a4,8006d46 <_ZN6miosix12errorHandlerENS_5ErrorE+0x212>
 8006d40:	435c                	lw	a5,4(a4)
 8006d42:	0785                	addi	a5,a5,1
 8006d44:	c35c                	sw	a5,4(a4)
 8006d46:	5682                	lw	a3,32(sp)
 8006d48:	0800a5b7          	lui	a1,0x800a
 8006d4c:	4719                	li	a4,6
 8006d4e:	429c                	lw	a5,0(a3)
 8006d50:	24858593          	addi	a1,a1,584 # 800a248 <_ZTVN6miosix6DeviceE+0x110>
 8006d54:	8536                	mv	a0,a3
 8006d56:	4bdc                	lw	a5,20(a5)
 8006d58:	d83a                	sw	a4,48(sp)
 8006d5a:	9782                	jalr	a5
 8006d5c:	5602                	lw	a2,32(sp)
 8006d5e:	b59d                	j	8006bc4 <_ZN6miosix12errorHandlerENS_5ErrorE+0x90>
 8006d60:	56d2                	lw	a3,52(sp)
 8006d62:	57c2                	lw	a5,48(sp)
 8006d64:	471d                	li	a4,7
 8006d66:	c436                	sw	a3,8(sp)
 8006d68:	00f76a63          	bltu	a4,a5,8006d7c <_ZN6miosix12errorHandlerENS_5ErrorE+0x248>
 8006d6c:	0800a737          	lui	a4,0x800a
 8006d70:	078a                	slli	a5,a5,0x2
 8006d72:	a7c70713          	addi	a4,a4,-1412 # 8009a7c <_ZN6miosixL3verE+0x70>
 8006d76:	97ba                	add	a5,a5,a4
 8006d78:	439c                	lw	a5,0(a5)
 8006d7a:	8782                	jr	a5
 8006d7c:	9002                	ebreak
 8006d7e:	5622                	lw	a2,40(sp)
 8006d80:	4254                	lw	a3,4(a2)
 8006d82:	425c                	lw	a5,4(a2)
 8006d84:	4705                	li	a4,1
 8006d86:	17fd                	addi	a5,a5,-1
 8006d88:	c25c                	sw	a5,4(a2)
 8006d8a:	00e69663          	bne	a3,a4,8006d96 <_ZN6miosix12errorHandlerENS_5ErrorE+0x262>
 8006d8e:	421c                	lw	a5,0(a2)
 8006d90:	8532                	mv	a0,a2
 8006d92:	43dc                	lw	a5,4(a5)
 8006d94:	9782                	jalr	a5
 8006d96:	4522                	lw	a0,8(sp)
 8006d98:	57fd                	li	a5,-1
 8006d9a:	d83e                	sw	a5,48(sp)
 8006d9c:	ffffd097          	auipc	ra,0xffffd
 8006da0:	6b0080e7          	jalr	1712(ra) # 800444c <_Unwind_SjLj_Resume>
 8006da4:	4632                	lw	a2,12(sp)
 8006da6:	bfe9                	j	8006d80 <_ZN6miosix12errorHandlerENS_5ErrorE+0x24c>
 8006da8:	4642                	lw	a2,16(sp)
 8006daa:	bfd9                	j	8006d80 <_ZN6miosix12errorHandlerENS_5ErrorE+0x24c>
 8006dac:	4652                	lw	a2,20(sp)
 8006dae:	bfc9                	j	8006d80 <_ZN6miosix12errorHandlerENS_5ErrorE+0x24c>
 8006db0:	4662                	lw	a2,24(sp)
 8006db2:	b7f9                	j	8006d80 <_ZN6miosix12errorHandlerENS_5ErrorE+0x24c>
 8006db4:	4672                	lw	a2,28(sp)
 8006db6:	b7e9                	j	8006d80 <_ZN6miosix12errorHandlerENS_5ErrorE+0x24c>
 8006db8:	5602                	lw	a2,32(sp)
 8006dba:	b7d9                	j	8006d80 <_ZN6miosix12errorHandlerENS_5ErrorE+0x24c>
 8006dbc:	5612                	lw	a2,36(sp)
 8006dbe:	b7c9                	j	8006d80 <_ZN6miosix12errorHandlerENS_5ErrorE+0x24c>

08006dc0 <pthread_mutexattr_init>:
 8006dc0:	478d                	li	a5,3
 8006dc2:	c51c                	sw	a5,8(a0)
 8006dc4:	4501                	li	a0,0
 8006dc6:	8082                	ret

08006dc8 <pthread_mutexattr_destroy>:
 8006dc8:	4501                	li	a0,0
 8006dca:	8082                	ret

08006dcc <pthread_mutexattr_settype>:
 8006dcc:	4705                	li	a4,1
 8006dce:	87aa                	mv	a5,a0
 8006dd0:	00e58663          	beq	a1,a4,8006ddc <pthread_mutexattr_settype+0x10>
 8006dd4:	470d                	li	a4,3
 8006dd6:	4559                	li	a0,22
 8006dd8:	00e59463          	bne	a1,a4,8006de0 <pthread_mutexattr_settype+0x14>
 8006ddc:	c78c                	sw	a1,8(a5)
 8006dde:	4501                	li	a0,0
 8006de0:	8082                	ret

08006de2 <pthread_mutex_init>:
 8006de2:	00052023          	sw	zero,0(a0)
 8006de6:	00052223          	sw	zero,4(a0)
 8006dea:	c991                	beqz	a1,8006dfe <pthread_mutex_init+0x1c>
 8006dec:	459c                	lw	a5,8(a1)
 8006dee:	17fd                	addi	a5,a5,-1
 8006df0:	00f037b3          	snez	a5,a5
 8006df4:	40f007b3          	neg	a5,a5
 8006df8:	c55c                	sw	a5,12(a0)
 8006dfa:	4501                	li	a0,0
 8006dfc:	8082                	ret
 8006dfe:	57fd                	li	a5,-1
 8006e00:	c55c                	sw	a5,12(a0)
 8006e02:	4501                	li	a0,0
 8006e04:	8082                	ret

08006e06 <pthread_mutex_destroy>:
 8006e06:	4108                	lw	a0,0(a0)
 8006e08:	00a03533          	snez	a0,a0
 8006e0c:	0512                	slli	a0,a0,0x4
 8006e0e:	8082                	ret

08006e10 <pthread_mutex_lock>:
 8006e10:	080087b7          	lui	a5,0x8008
 8006e14:	711d                	addi	sp,sp,-96
 8006e16:	ec878793          	addi	a5,a5,-312 # 8007ec8 <__gxx_personality_sj0>
 8006e1a:	d23e                	sw	a5,36(sp)
 8006e1c:	0800a7b7          	lui	a5,0x800a
 8006e20:	93878793          	addi	a5,a5,-1736 # 8009938 <_GLOBAL__sub_I__ZSt7nothrow+0x13a>
 8006e24:	d43e                	sw	a5,40(sp)
 8006e26:	089c                	addi	a5,sp,80
 8006e28:	d63e                	sw	a5,44(sp)
 8006e2a:	080077b7          	lui	a5,0x8007
 8006e2e:	872a                	mv	a4,a0
 8006e30:	ee278793          	addi	a5,a5,-286 # 8006ee2 <pthread_mutex_lock+0xd2>
 8006e34:	0068                	addi	a0,sp,12
 8006e36:	ce86                	sw	ra,92(sp)
 8006e38:	cca2                	sw	s0,88(sp)
 8006e3a:	d83e                	sw	a5,48(sp)
 8006e3c:	da0a                	sw	sp,52(sp)
 8006e3e:	c23a                	sw	a4,4(sp)
 8006e40:	ffffd097          	auipc	ra,0xffffd
 8006e44:	4b8080e7          	jalr	1208(ra) # 80042f8 <_Unwind_SjLj_Register>
 8006e48:	300477f3          	csrrci	a5,mstatus,8
 8006e4c:	4785                	li	a5,1
 8006e4e:	c83e                	sw	a5,16(sp)
 8006e50:	00000097          	auipc	ra,0x0
 8006e54:	c06080e7          	jalr	-1018(ra) # 8006a56 <_ZN6miosix6Thread19IRQgetCurrentThreadEv>
 8006e58:	4792                	lw	a5,4(sp)
 8006e5a:	c42a                	sw	a0,8(sp)
 8006e5c:	439c                	lw	a5,0(a5)
 8006e5e:	cfbd                	beqz	a5,8006edc <pthread_mutex_lock+0xcc>
 8006e60:	4722                	lw	a4,8(sp)
 8006e62:	04f70c63          	beq	a4,a5,8006eba <pthread_mutex_lock+0xaa>
 8006e66:	4712                	lw	a4,4(sp)
 8006e68:	46a2                	lw	a3,8(sp)
 8006e6a:	c682                	sw	zero,76(sp)
 8006e6c:	4358                	lw	a4,4(a4)
 8006e6e:	c4b6                	sw	a3,72(sp)
 8006e70:	c321                	beqz	a4,8006eb0 <pthread_mutex_lock+0xa0>
 8006e72:	4692                	lw	a3,4(sp)
 8006e74:	00b0                	addi	a2,sp,72
 8006e76:	4698                	lw	a4,8(a3)
 8006e78:	c350                	sw	a2,4(a4)
 8006e7a:	c690                	sw	a2,8(a3)
 8006e7c:	a809                	j	8006e8e <pthread_mutex_lock+0x7e>
 8006e7e:	4785                	li	a5,1
 8006e80:	c83e                	sw	a5,16(sp)
 8006e82:	00000097          	auipc	ra,0x0
 8006e86:	b20080e7          	jalr	-1248(ra) # 80069a2 <_ZN6miosix6Thread23IRQenableIrqAndWaitImplEv>
 8006e8a:	4792                	lw	a5,4(sp)
 8006e8c:	439c                	lw	a5,0(a5)
 8006e8e:	4722                	lw	a4,8(sp)
 8006e90:	fef717e3          	bne	a4,a5,8006e7e <pthread_mutex_lock+0x6e>
 8006e94:	300467f3          	csrrsi	a5,mstatus,8
 8006e98:	3045e7f3          	csrrsi	a5,mie,11
 8006e9c:	0068                	addi	a0,sp,12
 8006e9e:	ffffd097          	auipc	ra,0xffffd
 8006ea2:	47c080e7          	jalr	1148(ra) # 800431a <_Unwind_SjLj_Unregister>
 8006ea6:	40f6                	lw	ra,92(sp)
 8006ea8:	4466                	lw	s0,88(sp)
 8006eaa:	4501                	li	a0,0
 8006eac:	6125                	addi	sp,sp,96
 8006eae:	8082                	ret
 8006eb0:	4712                	lw	a4,4(sp)
 8006eb2:	00b4                	addi	a3,sp,72
 8006eb4:	c354                	sw	a3,4(a4)
 8006eb6:	c714                	sw	a3,8(a4)
 8006eb8:	bfd9                	j	8006e8e <pthread_mutex_lock+0x7e>
 8006eba:	4712                	lw	a4,4(sp)
 8006ebc:	475c                	lw	a5,12(a4)
 8006ebe:	0007c563          	bltz	a5,8006ec8 <pthread_mutex_lock+0xb8>
 8006ec2:	0785                	addi	a5,a5,1
 8006ec4:	c75c                	sw	a5,12(a4)
 8006ec6:	b7f9                	j	8006e94 <pthread_mutex_lock+0x84>
 8006ec8:	4785                	li	a5,1
 8006eca:	4515                	li	a0,5
 8006ecc:	c83e                	sw	a5,16(sp)
 8006ece:	00000097          	auipc	ra,0x0
 8006ed2:	c66080e7          	jalr	-922(ra) # 8006b34 <_ZN6miosix12errorHandlerENS_5ErrorE>
 8006ed6:	4792                	lw	a5,4(sp)
 8006ed8:	439c                	lw	a5,0(a5)
 8006eda:	b771                	j	8006e66 <pthread_mutex_lock+0x56>
 8006edc:	4792                	lw	a5,4(sp)
 8006ede:	c388                	sw	a0,0(a5)
 8006ee0:	bf55                	j	8006e94 <pthread_mutex_lock+0x84>
 8006ee2:	300467f3          	csrrsi	a5,mstatus,8
 8006ee6:	3045e7f3          	csrrsi	a5,mie,11
 8006eea:	4552                	lw	a0,20(sp)
 8006eec:	57fd                	li	a5,-1
 8006eee:	c83e                	sw	a5,16(sp)
 8006ef0:	ffffd097          	auipc	ra,0xffffd
 8006ef4:	55c080e7          	jalr	1372(ra) # 800444c <_Unwind_SjLj_Resume>

08006ef8 <pthread_mutex_unlock>:
 8006ef8:	080087b7          	lui	a5,0x8008
 8006efc:	715d                	addi	sp,sp,-80
 8006efe:	ec878793          	addi	a5,a5,-312 # 8007ec8 <__gxx_personality_sj0>
 8006f02:	d23e                	sw	a5,36(sp)
 8006f04:	0800a7b7          	lui	a5,0x800a
 8006f08:	93e78793          	addi	a5,a5,-1730 # 800993e <_GLOBAL__sub_I__ZSt7nothrow+0x140>
 8006f0c:	d43e                	sw	a5,40(sp)
 8006f0e:	009c                	addi	a5,sp,64
 8006f10:	d63e                	sw	a5,44(sp)
 8006f12:	080077b7          	lui	a5,0x8007
 8006f16:	872a                	mv	a4,a0
 8006f18:	fa678793          	addi	a5,a5,-90 # 8006fa6 <pthread_mutex_unlock+0xae>
 8006f1c:	0068                	addi	a0,sp,12
 8006f1e:	c686                	sw	ra,76(sp)
 8006f20:	c4a2                	sw	s0,72(sp)
 8006f22:	d83e                	sw	a5,48(sp)
 8006f24:	da0a                	sw	sp,52(sp)
 8006f26:	c23a                	sw	a4,4(sp)
 8006f28:	ffffd097          	auipc	ra,0xffffd
 8006f2c:	3d0080e7          	jalr	976(ra) # 80042f8 <_Unwind_SjLj_Register>
 8006f30:	300477f3          	csrrci	a5,mstatus,8
 8006f34:	4712                	lw	a4,4(sp)
 8006f36:	475c                	lw	a5,12(a4)
 8006f38:	06f04463          	bgtz	a5,8006fa0 <pthread_mutex_unlock+0xa8>
 8006f3c:	4692                	lw	a3,4(sp)
 8006f3e:	42dc                	lw	a5,4(a3)
 8006f40:	cfa1                	beqz	a5,8006f98 <pthread_mutex_unlock+0xa0>
 8006f42:	439c                	lw	a5,0(a5)
 8006f44:	873e                	mv	a4,a5
 8006f46:	853a                	mv	a0,a4
 8006f48:	4785                	li	a5,1
 8006f4a:	c83e                	sw	a5,16(sp)
 8006f4c:	c43a                	sw	a4,8(sp)
 8006f4e:	fffff097          	auipc	ra,0xfffff
 8006f52:	638080e7          	jalr	1592(ra) # 8006586 <_ZN6miosix6Thread9IRQwakeupEv>
 8006f56:	4692                	lw	a3,4(sp)
 8006f58:	42dc                	lw	a5,4(a3)
 8006f5a:	4398                	lw	a4,0(a5)
 8006f5c:	43dc                	lw	a5,4(a5)
 8006f5e:	c298                	sw	a4,0(a3)
 8006f60:	c2dc                	sw	a5,4(a3)
 8006f62:	00000097          	auipc	ra,0x0
 8006f66:	af4080e7          	jalr	-1292(ra) # 8006a56 <_ZN6miosix6Thread19IRQgetCurrentThreadEv>
 8006f6a:	fffff097          	auipc	ra,0xfffff
 8006f6e:	628080e7          	jalr	1576(ra) # 8006592 <_ZN6miosix6Thread11getPriorityEv>
 8006f72:	4522                	lw	a0,8(sp)
 8006f74:	fffff097          	auipc	ra,0xfffff
 8006f78:	61e080e7          	jalr	1566(ra) # 8006592 <_ZN6miosix6Thread11getPriorityEv>
 8006f7c:	300467f3          	csrrsi	a5,mstatus,8
 8006f80:	3045e7f3          	csrrsi	a5,mie,11
 8006f84:	0068                	addi	a0,sp,12
 8006f86:	ffffd097          	auipc	ra,0xffffd
 8006f8a:	394080e7          	jalr	916(ra) # 800431a <_Unwind_SjLj_Unregister>
 8006f8e:	40b6                	lw	ra,76(sp)
 8006f90:	4426                	lw	s0,72(sp)
 8006f92:	4501                	li	a0,0
 8006f94:	6161                	addi	sp,sp,80
 8006f96:	8082                	ret
 8006f98:	4792                	lw	a5,4(sp)
 8006f9a:	0007a023          	sw	zero,0(a5)
 8006f9e:	bff9                	j	8006f7c <pthread_mutex_unlock+0x84>
 8006fa0:	17fd                	addi	a5,a5,-1
 8006fa2:	c75c                	sw	a5,12(a4)
 8006fa4:	bfe1                	j	8006f7c <pthread_mutex_unlock+0x84>
 8006fa6:	300467f3          	csrrsi	a5,mstatus,8
 8006faa:	3045e7f3          	csrrsi	a5,mie,11
 8006fae:	4552                	lw	a0,20(sp)
 8006fb0:	57fd                	li	a5,-1
 8006fb2:	c83e                	sw	a5,16(sp)
 8006fb4:	ffffd097          	auipc	ra,0xffffd
 8006fb8:	498080e7          	jalr	1176(ra) # 800444c <_Unwind_SjLj_Resume>

08006fbc <pthread_setcancelstate>:
 8006fbc:	4501                	li	a0,0
 8006fbe:	8082                	ret

08006fc0 <_ZN6miosix17PriorityScheduler11PKaddThreadEPNS_6ThreadENS_25PrioritySchedulerPriorityE>:
 8006fc0:	01059793          	slli	a5,a1,0x10
 8006fc4:	87c1                	srai	a5,a5,0x10
 8006fc6:	00279713          	slli	a4,a5,0x2
 8006fca:	200017b7          	lui	a5,0x20001
 8006fce:	8a878793          	addi	a5,a5,-1880 # 200008a8 <_bss_start>
 8006fd2:	97ba                	add	a5,a5,a4
 8006fd4:	4398                	lw	a4,0(a5)
 8006fd6:	00b51023          	sh	a1,0(a0)
 8006fda:	c711                	beqz	a4,8006fe6 <_ZN6miosix17PriorityScheduler11PKaddThreadEPNS_6ThreadENS_25PrioritySchedulerPriorityE+0x26>
 8006fdc:	435c                	lw	a5,4(a4)
 8006fde:	c15c                	sw	a5,4(a0)
 8006fe0:	c348                	sw	a0,4(a4)
 8006fe2:	4505                	li	a0,1
 8006fe4:	8082                	ret
 8006fe6:	c388                	sw	a0,0(a5)
 8006fe8:	c148                	sw	a0,4(a0)
 8006fea:	4505                	li	a0,1
 8006fec:	8082                	ret

08006fee <_ZN6miosix17PriorityScheduler19PKremoveDeadThreadsEv>:
 8006fee:	1101                	addi	sp,sp,-32
 8006ff0:	ca26                	sw	s1,20(sp)
 8006ff2:	200014b7          	lui	s1,0x20001
 8006ff6:	8a848493          	addi	s1,s1,-1880 # 200008a8 <_bss_start>
 8006ffa:	c84a                	sw	s2,16(sp)
 8006ffc:	c64e                	sw	s3,12(sp)
 8006ffe:	ce06                	sw	ra,28(sp)
 8007000:	cc22                	sw	s0,24(sp)
 8007002:	c452                	sw	s4,8(sp)
 8007004:	ff048993          	addi	s3,s1,-16
 8007008:	4951                	li	s2,20
 800700a:	44c8                	lw	a0,12(s1)
 800700c:	c13d                	beqz	a0,8007072 <_ZN6miosix17PriorityScheduler19PKremoveDeadThreadsEv+0x84>
 800700e:	00c54783          	lbu	a5,12(a0)
 8007012:	8bd1                	andi	a5,a5,20
 8007014:	07279a63          	bne	a5,s2,8007088 <_ZN6miosix17PriorityScheduler19PKremoveDeadThreadsEv+0x9a>
 8007018:	4401                	li	s0,0
 800701a:	4681                	li	a3,0
 800701c:	a02d                	j	8007046 <_ZN6miosix17PriorityScheduler19PKremoveDeadThreadsEv+0x58>
 800701e:	01c52a03          	lw	s4,28(a0)
 8007022:	c4d8                	sw	a4,12(s1)
 8007024:	c058                	sw	a4,4(s0)
 8007026:	fffff097          	auipc	ra,0xfffff
 800702a:	6a0080e7          	jalr	1696(ra) # 80066c6 <_ZN6miosix6ThreadD1Ev>
 800702e:	8552                	mv	a0,s4
 8007030:	ffffa097          	auipc	ra,0xffffa
 8007034:	976080e7          	jalr	-1674(ra) # 80009a6 <free>
 8007038:	44c8                	lw	a0,12(s1)
 800703a:	4685                	li	a3,1
 800703c:	00c54783          	lbu	a5,12(a0)
 8007040:	8bd1                	andi	a5,a5,20
 8007042:	05279363          	bne	a5,s2,8007088 <_ZN6miosix17PriorityScheduler19PKremoveDeadThreadsEv+0x9a>
 8007046:	4158                	lw	a4,4(a0)
 8007048:	00a70963          	beq	a4,a0,800705a <_ZN6miosix17PriorityScheduler19PKremoveDeadThreadsEv+0x6c>
 800704c:	fae9                	bnez	a3,800701e <_ZN6miosix17PriorityScheduler19PKremoveDeadThreadsEv+0x30>
 800704e:	87ba                	mv	a5,a4
 8007050:	843e                	mv	s0,a5
 8007052:	43dc                	lw	a5,4(a5)
 8007054:	fea79ee3          	bne	a5,a0,8007050 <_ZN6miosix17PriorityScheduler19PKremoveDeadThreadsEv+0x62>
 8007058:	b7d9                	j	800701e <_ZN6miosix17PriorityScheduler19PKremoveDeadThreadsEv+0x30>
 800705a:	4d40                	lw	s0,28(a0)
 800705c:	fffff097          	auipc	ra,0xfffff
 8007060:	66a080e7          	jalr	1642(ra) # 80066c6 <_ZN6miosix6ThreadD1Ev>
 8007064:	8522                	mv	a0,s0
 8007066:	ffffa097          	auipc	ra,0xffffa
 800706a:	940080e7          	jalr	-1728(ra) # 80009a6 <free>
 800706e:	0004a623          	sw	zero,12(s1)
 8007072:	14f1                	addi	s1,s1,-4
 8007074:	f9349be3          	bne	s1,s3,800700a <_ZN6miosix17PriorityScheduler19PKremoveDeadThreadsEv+0x1c>
 8007078:	40f2                	lw	ra,28(sp)
 800707a:	4462                	lw	s0,24(sp)
 800707c:	44d2                	lw	s1,20(sp)
 800707e:	4942                	lw	s2,16(sp)
 8007080:	49b2                	lw	s3,12(sp)
 8007082:	4a22                	lw	s4,8(sp)
 8007084:	6105                	addi	sp,sp,32
 8007086:	8082                	ret
 8007088:	872a                	mv	a4,a0
 800708a:	a031                	j	8007096 <_ZN6miosix17PriorityScheduler19PKremoveDeadThreadsEv+0xa8>
 800708c:	00c54783          	lbu	a5,12(a0)
 8007090:	8bd1                	andi	a5,a5,20
 8007092:	01278763          	beq	a5,s2,80070a0 <_ZN6miosix17PriorityScheduler19PKremoveDeadThreadsEv+0xb2>
 8007096:	842a                	mv	s0,a0
 8007098:	4148                	lw	a0,4(a0)
 800709a:	fee519e3          	bne	a0,a4,800708c <_ZN6miosix17PriorityScheduler19PKremoveDeadThreadsEv+0x9e>
 800709e:	bfd1                	j	8007072 <_ZN6miosix17PriorityScheduler19PKremoveDeadThreadsEv+0x84>
 80070a0:	415c                	lw	a5,4(a0)
 80070a2:	01c52a03          	lw	s4,28(a0)
 80070a6:	c05c                	sw	a5,4(s0)
 80070a8:	fffff097          	auipc	ra,0xfffff
 80070ac:	61e080e7          	jalr	1566(ra) # 80066c6 <_ZN6miosix6ThreadD1Ev>
 80070b0:	8552                	mv	a0,s4
 80070b2:	ffffa097          	auipc	ra,0xffffa
 80070b6:	8f4080e7          	jalr	-1804(ra) # 80009a6 <free>
 80070ba:	44d8                	lw	a4,12(s1)
 80070bc:	8522                	mv	a0,s0
 80070be:	bfe1                	j	8007096 <_ZN6miosix17PriorityScheduler19PKremoveDeadThreadsEv+0xa8>

080070c0 <_ZN6miosix17PriorityScheduler16IRQsetIdleThreadEPNS_6ThreadE>:
 80070c0:	57fd                	li	a5,-1
 80070c2:	00f51023          	sh	a5,0(a0)
 80070c6:	200017b7          	lui	a5,0x20001
 80070ca:	9ea7a823          	sw	a0,-1552(a5) # 200009f0 <_ZN6miosix17PriorityScheduler4idleE>
 80070ce:	8082                	ret

080070d0 <_ZN6miosix17FilesystemManager8instanceEv>:
 80070d0:	080087b7          	lui	a5,0x8008
 80070d4:	715d                	addi	sp,sp,-80
 80070d6:	ec878793          	addi	a5,a5,-312 # 8007ec8 <__gxx_personality_sj0>
 80070da:	d23e                	sw	a5,36(sp)
 80070dc:	0800a7b7          	lui	a5,0x800a
 80070e0:	94478793          	addi	a5,a5,-1724 # 8009944 <_GLOBAL__sub_I__ZSt7nothrow+0x146>
 80070e4:	d43e                	sw	a5,40(sp)
 80070e6:	009c                	addi	a5,sp,64
 80070e8:	d63e                	sw	a5,44(sp)
 80070ea:	080077b7          	lui	a5,0x8007
 80070ee:	1b478793          	addi	a5,a5,436 # 80071b4 <_ZN6miosix17FilesystemManager8instanceEv+0xe4>
 80070f2:	0068                	addi	a0,sp,12
 80070f4:	d83e                	sw	a5,48(sp)
 80070f6:	c686                	sw	ra,76(sp)
 80070f8:	c4a2                	sw	s0,72(sp)
 80070fa:	da0a                	sw	sp,52(sp)
 80070fc:	ffffd097          	auipc	ra,0xffffd
 8007100:	1fc080e7          	jalr	508(ra) # 80042f8 <_Unwind_SjLj_Register>
 8007104:	200017b7          	lui	a5,0x20001
 8007108:	a007c783          	lbu	a5,-1536(a5) # 20000a00 <_ZGVZN6miosix17FilesystemManager8instanceEvE8instance>
 800710c:	0ff0000f          	fence
 8007110:	0ff7f793          	andi	a5,a5,255
 8007114:	c385                	beqz	a5,8007134 <_ZN6miosix17FilesystemManager8instanceEv+0x64>
 8007116:	200017b7          	lui	a5,0x20001
 800711a:	c43e                	sw	a5,8(sp)
 800711c:	0068                	addi	a0,sp,12
 800711e:	ffffd097          	auipc	ra,0xffffd
 8007122:	1fc080e7          	jalr	508(ra) # 800431a <_Unwind_SjLj_Unregister>
 8007126:	47a2                	lw	a5,8(sp)
 8007128:	40b6                	lw	ra,76(sp)
 800712a:	4426                	lw	s0,72(sp)
 800712c:	8b878513          	addi	a0,a5,-1864 # 200008b8 <_ZZN6miosix17FilesystemManager8instanceEvE8instance>
 8007130:	6161                	addi	sp,sp,80
 8007132:	8082                	ret
 8007134:	200017b7          	lui	a5,0x20001
 8007138:	a0078513          	addi	a0,a5,-1536 # 20000a00 <_ZGVZN6miosix17FilesystemManager8instanceEvE8instance>
 800713c:	fffff097          	auipc	ra,0xfffff
 8007140:	bc6080e7          	jalr	-1082(ra) # 8005d02 <__cxa_guard_acquire>
 8007144:	200017b7          	lui	a5,0x20001
 8007148:	c43e                	sw	a5,8(sp)
 800714a:	d969                	beqz	a0,800711c <_ZN6miosix17FilesystemManager8instanceEv+0x4c>
 800714c:	4785                	li	a5,1
 800714e:	c83e                	sw	a5,16(sp)
 8007150:	200017b7          	lui	a5,0x20001
 8007154:	4585                	li	a1,1
 8007156:	8b878513          	addi	a0,a5,-1864 # 200008b8 <_ZZN6miosix17FilesystemManager8instanceEvE8instance>
 800715a:	ffffe097          	auipc	ra,0xffffe
 800715e:	af8080e7          	jalr	-1288(ra) # 8004c52 <_ZN6miosix9FastMutexC1ENS0_7OptionsE>
 8007162:	200017b7          	lui	a5,0x20001
 8007166:	8b878793          	addi	a5,a5,-1864 # 200008b8 <_ZZN6miosix17FilesystemManager8instanceEvE8instance>
 800716a:	01478713          	addi	a4,a5,20
 800716e:	200016b7          	lui	a3,0x20001
 8007172:	a0068513          	addi	a0,a3,-1536 # 20000a00 <_ZGVZN6miosix17FilesystemManager8instanceEvE8instance>
 8007176:	cfd8                	sw	a4,28(a5)
 8007178:	d398                	sw	a4,32(a5)
 800717a:	0007aa23          	sw	zero,20(a5)
 800717e:	0007ac23          	sw	zero,24(a5)
 8007182:	0207a223          	sw	zero,36(a5)
 8007186:	0207a423          	sw	zero,40(a5)
 800718a:	fffff097          	auipc	ra,0xfffff
 800718e:	cfe080e7          	jalr	-770(ra) # 8005e88 <__cxa_guard_release>
 8007192:	200017b7          	lui	a5,0x20001
 8007196:	20001637          	lui	a2,0x20001
 800719a:	08007537          	lui	a0,0x8007
 800719e:	85860613          	addi	a2,a2,-1960 # 20000858 <__dso_handle>
 80071a2:	8b878593          	addi	a1,a5,-1864 # 200008b8 <_ZZN6miosix17FilesystemManager8instanceEvE8instance>
 80071a6:	37250513          	addi	a0,a0,882 # 8007372 <_ZN6miosix17FilesystemManagerD1Ev>
 80071aa:	ffff9097          	auipc	ra,0xffff9
 80071ae:	030080e7          	jalr	48(ra) # 80001da <__cxa_atexit>
 80071b2:	b7ad                	j	800711c <_ZN6miosix17FilesystemManager8instanceEv+0x4c>
 80071b4:	47d2                	lw	a5,20(sp)
 80071b6:	20001737          	lui	a4,0x20001
 80071ba:	a0070513          	addi	a0,a4,-1536 # 20000a00 <_ZGVZN6miosix17FilesystemManager8instanceEvE8instance>
 80071be:	c43e                	sw	a5,8(sp)
 80071c0:	fffff097          	auipc	ra,0xfffff
 80071c4:	d16080e7          	jalr	-746(ra) # 8005ed6 <__cxa_guard_abort>
 80071c8:	4522                	lw	a0,8(sp)
 80071ca:	57fd                	li	a5,-1
 80071cc:	c83e                	sw	a5,16(sp)
 80071ce:	ffffd097          	auipc	ra,0xffffd
 80071d2:	27e080e7          	jalr	638(ra) # 800444c <_Unwind_SjLj_Resume>

080071d6 <_ZN6miosix19FileDescriptorTableD1Ev>:
 80071d6:	080087b7          	lui	a5,0x8008
 80071da:	711d                	addi	sp,sp,-96
 80071dc:	ec878793          	addi	a5,a5,-312 # 8007ec8 <__gxx_personality_sj0>
 80071e0:	d23e                	sw	a5,36(sp)
 80071e2:	0800a7b7          	lui	a5,0x800a
 80071e6:	94a78793          	addi	a5,a5,-1718 # 800994a <_GLOBAL__sub_I__ZSt7nothrow+0x14c>
 80071ea:	c8ca                	sw	s2,80(sp)
 80071ec:	892a                	mv	s2,a0
 80071ee:	0068                	addi	a0,sp,12
 80071f0:	ce86                	sw	ra,92(sp)
 80071f2:	cca2                	sw	s0,88(sp)
 80071f4:	caa6                	sw	s1,84(sp)
 80071f6:	c6ce                	sw	s3,76(sp)
 80071f8:	d43e                	sw	a5,40(sp)
 80071fa:	ffffd097          	auipc	ra,0xffffd
 80071fe:	0fe080e7          	jalr	254(ra) # 80042f8 <_Unwind_SjLj_Register>
 8007202:	04490413          	addi	s0,s2,68
 8007206:	c802                	sw	zero,16(sp)
 8007208:	02490493          	addi	s1,s2,36
 800720c:	00000097          	auipc	ra,0x0
 8007210:	ec4080e7          	jalr	-316(ra) # 80070d0 <_ZN6miosix17FilesystemManager8instanceEv>
 8007214:	4985                	li	s3,1
 8007216:	4008                	lw	a0,0(s0)
 8007218:	c911                	beqz	a0,800722c <_ZN6miosix19FileDescriptorTableD1Ev+0x56>
 800721a:	4158                	lw	a4,4(a0)
 800721c:	415c                	lw	a5,4(a0)
 800721e:	17fd                	addi	a5,a5,-1
 8007220:	c15c                	sw	a5,4(a0)
 8007222:	01371563          	bne	a4,s3,800722c <_ZN6miosix19FileDescriptorTableD1Ev+0x56>
 8007226:	411c                	lw	a5,0(a0)
 8007228:	53dc                	lw	a5,36(a5)
 800722a:	9782                	jalr	a5
 800722c:	1471                	addi	s0,s0,-4
 800722e:	fe9414e3          	bne	s0,s1,8007216 <_ZN6miosix19FileDescriptorTableD1Ev+0x40>
 8007232:	01092503          	lw	a0,16(s2)
 8007236:	01890793          	addi	a5,s2,24
 800723a:	00f50663          	beq	a0,a5,8007246 <_ZN6miosix19FileDescriptorTableD1Ev+0x70>
 800723e:	00000097          	auipc	ra,0x0
 8007242:	7b8080e7          	jalr	1976(ra) # 80079f6 <_ZdlPv>
 8007246:	854a                	mv	a0,s2
 8007248:	c802                	sw	zero,16(sp)
 800724a:	00000097          	auipc	ra,0x0
 800724e:	bbc080e7          	jalr	-1092(ra) # 8006e06 <pthread_mutex_destroy>
 8007252:	0068                	addi	a0,sp,12
 8007254:	ffffd097          	auipc	ra,0xffffd
 8007258:	0c6080e7          	jalr	198(ra) # 800431a <_Unwind_SjLj_Unregister>
 800725c:	40f6                	lw	ra,92(sp)
 800725e:	4466                	lw	s0,88(sp)
 8007260:	44d6                	lw	s1,84(sp)
 8007262:	4946                	lw	s2,80(sp)
 8007264:	49b6                	lw	s3,76(sp)
 8007266:	6125                	addi	sp,sp,96
 8007268:	8082                	ret

0800726a <_ZN6miosix19FileDescriptorTable5closeEi>:
 800726a:	479d                	li	a5,7
 800726c:	06b7e963          	bltu	a5,a1,80072de <_ZN6miosix19FileDescriptorTable5closeEi+0x74>
 8007270:	058a                	slli	a1,a1,0x2
 8007272:	02850513          	addi	a0,a0,40
 8007276:	952e                	add	a0,a0,a1
 8007278:	1101                	addi	sp,sp,-32
 800727a:	411c                	lw	a5,0(a0)
 800727c:	ce06                	sw	ra,28(sp)
 800727e:	00052023          	sw	zero,0(a0)
 8007282:	006c                	addi	a1,sp,12
 8007284:	0028                	addi	a0,sp,8
 8007286:	c402                	sw	zero,8(sp)
 8007288:	c63e                	sw	a5,12(sp)
 800728a:	ffffe097          	auipc	ra,0xffffe
 800728e:	fc4080e7          	jalr	-60(ra) # 800524e <_ZN6miosix17intrusive_ref_ptrINS_8FileBaseEEaSERKS2_>
 8007292:	4532                	lw	a0,12(sp)
 8007294:	c901                	beqz	a0,80072a4 <_ZN6miosix19FileDescriptorTable5closeEi+0x3a>
 8007296:	4154                	lw	a3,4(a0)
 8007298:	415c                	lw	a5,4(a0)
 800729a:	4705                	li	a4,1
 800729c:	17fd                	addi	a5,a5,-1
 800729e:	c15c                	sw	a5,4(a0)
 80072a0:	02e68663          	beq	a3,a4,80072cc <_ZN6miosix19FileDescriptorTable5closeEi+0x62>
 80072a4:	4522                	lw	a0,8(sp)
 80072a6:	c905                	beqz	a0,80072d6 <_ZN6miosix19FileDescriptorTable5closeEi+0x6c>
 80072a8:	4154                	lw	a3,4(a0)
 80072aa:	415c                	lw	a5,4(a0)
 80072ac:	4705                	li	a4,1
 80072ae:	17fd                	addi	a5,a5,-1
 80072b0:	c15c                	sw	a5,4(a0)
 80072b2:	00e68663          	beq	a3,a4,80072be <_ZN6miosix19FileDescriptorTable5closeEi+0x54>
 80072b6:	40f2                	lw	ra,28(sp)
 80072b8:	4501                	li	a0,0
 80072ba:	6105                	addi	sp,sp,32
 80072bc:	8082                	ret
 80072be:	411c                	lw	a5,0(a0)
 80072c0:	53dc                	lw	a5,36(a5)
 80072c2:	9782                	jalr	a5
 80072c4:	40f2                	lw	ra,28(sp)
 80072c6:	4501                	li	a0,0
 80072c8:	6105                	addi	sp,sp,32
 80072ca:	8082                	ret
 80072cc:	411c                	lw	a5,0(a0)
 80072ce:	53dc                	lw	a5,36(a5)
 80072d0:	9782                	jalr	a5
 80072d2:	4522                	lw	a0,8(sp)
 80072d4:	f971                	bnez	a0,80072a8 <_ZN6miosix19FileDescriptorTable5closeEi+0x3e>
 80072d6:	40f2                	lw	ra,28(sp)
 80072d8:	555d                	li	a0,-9
 80072da:	6105                	addi	sp,sp,32
 80072dc:	8082                	ret
 80072de:	555d                	li	a0,-9
 80072e0:	8082                	ret

080072e2 <_ZNSt8_Rb_treeIN6miosix10StringPartESt4pairIKS1_NS0_17intrusive_ref_ptrINS0_14FilesystemBaseEEEESt10_Select1stIS7_ESt4lessIS1_ESaIS7_EE8_M_eraseEPSt13_Rb_tree_nodeIS7_E>:
 80072e2:	080087b7          	lui	a5,0x8008
 80072e6:	711d                	addi	sp,sp,-96
 80072e8:	ec878793          	addi	a5,a5,-312 # 8007ec8 <__gxx_personality_sj0>
 80072ec:	d23e                	sw	a5,36(sp)
 80072ee:	0800a7b7          	lui	a5,0x800a
 80072f2:	cca2                	sw	s0,88(sp)
 80072f4:	c6ce                	sw	s3,76(sp)
 80072f6:	842e                	mv	s0,a1
 80072f8:	89aa                	mv	s3,a0
 80072fa:	94e78793          	addi	a5,a5,-1714 # 800994e <_GLOBAL__sub_I__ZSt7nothrow+0x150>
 80072fe:	0068                	addi	a0,sp,12
 8007300:	ce86                	sw	ra,92(sp)
 8007302:	caa6                	sw	s1,84(sp)
 8007304:	c8ca                	sw	s2,80(sp)
 8007306:	c4d2                	sw	s4,72(sp)
 8007308:	d43e                	sw	a5,40(sp)
 800730a:	ffffd097          	auipc	ra,0xffffd
 800730e:	fee080e7          	jalr	-18(ra) # 80042f8 <_Unwind_SjLj_Register>
 8007312:	c039                	beqz	s0,8007358 <_ZNSt8_Rb_treeIN6miosix10StringPartESt4pairIKS1_NS0_17intrusive_ref_ptrINS0_14FilesystemBaseEEEESt10_Select1stIS7_ESt4lessIS1_ESaIS7_EE8_M_eraseEPSt13_Rb_tree_nodeIS7_E+0x76>
 8007314:	4a05                	li	s4,1
 8007316:	444c                	lw	a1,12(s0)
 8007318:	854e                	mv	a0,s3
 800731a:	84a2                	mv	s1,s0
 800731c:	00000097          	auipc	ra,0x0
 8007320:	fc6080e7          	jalr	-58(ra) # 80072e2 <_ZNSt8_Rb_treeIN6miosix10StringPartESt4pairIKS1_NS0_17intrusive_ref_ptrINS0_14FilesystemBaseEEEESt10_Select1stIS7_ESt4lessIS1_ESaIS7_EE8_M_eraseEPSt13_Rb_tree_nodeIS7_E>
 8007324:	5008                	lw	a0,32(s0)
 8007326:	01048913          	addi	s2,s1,16
 800732a:	4400                	lw	s0,8(s0)
 800732c:	c911                	beqz	a0,8007340 <_ZNSt8_Rb_treeIN6miosix10StringPartESt4pairIKS1_NS0_17intrusive_ref_ptrINS0_14FilesystemBaseEEEESt10_Select1stIS7_ESt4lessIS1_ESaIS7_EE8_M_eraseEPSt13_Rb_tree_nodeIS7_E+0x5e>
 800732e:	4158                	lw	a4,4(a0)
 8007330:	415c                	lw	a5,4(a0)
 8007332:	17fd                	addi	a5,a5,-1
 8007334:	c15c                	sw	a5,4(a0)
 8007336:	01471563          	bne	a4,s4,8007340 <_ZNSt8_Rb_treeIN6miosix10StringPartESt4pairIKS1_NS0_17intrusive_ref_ptrINS0_14FilesystemBaseEEEESt10_Select1stIS7_ESt4lessIS1_ESaIS7_EE8_M_eraseEPSt13_Rb_tree_nodeIS7_E+0x5e>
 800733a:	411c                	lw	a5,0(a0)
 800733c:	43dc                	lw	a5,4(a5)
 800733e:	9782                	jalr	a5
 8007340:	854a                	mv	a0,s2
 8007342:	c802                	sw	zero,16(sp)
 8007344:	00000097          	auipc	ra,0x0
 8007348:	440080e7          	jalr	1088(ra) # 8007784 <_ZN6miosix10StringPart5clearEv>
 800734c:	8526                	mv	a0,s1
 800734e:	00000097          	auipc	ra,0x0
 8007352:	6a8080e7          	jalr	1704(ra) # 80079f6 <_ZdlPv>
 8007356:	f061                	bnez	s0,8007316 <_ZNSt8_Rb_treeIN6miosix10StringPartESt4pairIKS1_NS0_17intrusive_ref_ptrINS0_14FilesystemBaseEEEESt10_Select1stIS7_ESt4lessIS1_ESaIS7_EE8_M_eraseEPSt13_Rb_tree_nodeIS7_E+0x34>
 8007358:	0068                	addi	a0,sp,12
 800735a:	ffffd097          	auipc	ra,0xffffd
 800735e:	fc0080e7          	jalr	-64(ra) # 800431a <_Unwind_SjLj_Unregister>
 8007362:	40f6                	lw	ra,92(sp)
 8007364:	4466                	lw	s0,88(sp)
 8007366:	44d6                	lw	s1,84(sp)
 8007368:	4946                	lw	s2,80(sp)
 800736a:	49b6                	lw	s3,76(sp)
 800736c:	4a26                	lw	s4,72(sp)
 800736e:	6125                	addi	sp,sp,96
 8007370:	8082                	ret

08007372 <_ZN6miosix17FilesystemManagerD1Ev>:
 8007372:	080087b7          	lui	a5,0x8008
 8007376:	715d                	addi	sp,sp,-80
 8007378:	ec878793          	addi	a5,a5,-312 # 8007ec8 <__gxx_personality_sj0>
 800737c:	d23e                	sw	a5,36(sp)
 800737e:	0800a7b7          	lui	a5,0x800a
 8007382:	c4a2                	sw	s0,72(sp)
 8007384:	95278793          	addi	a5,a5,-1710 # 8009952 <_GLOBAL__sub_I__ZSt7nothrow+0x154>
 8007388:	842a                	mv	s0,a0
 800738a:	0068                	addi	a0,sp,12
 800738c:	c686                	sw	ra,76(sp)
 800738e:	d43e                	sw	a5,40(sp)
 8007390:	ffffd097          	auipc	ra,0xffffd
 8007394:	f68080e7          	jalr	-152(ra) # 80042f8 <_Unwind_SjLj_Register>
 8007398:	5408                	lw	a0,40(s0)
 800739a:	c919                	beqz	a0,80073b0 <_ZN6miosix17FilesystemManagerD1Ev+0x3e>
 800739c:	4154                	lw	a3,4(a0)
 800739e:	415c                	lw	a5,4(a0)
 80073a0:	4705                	li	a4,1
 80073a2:	17fd                	addi	a5,a5,-1
 80073a4:	c15c                	sw	a5,4(a0)
 80073a6:	00e69563          	bne	a3,a4,80073b0 <_ZN6miosix17FilesystemManagerD1Ev+0x3e>
 80073aa:	411c                	lw	a5,0(a0)
 80073ac:	43dc                	lw	a5,4(a5)
 80073ae:	9782                	jalr	a5
 80073b0:	4c0c                	lw	a1,24(s0)
 80073b2:	01040513          	addi	a0,s0,16
 80073b6:	00000097          	auipc	ra,0x0
 80073ba:	f2c080e7          	jalr	-212(ra) # 80072e2 <_ZNSt8_Rb_treeIN6miosix10StringPartESt4pairIKS1_NS0_17intrusive_ref_ptrINS0_14FilesystemBaseEEEESt10_Select1stIS7_ESt4lessIS1_ESaIS7_EE8_M_eraseEPSt13_Rb_tree_nodeIS7_E>
 80073be:	8522                	mv	a0,s0
 80073c0:	c802                	sw	zero,16(sp)
 80073c2:	00000097          	auipc	ra,0x0
 80073c6:	a44080e7          	jalr	-1468(ra) # 8006e06 <pthread_mutex_destroy>
 80073ca:	0068                	addi	a0,sp,12
 80073cc:	ffffd097          	auipc	ra,0xffffd
 80073d0:	f4e080e7          	jalr	-178(ra) # 800431a <_Unwind_SjLj_Unregister>
 80073d4:	40b6                	lw	ra,76(sp)
 80073d6:	4426                	lw	s0,72(sp)
 80073d8:	6161                	addi	sp,sp,80
 80073da:	8082                	ret

080073dc <_ZN6miosix19FileDescriptorTableC1Ev>:
 80073dc:	080087b7          	lui	a5,0x8008
 80073e0:	7159                	addi	sp,sp,-112
 80073e2:	ec878793          	addi	a5,a5,-312 # 8007ec8 <__gxx_personality_sj0>
 80073e6:	da3e                	sw	a5,52(sp)
 80073e8:	0800a7b7          	lui	a5,0x800a
 80073ec:	95678793          	addi	a5,a5,-1706 # 8009956 <_GLOBAL__sub_I__ZSt7nothrow+0x158>
 80073f0:	dc3e                	sw	a5,56(sp)
 80073f2:	109c                	addi	a5,sp,96
 80073f4:	de3e                	sw	a5,60(sp)
 80073f6:	080077b7          	lui	a5,0x8007
 80073fa:	872a                	mv	a4,a0
 80073fc:	51478793          	addi	a5,a5,1300 # 8007514 <_ZN6miosix19FileDescriptorTableC1Ev+0x138>
 8007400:	0868                	addi	a0,sp,28
 8007402:	c23a                	sw	a4,4(sp)
 8007404:	d686                	sw	ra,108(sp)
 8007406:	c0be                	sw	a5,64(sp)
 8007408:	d4a2                	sw	s0,104(sp)
 800740a:	c28a                	sw	sp,68(sp)
 800740c:	ffffd097          	auipc	ra,0xffffd
 8007410:	eec080e7          	jalr	-276(ra) # 80042f8 <_Unwind_SjLj_Register>
 8007414:	4512                	lw	a0,4(sp)
 8007416:	57fd                	li	a5,-1
 8007418:	4585                	li	a1,1
 800741a:	d03e                	sw	a5,32(sp)
 800741c:	ffffe097          	auipc	ra,0xffffe
 8007420:	836080e7          	jalr	-1994(ra) # 8004c52 <_ZN6miosix9FastMutexC1ENS0_7OptionsE>
 8007424:	4712                	lw	a4,4(sp)
 8007426:	4785                	li	a5,1
 8007428:	01870693          	addi	a3,a4,24
 800742c:	cb5c                	sw	a5,20(a4)
 800742e:	02f00793          	li	a5,47
 8007432:	02870613          	addi	a2,a4,40
 8007436:	00f71c23          	sh	a5,24(a4)
 800743a:	cb14                	sw	a3,16(a4)
 800743c:	04870713          	addi	a4,a4,72
 8007440:	cc36                	sw	a3,24(sp)
 8007442:	c432                	sw	a2,8(sp)
 8007444:	87b2                	mv	a5,a2
 8007446:	c03a                	sw	a4,0(sp)
 8007448:	4702                	lw	a4,0(sp)
 800744a:	0007a023          	sw	zero,0(a5)
 800744e:	0791                	addi	a5,a5,4
 8007450:	fef71ce3          	bne	a4,a5,8007448 <_ZN6miosix19FileDescriptorTableC1Ev+0x6c>
 8007454:	4785                	li	a5,1
 8007456:	d03e                	sw	a5,32(sp)
 8007458:	00000097          	auipc	ra,0x0
 800745c:	c78080e7          	jalr	-904(ra) # 80070d0 <_ZN6miosix17FilesystemManager8instanceEv>
 8007460:	4792                	lw	a5,4(sp)
 8007462:	02c78713          	addi	a4,a5,44
 8007466:	03078793          	addi	a5,a5,48
 800746a:	c83a                	sw	a4,16(sp)
 800746c:	ca3e                	sw	a5,20(sp)
 800746e:	ffffe097          	auipc	ra,0xffffe
 8007472:	c70080e7          	jalr	-912(ra) # 80050de <_ZN6miosix14DefaultConsole8instanceEv>
 8007476:	411c                	lw	a5,0(a0)
 8007478:	cebe                	sw	a5,92(sp)
 800747a:	c781                	beqz	a5,8007482 <_ZN6miosix19FileDescriptorTableC1Ev+0xa6>
 800747c:	43d8                	lw	a4,4(a5)
 800747e:	0705                	addi	a4,a4,1
 8007480:	c3d8                	sw	a4,4(a5)
 8007482:	4789                	li	a5,2
 8007484:	02800513          	li	a0,40
 8007488:	d03e                	sw	a5,32(sp)
 800748a:	00001097          	auipc	ra,0x1
 800748e:	43e080e7          	jalr	1086(ra) # 80088c8 <_Znwj>
 8007492:	478d                	li	a5,3
 8007494:	08ec                	addi	a1,sp,92
 8007496:	d03e                	sw	a5,32(sp)
 8007498:	c62a                	sw	a0,12(sp)
 800749a:	ffffe097          	auipc	ra,0xffffe
 800749e:	80c080e7          	jalr	-2036(ra) # 8004ca6 <_ZN6miosix14TerminalDeviceC1ENS_17intrusive_ref_ptrINS_6DeviceEEE>
 80074a2:	4732                	lw	a4,12(sp)
 80074a4:	4552                	lw	a0,20(sp)
 80074a6:	08ac                	addi	a1,sp,88
 80074a8:	435c                	lw	a5,4(a4)
 80074aa:	ccba                	sw	a4,88(sp)
 80074ac:	0785                	addi	a5,a5,1
 80074ae:	c35c                	sw	a5,4(a4)
 80074b0:	ffffe097          	auipc	ra,0xffffe
 80074b4:	d9e080e7          	jalr	-610(ra) # 800524e <_ZN6miosix17intrusive_ref_ptrINS_8FileBaseEEaSERKS2_>
 80074b8:	85aa                	mv	a1,a0
 80074ba:	4542                	lw	a0,16(sp)
 80074bc:	ffffe097          	auipc	ra,0xffffe
 80074c0:	d92080e7          	jalr	-622(ra) # 800524e <_ZN6miosix17intrusive_ref_ptrINS_8FileBaseEEaSERKS2_>
 80074c4:	85aa                	mv	a1,a0
 80074c6:	4522                	lw	a0,8(sp)
 80074c8:	ffffe097          	auipc	ra,0xffffe
 80074cc:	d86080e7          	jalr	-634(ra) # 800524e <_ZN6miosix17intrusive_ref_ptrINS_8FileBaseEEaSERKS2_>
 80074d0:	4566                	lw	a0,88(sp)
 80074d2:	c901                	beqz	a0,80074e2 <_ZN6miosix19FileDescriptorTableC1Ev+0x106>
 80074d4:	4154                	lw	a3,4(a0)
 80074d6:	415c                	lw	a5,4(a0)
 80074d8:	4705                	li	a4,1
 80074da:	17fd                	addi	a5,a5,-1
 80074dc:	c15c                	sw	a5,4(a0)
 80074de:	02e68763          	beq	a3,a4,800750c <_ZN6miosix19FileDescriptorTableC1Ev+0x130>
 80074e2:	4576                	lw	a0,92(sp)
 80074e4:	c919                	beqz	a0,80074fa <_ZN6miosix19FileDescriptorTableC1Ev+0x11e>
 80074e6:	4154                	lw	a3,4(a0)
 80074e8:	415c                	lw	a5,4(a0)
 80074ea:	4705                	li	a4,1
 80074ec:	17fd                	addi	a5,a5,-1
 80074ee:	c15c                	sw	a5,4(a0)
 80074f0:	00e69563          	bne	a3,a4,80074fa <_ZN6miosix19FileDescriptorTableC1Ev+0x11e>
 80074f4:	411c                	lw	a5,0(a0)
 80074f6:	43dc                	lw	a5,4(a5)
 80074f8:	9782                	jalr	a5
 80074fa:	0868                	addi	a0,sp,28
 80074fc:	ffffd097          	auipc	ra,0xffffd
 8007500:	e1e080e7          	jalr	-482(ra) # 800431a <_Unwind_SjLj_Unregister>
 8007504:	50b6                	lw	ra,108(sp)
 8007506:	5426                	lw	s0,104(sp)
 8007508:	6165                	addi	sp,sp,112
 800750a:	8082                	ret
 800750c:	411c                	lw	a5,0(a0)
 800750e:	53dc                	lw	a5,36(a5)
 8007510:	9782                	jalr	a5
 8007512:	bfc1                	j	80074e2 <_ZN6miosix19FileDescriptorTableC1Ev+0x106>
 8007514:	5712                	lw	a4,36(sp)
 8007516:	5782                	lw	a5,32(sp)
 8007518:	c83a                	sw	a4,16(sp)
 800751a:	eb9d                	bnez	a5,8007550 <_ZN6miosix19FileDescriptorTableC1Ev+0x174>
 800751c:	4782                	lw	a5,0(sp)
 800751e:	4722                	lw	a4,8(sp)
 8007520:	04e79763          	bne	a5,a4,800756e <_ZN6miosix19FileDescriptorTableC1Ev+0x192>
 8007524:	4792                	lw	a5,4(sp)
 8007526:	4b88                	lw	a0,16(a5)
 8007528:	47e2                	lw	a5,24(sp)
 800752a:	00f50663          	beq	a0,a5,8007536 <_ZN6miosix19FileDescriptorTableC1Ev+0x15a>
 800752e:	00000097          	auipc	ra,0x0
 8007532:	4c8080e7          	jalr	1224(ra) # 80079f6 <_ZdlPv>
 8007536:	4512                	lw	a0,4(sp)
 8007538:	d002                	sw	zero,32(sp)
 800753a:	00000097          	auipc	ra,0x0
 800753e:	8cc080e7          	jalr	-1844(ra) # 8006e06 <pthread_mutex_destroy>
 8007542:	4542                	lw	a0,16(sp)
 8007544:	57fd                	li	a5,-1
 8007546:	d03e                	sw	a5,32(sp)
 8007548:	ffffd097          	auipc	ra,0xffffd
 800754c:	f04080e7          	jalr	-252(ra) # 800444c <_Unwind_SjLj_Resume>
 8007550:	17fd                	addi	a5,a5,-1
 8007552:	ef95                	bnez	a5,800758e <_ZN6miosix19FileDescriptorTableC1Ev+0x1b2>
 8007554:	4576                	lw	a0,92(sp)
 8007556:	d179                	beqz	a0,800751c <_ZN6miosix19FileDescriptorTableC1Ev+0x140>
 8007558:	4154                	lw	a3,4(a0)
 800755a:	415c                	lw	a5,4(a0)
 800755c:	4705                	li	a4,1
 800755e:	17fd                	addi	a5,a5,-1
 8007560:	c15c                	sw	a5,4(a0)
 8007562:	fae69de3          	bne	a3,a4,800751c <_ZN6miosix19FileDescriptorTableC1Ev+0x140>
 8007566:	411c                	lw	a5,0(a0)
 8007568:	43dc                	lw	a5,4(a5)
 800756a:	9782                	jalr	a5
 800756c:	bf45                	j	800751c <_ZN6miosix19FileDescriptorTableC1Ev+0x140>
 800756e:	ffc7a503          	lw	a0,-4(a5)
 8007572:	17f1                	addi	a5,a5,-4
 8007574:	c03e                	sw	a5,0(sp)
 8007576:	d15d                	beqz	a0,800751c <_ZN6miosix19FileDescriptorTableC1Ev+0x140>
 8007578:	4158                	lw	a4,4(a0)
 800757a:	415c                	lw	a5,4(a0)
 800757c:	17fd                	addi	a5,a5,-1
 800757e:	c15c                	sw	a5,4(a0)
 8007580:	4785                	li	a5,1
 8007582:	f8f71de3          	bne	a4,a5,800751c <_ZN6miosix19FileDescriptorTableC1Ev+0x140>
 8007586:	411c                	lw	a5,0(a0)
 8007588:	53dc                	lw	a5,36(a5)
 800758a:	9782                	jalr	a5
 800758c:	bf41                	j	800751c <_ZN6miosix19FileDescriptorTableC1Ev+0x140>
 800758e:	17fd                	addi	a5,a5,-1
 8007590:	eb89                	bnez	a5,80075a2 <_ZN6miosix19FileDescriptorTableC1Ev+0x1c6>
 8007592:	4532                	lw	a0,12(sp)
 8007594:	02800593          	li	a1,40
 8007598:	00000097          	auipc	ra,0x0
 800759c:	466080e7          	jalr	1126(ra) # 80079fe <_ZdlPvj>
 80075a0:	bf55                	j	8007554 <_ZN6miosix19FileDescriptorTableC1Ev+0x178>
 80075a2:	9002                	ebreak

080075a4 <_ZN6miosix22getFileDescriptorTableEv>:
 80075a4:	080087b7          	lui	a5,0x8008
 80075a8:	715d                	addi	sp,sp,-80
 80075aa:	ec878793          	addi	a5,a5,-312 # 8007ec8 <__gxx_personality_sj0>
 80075ae:	d23e                	sw	a5,36(sp)
 80075b0:	0800a7b7          	lui	a5,0x800a
 80075b4:	96078793          	addi	a5,a5,-1696 # 8009960 <_GLOBAL__sub_I__ZSt7nothrow+0x162>
 80075b8:	d43e                	sw	a5,40(sp)
 80075ba:	009c                	addi	a5,sp,64
 80075bc:	d63e                	sw	a5,44(sp)
 80075be:	080077b7          	lui	a5,0x8007
 80075c2:	68878793          	addi	a5,a5,1672 # 8007688 <_ZN6miosix22getFileDescriptorTableEv+0xe4>
 80075c6:	0068                	addi	a0,sp,12
 80075c8:	d83e                	sw	a5,48(sp)
 80075ca:	c686                	sw	ra,76(sp)
 80075cc:	c4a2                	sw	s0,72(sp)
 80075ce:	da0a                	sw	sp,52(sp)
 80075d0:	ffffd097          	auipc	ra,0xffffd
 80075d4:	d28080e7          	jalr	-728(ra) # 80042f8 <_Unwind_SjLj_Register>
 80075d8:	200017b7          	lui	a5,0x20001
 80075dc:	9f87c783          	lbu	a5,-1544(a5) # 200009f8 <_ZGVZN6miosix22getFileDescriptorTableEvE9fileTable>
 80075e0:	0ff0000f          	fence
 80075e4:	0ff7f793          	andi	a5,a5,255
 80075e8:	c385                	beqz	a5,8007608 <_ZN6miosix22getFileDescriptorTableEv+0x64>
 80075ea:	200017b7          	lui	a5,0x20001
 80075ee:	0068                	addi	a0,sp,12
 80075f0:	8e478793          	addi	a5,a5,-1820 # 200008e4 <_ZZN6miosix22getFileDescriptorTableEvE9fileTable>
 80075f4:	c43e                	sw	a5,8(sp)
 80075f6:	ffffd097          	auipc	ra,0xffffd
 80075fa:	d24080e7          	jalr	-732(ra) # 800431a <_Unwind_SjLj_Unregister>
 80075fe:	40b6                	lw	ra,76(sp)
 8007600:	4426                	lw	s0,72(sp)
 8007602:	4522                	lw	a0,8(sp)
 8007604:	6161                	addi	sp,sp,80
 8007606:	8082                	ret
 8007608:	200017b7          	lui	a5,0x20001
 800760c:	9f878513          	addi	a0,a5,-1544 # 200009f8 <_ZGVZN6miosix22getFileDescriptorTableEvE9fileTable>
 8007610:	ffffe097          	auipc	ra,0xffffe
 8007614:	6f2080e7          	jalr	1778(ra) # 8005d02 <__cxa_guard_acquire>
 8007618:	200017b7          	lui	a5,0x20001
 800761c:	8e478793          	addi	a5,a5,-1820 # 200008e4 <_ZZN6miosix22getFileDescriptorTableEvE9fileTable>
 8007620:	ed01                	bnez	a0,8007638 <_ZN6miosix22getFileDescriptorTableEv+0x94>
 8007622:	0068                	addi	a0,sp,12
 8007624:	c43e                	sw	a5,8(sp)
 8007626:	ffffd097          	auipc	ra,0xffffd
 800762a:	cf4080e7          	jalr	-780(ra) # 800431a <_Unwind_SjLj_Unregister>
 800762e:	40b6                	lw	ra,76(sp)
 8007630:	4426                	lw	s0,72(sp)
 8007632:	4522                	lw	a0,8(sp)
 8007634:	6161                	addi	sp,sp,80
 8007636:	8082                	ret
 8007638:	873e                	mv	a4,a5
 800763a:	853a                	mv	a0,a4
 800763c:	4785                	li	a5,1
 800763e:	c83e                	sw	a5,16(sp)
 8007640:	c43a                	sw	a4,8(sp)
 8007642:	00000097          	auipc	ra,0x0
 8007646:	d9a080e7          	jalr	-614(ra) # 80073dc <_ZN6miosix19FileDescriptorTableC1Ev>
 800764a:	200017b7          	lui	a5,0x20001
 800764e:	9f878513          	addi	a0,a5,-1544 # 200009f8 <_ZGVZN6miosix22getFileDescriptorTableEvE9fileTable>
 8007652:	fffff097          	auipc	ra,0xfffff
 8007656:	836080e7          	jalr	-1994(ra) # 8005e88 <__cxa_guard_release>
 800765a:	45a2                	lw	a1,8(sp)
 800765c:	20001637          	lui	a2,0x20001
 8007660:	08007537          	lui	a0,0x8007
 8007664:	85860613          	addi	a2,a2,-1960 # 20000858 <__dso_handle>
 8007668:	1d650513          	addi	a0,a0,470 # 80071d6 <_ZN6miosix19FileDescriptorTableD1Ev>
 800766c:	ffff9097          	auipc	ra,0xffff9
 8007670:	b6e080e7          	jalr	-1170(ra) # 80001da <__cxa_atexit>
 8007674:	0068                	addi	a0,sp,12
 8007676:	ffffd097          	auipc	ra,0xffffd
 800767a:	ca4080e7          	jalr	-860(ra) # 800431a <_Unwind_SjLj_Unregister>
 800767e:	40b6                	lw	ra,76(sp)
 8007680:	4426                	lw	s0,72(sp)
 8007682:	4522                	lw	a0,8(sp)
 8007684:	6161                	addi	sp,sp,80
 8007686:	8082                	ret
 8007688:	47d2                	lw	a5,20(sp)
 800768a:	20001737          	lui	a4,0x20001
 800768e:	9f870513          	addi	a0,a4,-1544 # 200009f8 <_ZGVZN6miosix22getFileDescriptorTableEvE9fileTable>
 8007692:	c43e                	sw	a5,8(sp)
 8007694:	fffff097          	auipc	ra,0xfffff
 8007698:	842080e7          	jalr	-1982(ra) # 8005ed6 <__cxa_guard_abort>
 800769c:	4522                	lw	a0,8(sp)
 800769e:	57fd                	li	a5,-1
 80076a0:	c83e                	sw	a5,16(sp)
 80076a2:	ffffd097          	auipc	ra,0xffffd
 80076a6:	daa080e7          	jalr	-598(ra) # 800444c <_Unwind_SjLj_Resume>

080076aa <_ZNK6miosix8FileBase6isattyEv>:
 80076aa:	4501                	li	a0,0
 80076ac:	8082                	ret

080076ae <_ZN6miosix8FileBase5fcntlEii>:
 80076ae:	4789                	li	a5,2
 80076b0:	00f59763          	bne	a1,a5,80076be <_ZN6miosix8FileBase5fcntlEii+0x10>
 80076b4:	4785                	li	a5,1
 80076b6:	00c7e463          	bltu	a5,a2,80076be <_ZN6miosix8FileBase5fcntlEii+0x10>
 80076ba:	4501                	li	a0,0
 80076bc:	8082                	ret
 80076be:	555d                	li	a0,-9
 80076c0:	8082                	ret

080076c2 <_ZN6miosix8FileBase5ioctlEiPv>:
 80076c2:	551d                	li	a0,-25
 80076c4:	8082                	ret

080076c6 <_ZN6miosix8FileBase8getdentsEPvi>:
 80076c6:	555d                	li	a0,-9
 80076c8:	8082                	ret

080076ca <_ZN6miosix14FilesystemBase13fileCloseHookEv.part.0>:
 80076ca:	0800a6b7          	lui	a3,0x800a
 80076ce:	0800a637          	lui	a2,0x800a
 80076d2:	0800a537          	lui	a0,0x800a
 80076d6:	1141                	addi	sp,sp,-16
 80076d8:	29468693          	addi	a3,a3,660 # 800a294 <_ZTVN6miosix6DeviceE+0x15c>
 80076dc:	2a060613          	addi	a2,a2,672 # 800a2a0 <_ZTVN6miosix6DeviceE+0x168>
 80076e0:	0b500593          	li	a1,181
 80076e4:	2d050513          	addi	a0,a0,720 # 800a2d0 <_ZTVN6miosix6DeviceE+0x198>
 80076e8:	c606                	sw	ra,12(sp)
 80076ea:	ffff9097          	auipc	ra,0xffff9
 80076ee:	a8a080e7          	jalr	-1398(ra) # 8000174 <__assert_func>

080076f2 <_ZN6miosix8FileBaseC1ENS_17intrusive_ref_ptrINS_14FilesystemBaseEEE>:
 80076f2:	419c                	lw	a5,0(a1)
 80076f4:	0800a737          	lui	a4,0x800a
 80076f8:	31870713          	addi	a4,a4,792 # 800a318 <_ZTVN6miosix8FileBaseE+0x8>
 80076fc:	00052223          	sw	zero,4(a0)
 8007700:	c118                	sw	a4,0(a0)
 8007702:	c51c                	sw	a5,8(a0)
 8007704:	c799                	beqz	a5,8007712 <_ZN6miosix8FileBaseC1ENS_17intrusive_ref_ptrINS_14FilesystemBaseEEE+0x20>
 8007706:	43d8                	lw	a4,4(a5)
 8007708:	0705                	addi	a4,a4,1
 800770a:	c3d8                	sw	a4,4(a5)
 800770c:	4b98                	lw	a4,16(a5)
 800770e:	0705                	addi	a4,a4,1
 8007710:	cb98                	sw	a4,16(a5)
 8007712:	8082                	ret

08007714 <_ZN6miosix8FileBaseD1Ev>:
 8007714:	080087b7          	lui	a5,0x8008
 8007718:	715d                	addi	sp,sp,-80
 800771a:	ec878793          	addi	a5,a5,-312 # 8007ec8 <__gxx_personality_sj0>
 800771e:	d23e                	sw	a5,36(sp)
 8007720:	0800a7b7          	lui	a5,0x800a
 8007724:	96678793          	addi	a5,a5,-1690 # 8009966 <_GLOBAL__sub_I__ZSt7nothrow+0x168>
 8007728:	c4a2                	sw	s0,72(sp)
 800772a:	842a                	mv	s0,a0
 800772c:	0068                	addi	a0,sp,12
 800772e:	d43e                	sw	a5,40(sp)
 8007730:	c686                	sw	ra,76(sp)
 8007732:	ffffd097          	auipc	ra,0xffffd
 8007736:	bc6080e7          	jalr	-1082(ra) # 80042f8 <_Unwind_SjLj_Register>
 800773a:	0800a7b7          	lui	a5,0x800a
 800773e:	4408                	lw	a0,8(s0)
 8007740:	31878793          	addi	a5,a5,792 # 800a318 <_ZTVN6miosix8FileBaseE+0x8>
 8007744:	c01c                	sw	a5,0(s0)
 8007746:	c10d                	beqz	a0,8007768 <_ZN6miosix8FileBaseD1Ev+0x54>
 8007748:	4918                	lw	a4,16(a0)
 800774a:	491c                	lw	a5,16(a0)
 800774c:	17fd                	addi	a5,a5,-1
 800774e:	c91c                	sw	a5,16(a0)
 8007750:	02074563          	bltz	a4,800777a <_ZN6miosix8FileBaseD1Ev+0x66>
 8007754:	4154                	lw	a3,4(a0)
 8007756:	415c                	lw	a5,4(a0)
 8007758:	4705                	li	a4,1
 800775a:	17fd                	addi	a5,a5,-1
 800775c:	c15c                	sw	a5,4(a0)
 800775e:	00e69563          	bne	a3,a4,8007768 <_ZN6miosix8FileBaseD1Ev+0x54>
 8007762:	411c                	lw	a5,0(a0)
 8007764:	43dc                	lw	a5,4(a5)
 8007766:	9782                	jalr	a5
 8007768:	0068                	addi	a0,sp,12
 800776a:	ffffd097          	auipc	ra,0xffffd
 800776e:	bb0080e7          	jalr	-1104(ra) # 800431a <_Unwind_SjLj_Unregister>
 8007772:	40b6                	lw	ra,76(sp)
 8007774:	4426                	lw	s0,72(sp)
 8007776:	6161                	addi	sp,sp,80
 8007778:	8082                	ret
 800777a:	c802                	sw	zero,16(sp)
 800777c:	00000097          	auipc	ra,0x0
 8007780:	f4e080e7          	jalr	-178(ra) # 80076ca <_ZN6miosix14FilesystemBase13fileCloseHookEv.part.0>

08007784 <_ZN6miosix10StringPart5clearEv>:
 8007784:	1141                	addi	sp,sp,-16
 8007786:	c422                	sw	s0,8(sp)
 8007788:	c606                	sw	ra,12(sp)
 800778a:	c226                	sw	s1,4(sp)
 800778c:	00e54783          	lbu	a5,14(a0)
 8007790:	4705                	li	a4,1
 8007792:	842a                	mv	s0,a0
 8007794:	06e78363          	beq	a5,a4,80077fa <_ZN6miosix10StringPart5clearEv+0x76>
 8007798:	e3a1                	bnez	a5,80077d8 <_ZN6miosix10StringPart5clearEv+0x54>
 800779a:	4104                	lw	s1,0(a0)
 800779c:	415c                	lw	a5,4(a0)
 800779e:	40d8                	lw	a4,4(s1)
 80077a0:	06e78e63          	beq	a5,a4,800781c <_ZN6miosix10StringPart5clearEv+0x98>
 80077a4:	4098                	lw	a4,0(s1)
 80077a6:	00c54683          	lbu	a3,12(a0)
 80077aa:	97ba                	add	a5,a5,a4
 80077ac:	00d78023          	sb	a3,0(a5)
 80077b0:	00d54783          	lbu	a5,13(a0)
 80077b4:	c395                	beqz	a5,80077d8 <_ZN6miosix10StringPart5clearEv+0x54>
 80077b6:	4104                	lw	s1,0(a0)
 80077b8:	c085                	beqz	s1,80077d8 <_ZN6miosix10StringPart5clearEv+0x54>
 80077ba:	4088                	lw	a0,0(s1)
 80077bc:	00848793          	addi	a5,s1,8
 80077c0:	00f50663          	beq	a0,a5,80077cc <_ZN6miosix10StringPart5clearEv+0x48>
 80077c4:	00000097          	auipc	ra,0x0
 80077c8:	232080e7          	jalr	562(ra) # 80079f6 <_ZdlPv>
 80077cc:	45e1                	li	a1,24
 80077ce:	8526                	mv	a0,s1
 80077d0:	00000097          	auipc	ra,0x0
 80077d4:	22e080e7          	jalr	558(ra) # 80079fe <_ZdlPvj>
 80077d8:	00c40793          	addi	a5,s0,12
 80077dc:	c01c                	sw	a5,0(s0)
 80077de:	4785                	li	a5,1
 80077e0:	00041623          	sh	zero,12(s0)
 80077e4:	00f40723          	sb	a5,14(s0)
 80077e8:	40b2                	lw	ra,12(sp)
 80077ea:	00042223          	sw	zero,4(s0)
 80077ee:	00042423          	sw	zero,8(s0)
 80077f2:	4422                	lw	s0,8(sp)
 80077f4:	4492                	lw	s1,4(sp)
 80077f6:	0141                	addi	sp,sp,16
 80077f8:	8082                	ret
 80077fa:	411c                	lw	a5,0(a0)
 80077fc:	4154                	lw	a3,4(a0)
 80077fe:	00c54703          	lbu	a4,12(a0)
 8007802:	97b6                	add	a5,a5,a3
 8007804:	00e78023          	sb	a4,0(a5)
 8007808:	00d54783          	lbu	a5,13(a0)
 800780c:	d7f1                	beqz	a5,80077d8 <_ZN6miosix10StringPart5clearEv+0x54>
 800780e:	4108                	lw	a0,0(a0)
 8007810:	d561                	beqz	a0,80077d8 <_ZN6miosix10StringPart5clearEv+0x54>
 8007812:	00000097          	auipc	ra,0x0
 8007816:	1f4080e7          	jalr	500(ra) # 8007a06 <_ZdaPv>
 800781a:	bf7d                	j	80077d8 <_ZN6miosix10StringPart5clearEv+0x54>
 800781c:	00d54783          	lbu	a5,13(a0)
 8007820:	ffc9                	bnez	a5,80077ba <_ZN6miosix10StringPart5clearEv+0x36>
 8007822:	bf5d                	j	80077d8 <_ZN6miosix10StringPart5clearEv+0x54>

08007824 <_ZNK10__cxxabiv117__class_type_info11__do_upcastEPKS0_PPv>:
 8007824:	411c                	lw	a5,0(a0)
 8007826:	1101                	addi	sp,sp,-32
 8007828:	cc22                	sw	s0,24(sp)
 800782a:	4f9c                	lw	a5,24(a5)
 800782c:	8432                	mv	s0,a2
 800782e:	4210                	lw	a2,0(a2)
 8007830:	4741                	li	a4,16
 8007832:	c43a                	sw	a4,8(sp)
 8007834:	ce06                	sw	ra,28(sp)
 8007836:	c002                	sw	zero,0(sp)
 8007838:	c202                	sw	zero,4(sp)
 800783a:	c602                	sw	zero,12(sp)
 800783c:	868a                	mv	a3,sp
 800783e:	9782                	jalr	a5
 8007840:	4792                	lw	a5,4(sp)
 8007842:	4719                	li	a4,6
 8007844:	4501                	li	a0,0
 8007846:	8b99                	andi	a5,a5,6
 8007848:	00e79563          	bne	a5,a4,8007852 <_ZNK10__cxxabiv117__class_type_info11__do_upcastEPKS0_PPv+0x2e>
 800784c:	4782                	lw	a5,0(sp)
 800784e:	4505                	li	a0,1
 8007850:	c01c                	sw	a5,0(s0)
 8007852:	40f2                	lw	ra,28(sp)
 8007854:	4462                	lw	s0,24(sp)
 8007856:	6105                	addi	sp,sp,32
 8007858:	8082                	ret

0800785a <_ZNK10__cxxabiv117__class_type_info20__do_find_public_srcEiPKvPKS0_S2_>:
 800785a:	4505                	li	a0,1
 800785c:	00c70363          	beq	a4,a2,8007862 <_ZNK10__cxxabiv117__class_type_info20__do_find_public_srcEiPKvPKS0_S2_+0x8>
 8007860:	8082                	ret
 8007862:	4519                	li	a0,6
 8007864:	8082                	ret

08007866 <_ZN10__cxxabiv117__class_type_infoD1Ev>:
 8007866:	0800a7b7          	lui	a5,0x800a
 800786a:	37878793          	addi	a5,a5,888 # 800a378 <_ZTVN10__cxxabiv117__class_type_infoE+0x8>
 800786e:	c11c                	sw	a5,0(a0)
 8007870:	00001317          	auipc	t1,0x1
 8007874:	29430067          	jr	660(t1) # 8008b04 <_ZNSt9type_infoD1Ev>

08007878 <_ZN10__cxxabiv117__class_type_infoD0Ev>:
 8007878:	1141                	addi	sp,sp,-16
 800787a:	0800a7b7          	lui	a5,0x800a
 800787e:	c422                	sw	s0,8(sp)
 8007880:	c606                	sw	ra,12(sp)
 8007882:	37878793          	addi	a5,a5,888 # 800a378 <_ZTVN10__cxxabiv117__class_type_infoE+0x8>
 8007886:	c11c                	sw	a5,0(a0)
 8007888:	842a                	mv	s0,a0
 800788a:	00001097          	auipc	ra,0x1
 800788e:	27a080e7          	jalr	634(ra) # 8008b04 <_ZNSt9type_infoD1Ev>
 8007892:	8522                	mv	a0,s0
 8007894:	4422                	lw	s0,8(sp)
 8007896:	40b2                	lw	ra,12(sp)
 8007898:	45a1                	li	a1,8
 800789a:	0141                	addi	sp,sp,16
 800789c:	00000317          	auipc	t1,0x0
 80078a0:	16230067          	jr	354(t1) # 80079fe <_ZdlPvj>

080078a4 <_ZNK10__cxxabiv117__class_type_info12__do_dyncastEiNS0_10__sub_kindEPKS0_PKvS3_S5_RNS0_16__dyncast_resultE>:
 80078a4:	7179                	addi	sp,sp,-48
 80078a6:	d422                	sw	s0,40(sp)
 80078a8:	d226                	sw	s1,36(sp)
 80078aa:	d04a                	sw	s2,32(sp)
 80078ac:	ce4e                	sw	s3,28(sp)
 80078ae:	d606                	sw	ra,44(sp)
 80078b0:	00452983          	lw	s3,4(a0)
 80078b4:	84ba                	mv	s1,a4
 80078b6:	8932                	mv	s2,a2
 80078b8:	8446                	mv	s0,a7
 80078ba:	03070e63          	beq	a4,a6,80078f6 <_ZNK10__cxxabiv117__class_type_info12__do_dyncastEiNS0_10__sub_kindEPKS0_PKvS3_S5_RNS0_16__dyncast_resultE+0x52>
 80078be:	42cc                	lw	a1,4(a3)
 80078c0:	01358e63          	beq	a1,s3,80078dc <_ZNK10__cxxabiv117__class_type_info12__do_dyncastEiNS0_10__sub_kindEPKS0_PKvS3_S5_RNS0_16__dyncast_resultE+0x38>
 80078c4:	0009c703          	lbu	a4,0(s3)
 80078c8:	02a00793          	li	a5,42
 80078cc:	00f70d63          	beq	a4,a5,80078e6 <_ZNK10__cxxabiv117__class_type_info12__do_dyncastEiNS0_10__sub_kindEPKS0_PKvS3_S5_RNS0_16__dyncast_resultE+0x42>
 80078d0:	854e                	mv	a0,s3
 80078d2:	ffffa097          	auipc	ra,0xffffa
 80078d6:	c96080e7          	jalr	-874(ra) # 8001568 <strcmp>
 80078da:	e511                	bnez	a0,80078e6 <_ZNK10__cxxabiv117__class_type_info12__do_dyncastEiNS0_10__sub_kindEPKS0_PKvS3_S5_RNS0_16__dyncast_resultE+0x42>
 80078dc:	4785                	li	a5,1
 80078de:	c004                	sw	s1,0(s0)
 80078e0:	01242223          	sw	s2,4(s0)
 80078e4:	c45c                	sw	a5,12(s0)
 80078e6:	50b2                	lw	ra,44(sp)
 80078e8:	5422                	lw	s0,40(sp)
 80078ea:	5492                	lw	s1,36(sp)
 80078ec:	5902                	lw	s2,32(sp)
 80078ee:	49f2                	lw	s3,28(sp)
 80078f0:	4501                	li	a0,0
 80078f2:	6145                	addi	sp,sp,48
 80078f4:	8082                	ret
 80078f6:	43cc                	lw	a1,4(a5)
 80078f8:	03358863          	beq	a1,s3,8007928 <_ZNK10__cxxabiv117__class_type_info12__do_dyncastEiNS0_10__sub_kindEPKS0_PKvS3_S5_RNS0_16__dyncast_resultE+0x84>
 80078fc:	0009c703          	lbu	a4,0(s3)
 8007900:	02a00793          	li	a5,42
 8007904:	00f70e63          	beq	a4,a5,8007920 <_ZNK10__cxxabiv117__class_type_info12__do_dyncastEiNS0_10__sub_kindEPKS0_PKvS3_S5_RNS0_16__dyncast_resultE+0x7c>
 8007908:	854e                	mv	a0,s3
 800790a:	c636                	sw	a3,12(sp)
 800790c:	ffffa097          	auipc	ra,0xffffa
 8007910:	c5c080e7          	jalr	-932(ra) # 8001568 <strcmp>
 8007914:	c911                	beqz	a0,8007928 <_ZNK10__cxxabiv117__class_type_info12__do_dyncastEiNS0_10__sub_kindEPKS0_PKvS3_S5_RNS0_16__dyncast_resultE+0x84>
 8007916:	46b2                	lw	a3,12(sp)
 8007918:	42cc                	lw	a1,4(a3)
 800791a:	fab99be3          	bne	s3,a1,80078d0 <_ZNK10__cxxabiv117__class_type_info12__do_dyncastEiNS0_10__sub_kindEPKS0_PKvS3_S5_RNS0_16__dyncast_resultE+0x2c>
 800791e:	bf7d                	j	80078dc <_ZNK10__cxxabiv117__class_type_info12__do_dyncastEiNS0_10__sub_kindEPKS0_PKvS3_S5_RNS0_16__dyncast_resultE+0x38>
 8007920:	42dc                	lw	a5,4(a3)
 8007922:	fd3792e3          	bne	a5,s3,80078e6 <_ZNK10__cxxabiv117__class_type_info12__do_dyncastEiNS0_10__sub_kindEPKS0_PKvS3_S5_RNS0_16__dyncast_resultE+0x42>
 8007926:	bf5d                	j	80078dc <_ZNK10__cxxabiv117__class_type_info12__do_dyncastEiNS0_10__sub_kindEPKS0_PKvS3_S5_RNS0_16__dyncast_resultE+0x38>
 8007928:	01242423          	sw	s2,8(s0)
 800792c:	50b2                	lw	ra,44(sp)
 800792e:	5422                	lw	s0,40(sp)
 8007930:	5492                	lw	s1,36(sp)
 8007932:	5902                	lw	s2,32(sp)
 8007934:	49f2                	lw	s3,28(sp)
 8007936:	4501                	li	a0,0
 8007938:	6145                	addi	sp,sp,48
 800793a:	8082                	ret

0800793c <_ZNK10__cxxabiv117__class_type_info11__do_upcastEPKS0_PKvRNS0_15__upcast_resultE>:
 800793c:	4148                	lw	a0,4(a0)
 800793e:	41cc                	lw	a1,4(a1)
 8007940:	1141                	addi	sp,sp,-16
 8007942:	c422                	sw	s0,8(sp)
 8007944:	c226                	sw	s1,4(sp)
 8007946:	c606                	sw	ra,12(sp)
 8007948:	c04a                	sw	s2,0(sp)
 800794a:	84b2                	mv	s1,a2
 800794c:	8436                	mv	s0,a3
 800794e:	00b50e63          	beq	a0,a1,800796a <_ZNK10__cxxabiv117__class_type_info11__do_upcastEPKS0_PKvRNS0_15__upcast_resultE+0x2e>
 8007952:	00054703          	lbu	a4,0(a0)
 8007956:	02a00793          	li	a5,42
 800795a:	4901                	li	s2,0
 800795c:	00f70d63          	beq	a4,a5,8007976 <_ZNK10__cxxabiv117__class_type_info11__do_upcastEPKS0_PKvRNS0_15__upcast_resultE+0x3a>
 8007960:	ffffa097          	auipc	ra,0xffffa
 8007964:	c08080e7          	jalr	-1016(ra) # 8001568 <strcmp>
 8007968:	e519                	bnez	a0,8007976 <_ZNK10__cxxabiv117__class_type_info11__do_upcastEPKS0_PKvRNS0_15__upcast_resultE+0x3a>
 800796a:	47a1                	li	a5,8
 800796c:	c45c                	sw	a5,12(s0)
 800796e:	4799                	li	a5,6
 8007970:	c004                	sw	s1,0(s0)
 8007972:	c05c                	sw	a5,4(s0)
 8007974:	4905                	li	s2,1
 8007976:	40b2                	lw	ra,12(sp)
 8007978:	4422                	lw	s0,8(sp)
 800797a:	4492                	lw	s1,4(sp)
 800797c:	854a                	mv	a0,s2
 800797e:	4902                	lw	s2,0(sp)
 8007980:	0141                	addi	sp,sp,16
 8007982:	8082                	ret

08007984 <_ZNK10__cxxabiv117__class_type_info10__do_catchEPKSt9type_infoPPvj>:
 8007984:	1101                	addi	sp,sp,-32
 8007986:	cc22                	sw	s0,24(sp)
 8007988:	ca26                	sw	s1,20(sp)
 800798a:	842e                	mv	s0,a1
 800798c:	84aa                	mv	s1,a0
 800798e:	41cc                	lw	a1,4(a1)
 8007990:	4148                	lw	a0,4(a0)
 8007992:	ce06                	sw	ra,28(sp)
 8007994:	c84a                	sw	s2,16(sp)
 8007996:	c64e                	sw	s3,12(sp)
 8007998:	02b50f63          	beq	a0,a1,80079d6 <_ZNK10__cxxabiv117__class_type_info10__do_catchEPKSt9type_infoPPvj+0x52>
 800799c:	00054703          	lbu	a4,0(a0)
 80079a0:	02a00793          	li	a5,42
 80079a4:	89b2                	mv	s3,a2
 80079a6:	8936                	mv	s2,a3
 80079a8:	00f70763          	beq	a4,a5,80079b6 <_ZNK10__cxxabiv117__class_type_info10__do_catchEPKSt9type_infoPPvj+0x32>
 80079ac:	ffffa097          	auipc	ra,0xffffa
 80079b0:	bbc080e7          	jalr	-1092(ra) # 8001568 <strcmp>
 80079b4:	c10d                	beqz	a0,80079d6 <_ZNK10__cxxabiv117__class_type_info10__do_catchEPKSt9type_infoPPvj+0x52>
 80079b6:	478d                	li	a5,3
 80079b8:	0327e763          	bltu	a5,s2,80079e6 <_ZNK10__cxxabiv117__class_type_info10__do_catchEPKSt9type_infoPPvj+0x62>
 80079bc:	401c                	lw	a5,0(s0)
 80079be:	8522                	mv	a0,s0
 80079c0:	4462                	lw	s0,24(sp)
 80079c2:	40f2                	lw	ra,28(sp)
 80079c4:	4942                	lw	s2,16(sp)
 80079c6:	0147a303          	lw	t1,20(a5)
 80079ca:	864e                	mv	a2,s3
 80079cc:	85a6                	mv	a1,s1
 80079ce:	49b2                	lw	s3,12(sp)
 80079d0:	44d2                	lw	s1,20(sp)
 80079d2:	6105                	addi	sp,sp,32
 80079d4:	8302                	jr	t1
 80079d6:	40f2                	lw	ra,28(sp)
 80079d8:	4462                	lw	s0,24(sp)
 80079da:	44d2                	lw	s1,20(sp)
 80079dc:	4942                	lw	s2,16(sp)
 80079de:	49b2                	lw	s3,12(sp)
 80079e0:	4505                	li	a0,1
 80079e2:	6105                	addi	sp,sp,32
 80079e4:	8082                	ret
 80079e6:	40f2                	lw	ra,28(sp)
 80079e8:	4462                	lw	s0,24(sp)
 80079ea:	44d2                	lw	s1,20(sp)
 80079ec:	4942                	lw	s2,16(sp)
 80079ee:	49b2                	lw	s3,12(sp)
 80079f0:	4501                	li	a0,0
 80079f2:	6105                	addi	sp,sp,32
 80079f4:	8082                	ret

080079f6 <_ZdlPv>:
 80079f6:	ffff9317          	auipc	t1,0xffff9
 80079fa:	fb030067          	jr	-80(t1) # 80009a6 <free>

080079fe <_ZdlPvj>:
 80079fe:	00000317          	auipc	t1,0x0
 8007a02:	ff830067          	jr	-8(t1) # 80079f6 <_ZdlPv>

08007a06 <_ZdaPv>:
 8007a06:	00000317          	auipc	t1,0x0
 8007a0a:	ff030067          	jr	-16(t1) # 80079f6 <_ZdlPv>

08007a0e <__cxa_begin_catch>:
 8007a0e:	1141                	addi	sp,sp,-16
 8007a10:	c422                	sw	s0,8(sp)
 8007a12:	c606                	sw	ra,12(sp)
 8007a14:	842a                	mv	s0,a0
 8007a16:	ffffe097          	auipc	ra,0xffffe
 8007a1a:	286080e7          	jalr	646(ra) # 8005c9c <__cxa_get_globals>
 8007a1e:	20001737          	lui	a4,0x20001
 8007a22:	401c                	lw	a5,0(s0)
 8007a24:	ba872683          	lw	a3,-1112(a4) # 20000ba8 <_bss_end>
 8007a28:	4050                	lw	a2,4(s0)
 8007a2a:	bac72703          	lw	a4,-1108(a4)
 8007a2e:	96be                	add	a3,a3,a5
 8007a30:	00f6b7b3          	sltu	a5,a3,a5
 8007a34:	963a                	add	a2,a2,a4
 8007a36:	97b2                	add	a5,a5,a2
 8007a38:	872a                	mv	a4,a0
 8007a3a:	fd040613          	addi	a2,s0,-48
 8007a3e:	4108                	lw	a0,0(a0)
 8007a40:	c799                	beqz	a5,8007a4e <__cxa_begin_catch+0x40>
 8007a42:	e129                	bnez	a0,8007a84 <__cxa_begin_catch+0x76>
 8007a44:	40b2                	lw	ra,12(sp)
 8007a46:	4422                	lw	s0,8(sp)
 8007a48:	c310                	sw	a2,0(a4)
 8007a4a:	0141                	addi	sp,sp,16
 8007a4c:	8082                	ret
 8007a4e:	4585                	li	a1,1
 8007a50:	fed5e9e3          	bltu	a1,a3,8007a42 <__cxa_begin_catch+0x34>
 8007a54:	fe442783          	lw	a5,-28(s0)
 8007a58:	00178693          	addi	a3,a5,1
 8007a5c:	0007d463          	bgez	a5,8007a64 <__cxa_begin_catch+0x56>
 8007a60:	40f586b3          	sub	a3,a1,a5
 8007a64:	435c                	lw	a5,4(a4)
 8007a66:	fed42223          	sw	a3,-28(s0)
 8007a6a:	17fd                	addi	a5,a5,-1
 8007a6c:	c35c                	sw	a5,4(a4)
 8007a6e:	00c50563          	beq	a0,a2,8007a78 <__cxa_begin_catch+0x6a>
 8007a72:	fea42023          	sw	a0,-32(s0)
 8007a76:	c310                	sw	a2,0(a4)
 8007a78:	ff842503          	lw	a0,-8(s0)
 8007a7c:	40b2                	lw	ra,12(sp)
 8007a7e:	4422                	lw	s0,8(sp)
 8007a80:	0141                	addi	sp,sp,16
 8007a82:	8082                	ret
 8007a84:	00001097          	auipc	ra,0x1
 8007a88:	bdc080e7          	jalr	-1060(ra) # 8008660 <_ZSt9terminatev>

08007a8c <__cxa_end_catch>:
 8007a8c:	1141                	addi	sp,sp,-16
 8007a8e:	c606                	sw	ra,12(sp)
 8007a90:	ffffe097          	auipc	ra,0xffffe
 8007a94:	1f6080e7          	jalr	502(ra) # 8005c86 <__cxa_get_globals_fast>
 8007a98:	4118                	lw	a4,0(a0)
 8007a9a:	cf05                	beqz	a4,8007ad2 <__cxa_end_catch+0x46>
 8007a9c:	86aa                	mv	a3,a0
 8007a9e:	20001537          	lui	a0,0x20001
 8007aa2:	5b1c                	lw	a5,48(a4)
 8007aa4:	ba852603          	lw	a2,-1112(a0) # 20000ba8 <_bss_end>
 8007aa8:	5b4c                	lw	a1,52(a4)
 8007aaa:	bac52503          	lw	a0,-1108(a0)
 8007aae:	963e                	add	a2,a2,a5
 8007ab0:	00f637b3          	sltu	a5,a2,a5
 8007ab4:	95aa                	add	a1,a1,a0
 8007ab6:	97ae                	add	a5,a5,a1
 8007ab8:	e795                	bnez	a5,8007ae4 <__cxa_end_catch+0x58>
 8007aba:	4785                	li	a5,1
 8007abc:	02c7e463          	bltu	a5,a2,8007ae4 <__cxa_end_catch+0x58>
 8007ac0:	4b5c                	lw	a5,20(a4)
 8007ac2:	0007cb63          	bltz	a5,8007ad8 <__cxa_end_catch+0x4c>
 8007ac6:	17fd                	addi	a5,a5,-1
 8007ac8:	cb85                	beqz	a5,8007af8 <__cxa_end_catch+0x6c>
 8007aca:	56fd                	li	a3,-1
 8007acc:	04d78063          	beq	a5,a3,8007b0c <__cxa_end_catch+0x80>
 8007ad0:	cb5c                	sw	a5,20(a4)
 8007ad2:	40b2                	lw	ra,12(sp)
 8007ad4:	0141                	addi	sp,sp,16
 8007ad6:	8082                	ret
 8007ad8:	0785                	addi	a5,a5,1
 8007ada:	fbfd                	bnez	a5,8007ad0 <__cxa_end_catch+0x44>
 8007adc:	4b10                	lw	a2,16(a4)
 8007ade:	c290                	sw	a2,0(a3)
 8007ae0:	cb5c                	sw	a5,20(a4)
 8007ae2:	bfc5                	j	8007ad2 <__cxa_end_catch+0x46>
 8007ae4:	40b2                	lw	ra,12(sp)
 8007ae6:	0006a023          	sw	zero,0(a3)
 8007aea:	03070513          	addi	a0,a4,48
 8007aee:	0141                	addi	sp,sp,16
 8007af0:	ffffd317          	auipc	t1,0xffffd
 8007af4:	9f430067          	jr	-1548(t1) # 80044e4 <_Unwind_DeleteException>
 8007af8:	4b1c                	lw	a5,16(a4)
 8007afa:	40b2                	lw	ra,12(sp)
 8007afc:	03070513          	addi	a0,a4,48
 8007b00:	c29c                	sw	a5,0(a3)
 8007b02:	0141                	addi	sp,sp,16
 8007b04:	ffffd317          	auipc	t1,0xffffd
 8007b08:	9e030067          	jr	-1568(t1) # 80044e4 <_Unwind_DeleteException>
 8007b0c:	00001097          	auipc	ra,0x1
 8007b10:	b54080e7          	jalr	-1196(ra) # 8008660 <_ZSt9terminatev>

08007b14 <_ZNSt9exceptionD1Ev>:
 8007b14:	8082                	ret

08007b16 <_ZNSt13bad_exceptionD1Ev>:
 8007b16:	8082                	ret

08007b18 <_ZGTtNKSt13bad_exception4whatEv>:
 8007b18:	0800a537          	lui	a0,0x800a
 8007b1c:	39c50513          	addi	a0,a0,924 # 800a39c <_ZTVN10__cxxabiv117__class_type_infoE+0x2c>
 8007b20:	8082                	ret

08007b22 <_ZNSt13bad_exceptionD0Ev>:
 8007b22:	4591                	li	a1,4
 8007b24:	00000317          	auipc	t1,0x0
 8007b28:	eda30067          	jr	-294(t1) # 80079fe <_ZdlPvj>

08007b2c <_ZL16get_adjusted_ptrPKSt9type_infoS1_PPv>:
 8007b2c:	419c                	lw	a5,0(a1)
 8007b2e:	4218                	lw	a4,0(a2)
 8007b30:	1101                	addi	sp,sp,-32
 8007b32:	479c                	lw	a5,8(a5)
 8007b34:	cc22                	sw	s0,24(sp)
 8007b36:	ca26                	sw	s1,20(sp)
 8007b38:	c84a                	sw	s2,16(sp)
 8007b3a:	ce06                	sw	ra,28(sp)
 8007b3c:	84aa                	mv	s1,a0
 8007b3e:	c63a                	sw	a4,12(sp)
 8007b40:	852e                	mv	a0,a1
 8007b42:	842e                	mv	s0,a1
 8007b44:	8932                	mv	s2,a2
 8007b46:	9782                	jalr	a5
 8007b48:	c501                	beqz	a0,8007b50 <_ZL16get_adjusted_ptrPKSt9type_infoS1_PPv+0x24>
 8007b4a:	47b2                	lw	a5,12(sp)
 8007b4c:	439c                	lw	a5,0(a5)
 8007b4e:	c63e                	sw	a5,12(sp)
 8007b50:	409c                	lw	a5,0(s1)
 8007b52:	4685                	li	a3,1
 8007b54:	0070                	addi	a2,sp,12
 8007b56:	4b9c                	lw	a5,16(a5)
 8007b58:	85a2                	mv	a1,s0
 8007b5a:	8526                	mv	a0,s1
 8007b5c:	9782                	jalr	a5
 8007b5e:	c501                	beqz	a0,8007b66 <_ZL16get_adjusted_ptrPKSt9type_infoS1_PPv+0x3a>
 8007b60:	47b2                	lw	a5,12(sp)
 8007b62:	00f92023          	sw	a5,0(s2)
 8007b66:	40f2                	lw	ra,28(sp)
 8007b68:	4462                	lw	s0,24(sp)
 8007b6a:	44d2                	lw	s1,20(sp)
 8007b6c:	4942                	lw	s2,16(sp)
 8007b6e:	6105                	addi	sp,sp,32
 8007b70:	8082                	ret

08007b72 <_ZL28read_encoded_value_with_basehjPKhPj>:
 8007b72:	05000793          	li	a5,80
 8007b76:	06f50063          	beq	a0,a5,8007bd6 <_ZL28read_encoded_value_with_basehjPKhPj+0x64>
 8007b7a:	872a                	mv	a4,a0
 8007b7c:	00f57793          	andi	a5,a0,15
 8007b80:	4531                	li	a0,12
 8007b82:	12f56063          	bltu	a0,a5,8007ca2 <_ZL28read_encoded_value_with_basehjPKhPj+0x130>
 8007b86:	0800a537          	lui	a0,0x800a
 8007b8a:	078a                	slli	a5,a5,0x2
 8007b8c:	43850513          	addi	a0,a0,1080 # 800a438 <_ZTVSt13bad_exception+0x14>
 8007b90:	97aa                	add	a5,a5,a0
 8007b92:	439c                	lw	a5,0(a5)
 8007b94:	8782                	jr	a5
 8007b96:	00164803          	lbu	a6,1(a2)
 8007b9a:	00064883          	lbu	a7,0(a2)
 8007b9e:	00264503          	lbu	a0,2(a2)
 8007ba2:	00364783          	lbu	a5,3(a2)
 8007ba6:	0822                	slli	a6,a6,0x8
 8007ba8:	01186833          	or	a6,a6,a7
 8007bac:	0542                	slli	a0,a0,0x10
 8007bae:	01056533          	or	a0,a0,a6
 8007bb2:	07e2                	slli	a5,a5,0x18
 8007bb4:	8fc9                	or	a5,a5,a0
 8007bb6:	00460513          	addi	a0,a2,4
 8007bba:	cf81                	beqz	a5,8007bd2 <_ZL28read_encoded_value_with_basehjPKhPj+0x60>
 8007bbc:	07077813          	andi	a6,a4,112
 8007bc0:	48c1                	li	a7,16
 8007bc2:	01181363          	bne	a6,a7,8007bc8 <_ZL28read_encoded_value_with_basehjPKhPj+0x56>
 8007bc6:	85b2                	mv	a1,a2
 8007bc8:	0762                	slli	a4,a4,0x18
 8007bca:	8761                	srai	a4,a4,0x18
 8007bcc:	97ae                	add	a5,a5,a1
 8007bce:	00074b63          	bltz	a4,8007be4 <_ZL28read_encoded_value_with_basehjPKhPj+0x72>
 8007bd2:	c29c                	sw	a5,0(a3)
 8007bd4:	8082                	ret
 8007bd6:	00360513          	addi	a0,a2,3
 8007bda:	9971                	andi	a0,a0,-4
 8007bdc:	411c                	lw	a5,0(a0)
 8007bde:	0511                	addi	a0,a0,4
 8007be0:	c29c                	sw	a5,0(a3)
 8007be2:	8082                	ret
 8007be4:	439c                	lw	a5,0(a5)
 8007be6:	c29c                	sw	a5,0(a3)
 8007be8:	8082                	ret
 8007bea:	00164803          	lbu	a6,1(a2)
 8007bee:	00064883          	lbu	a7,0(a2)
 8007bf2:	00264503          	lbu	a0,2(a2)
 8007bf6:	00364783          	lbu	a5,3(a2)
 8007bfa:	0822                	slli	a6,a6,0x8
 8007bfc:	01186833          	or	a6,a6,a7
 8007c00:	0542                	slli	a0,a0,0x10
 8007c02:	01056533          	or	a0,a0,a6
 8007c06:	07e2                	slli	a5,a5,0x18
 8007c08:	8fc9                	or	a5,a5,a0
 8007c0a:	00860513          	addi	a0,a2,8
 8007c0e:	b775                	j	8007bba <_ZL28read_encoded_value_with_basehjPKhPj+0x48>
 8007c10:	00164783          	lbu	a5,1(a2)
 8007c14:	00064803          	lbu	a6,0(a2)
 8007c18:	00260513          	addi	a0,a2,2
 8007c1c:	07a2                	slli	a5,a5,0x8
 8007c1e:	0107e7b3          	or	a5,a5,a6
 8007c22:	bf61                	j	8007bba <_ZL28read_encoded_value_with_basehjPKhPj+0x48>
 8007c24:	00164783          	lbu	a5,1(a2)
 8007c28:	00064803          	lbu	a6,0(a2)
 8007c2c:	00260513          	addi	a0,a2,2
 8007c30:	07a2                	slli	a5,a5,0x8
 8007c32:	0107e7b3          	or	a5,a5,a6
 8007c36:	07c2                	slli	a5,a5,0x10
 8007c38:	87c1                	srai	a5,a5,0x10
 8007c3a:	b741                	j	8007bba <_ZL28read_encoded_value_with_basehjPKhPj+0x48>
 8007c3c:	8532                	mv	a0,a2
 8007c3e:	4781                	li	a5,0
 8007c40:	4301                	li	t1,0
 8007c42:	00054803          	lbu	a6,0(a0)
 8007c46:	0505                	addi	a0,a0,1
 8007c48:	07f87893          	andi	a7,a6,127
 8007c4c:	0862                	slli	a6,a6,0x18
 8007c4e:	006898b3          	sll	a7,a7,t1
 8007c52:	41885813          	srai	a6,a6,0x18
 8007c56:	0117e7b3          	or	a5,a5,a7
 8007c5a:	031d                	addi	t1,t1,7
 8007c5c:	fe0843e3          	bltz	a6,8007c42 <_ZL28read_encoded_value_with_basehjPKhPj+0xd0>
 8007c60:	bfa9                	j	8007bba <_ZL28read_encoded_value_with_basehjPKhPj+0x48>
 8007c62:	8532                	mv	a0,a2
 8007c64:	4781                	li	a5,0
 8007c66:	4881                	li	a7,0
 8007c68:	00054303          	lbu	t1,0(a0)
 8007c6c:	0505                	addi	a0,a0,1
 8007c6e:	07f37813          	andi	a6,t1,127
 8007c72:	01831e13          	slli	t3,t1,0x18
 8007c76:	01181833          	sll	a6,a6,a7
 8007c7a:	418e5e13          	srai	t3,t3,0x18
 8007c7e:	0107e7b3          	or	a5,a5,a6
 8007c82:	089d                	addi	a7,a7,7
 8007c84:	fe0e42e3          	bltz	t3,8007c68 <_ZL28read_encoded_value_with_basehjPKhPj+0xf6>
 8007c88:	487d                	li	a6,31
 8007c8a:	f31868e3          	bltu	a6,a7,8007bba <_ZL28read_encoded_value_with_basehjPKhPj+0x48>
 8007c8e:	04037313          	andi	t1,t1,64
 8007c92:	f20304e3          	beqz	t1,8007bba <_ZL28read_encoded_value_with_basehjPKhPj+0x48>
 8007c96:	587d                	li	a6,-1
 8007c98:	011818b3          	sll	a7,a6,a7
 8007c9c:	0117e7b3          	or	a5,a5,a7
 8007ca0:	bf31                	j	8007bbc <_ZL28read_encoded_value_with_basehjPKhPj+0x4a>
 8007ca2:	1141                	addi	sp,sp,-16
 8007ca4:	c606                	sw	ra,12(sp)
 8007ca6:	ffff8097          	auipc	ra,0xffff8
 8007caa:	4b6080e7          	jalr	1206(ra) # 800015c <abort>

08007cae <_ZL15get_ttype_entryP16lsda_header_infom>:
 8007cae:	1101                	addi	sp,sp,-32
 8007cb0:	ce06                	sw	ra,28(sp)
 8007cb2:	872a                	mv	a4,a0
 8007cb4:	01454503          	lbu	a0,20(a0)
 8007cb8:	0ff00793          	li	a5,255
 8007cbc:	04f50a63          	beq	a0,a5,8007d10 <_ZL15get_ttype_entryP16lsda_header_infom+0x62>
 8007cc0:	00757693          	andi	a3,a0,7
 8007cc4:	4789                	li	a5,2
 8007cc6:	04f68063          	beq	a3,a5,8007d06 <_ZL15get_ttype_entryP16lsda_header_infom+0x58>
 8007cca:	02d7f863          	bgeu	a5,a3,8007cfa <_ZL15get_ttype_entryP16lsda_header_infom+0x4c>
 8007cce:	478d                	li	a5,3
 8007cd0:	02f68663          	beq	a3,a5,8007cfc <_ZL15get_ttype_entryP16lsda_header_infom+0x4e>
 8007cd4:	00359793          	slli	a5,a1,0x3
 8007cd8:	4611                	li	a2,4
 8007cda:	40f007b3          	neg	a5,a5
 8007cde:	02c69b63          	bne	a3,a2,8007d14 <_ZL15get_ttype_entryP16lsda_header_infom+0x66>
 8007ce2:	4750                	lw	a2,12(a4)
 8007ce4:	470c                	lw	a1,8(a4)
 8007ce6:	0074                	addi	a3,sp,12
 8007ce8:	963e                	add	a2,a2,a5
 8007cea:	00000097          	auipc	ra,0x0
 8007cee:	e88080e7          	jalr	-376(ra) # 8007b72 <_ZL28read_encoded_value_with_basehjPKhPj>
 8007cf2:	40f2                	lw	ra,28(sp)
 8007cf4:	4532                	lw	a0,12(sp)
 8007cf6:	6105                	addi	sp,sp,32
 8007cf8:	8082                	ret
 8007cfa:	ee89                	bnez	a3,8007d14 <_ZL15get_ttype_entryP16lsda_header_infom+0x66>
 8007cfc:	00259793          	slli	a5,a1,0x2
 8007d00:	40f007b3          	neg	a5,a5
 8007d04:	bff9                	j	8007ce2 <_ZL15get_ttype_entryP16lsda_header_infom+0x34>
 8007d06:	00159793          	slli	a5,a1,0x1
 8007d0a:	40f007b3          	neg	a5,a5
 8007d0e:	bfd1                	j	8007ce2 <_ZL15get_ttype_entryP16lsda_header_infom+0x34>
 8007d10:	4781                	li	a5,0
 8007d12:	bfc1                	j	8007ce2 <_ZL15get_ttype_entryP16lsda_header_infom+0x34>
 8007d14:	ffff8097          	auipc	ra,0xffff8
 8007d18:	448080e7          	jalr	1096(ra) # 800015c <abort>

08007d1c <_ZL20check_exception_specP16lsda_header_infoPKSt9type_infoPvl>:
 8007d1c:	1101                	addi	sp,sp,-32
 8007d1e:	cc22                	sw	s0,24(sp)
 8007d20:	4540                	lw	s0,12(a0)
 8007d22:	fff6c693          	not	a3,a3
 8007d26:	ca26                	sw	s1,20(sp)
 8007d28:	c84a                	sw	s2,16(sp)
 8007d2a:	ce06                	sw	ra,28(sp)
 8007d2c:	84aa                	mv	s1,a0
 8007d2e:	892e                	mv	s2,a1
 8007d30:	c632                	sw	a2,12(sp)
 8007d32:	9436                	add	s0,s0,a3
 8007d34:	4581                	li	a1,0
 8007d36:	4681                	li	a3,0
 8007d38:	00044783          	lbu	a5,0(s0)
 8007d3c:	0405                	addi	s0,s0,1
 8007d3e:	07f7f713          	andi	a4,a5,127
 8007d42:	07e2                	slli	a5,a5,0x18
 8007d44:	00d71733          	sll	a4,a4,a3
 8007d48:	87e1                	srai	a5,a5,0x18
 8007d4a:	8dd9                	or	a1,a1,a4
 8007d4c:	069d                	addi	a3,a3,7
 8007d4e:	fe07c5e3          	bltz	a5,8007d38 <_ZL20check_exception_specP16lsda_header_infoPKSt9type_infoPvl+0x1c>
 8007d52:	c19d                	beqz	a1,8007d78 <_ZL20check_exception_specP16lsda_header_infoPKSt9type_infoPvl+0x5c>
 8007d54:	8526                	mv	a0,s1
 8007d56:	00000097          	auipc	ra,0x0
 8007d5a:	f58080e7          	jalr	-168(ra) # 8007cae <_ZL15get_ttype_entryP16lsda_header_infom>
 8007d5e:	0070                	addi	a2,sp,12
 8007d60:	85ca                	mv	a1,s2
 8007d62:	00000097          	auipc	ra,0x0
 8007d66:	dca080e7          	jalr	-566(ra) # 8007b2c <_ZL16get_adjusted_ptrPKSt9type_infoS1_PPv>
 8007d6a:	d569                	beqz	a0,8007d34 <_ZL20check_exception_specP16lsda_header_infoPKSt9type_infoPvl+0x18>
 8007d6c:	40f2                	lw	ra,28(sp)
 8007d6e:	4462                	lw	s0,24(sp)
 8007d70:	44d2                	lw	s1,20(sp)
 8007d72:	4942                	lw	s2,16(sp)
 8007d74:	6105                	addi	sp,sp,32
 8007d76:	8082                	ret
 8007d78:	40f2                	lw	ra,28(sp)
 8007d7a:	4462                	lw	s0,24(sp)
 8007d7c:	44d2                	lw	s1,20(sp)
 8007d7e:	4942                	lw	s2,16(sp)
 8007d80:	4501                	li	a0,0
 8007d82:	6105                	addi	sp,sp,32
 8007d84:	8082                	ret

08007d86 <_ZL21base_of_encoded_valuehP15_Unwind_Context>:
 8007d86:	0ff00713          	li	a4,255
 8007d8a:	87aa                	mv	a5,a0
 8007d8c:	04e50a63          	beq	a0,a4,8007de0 <_ZL21base_of_encoded_valuehP15_Unwind_Context+0x5a>
 8007d90:	0707f713          	andi	a4,a5,112
 8007d94:	03000693          	li	a3,48
 8007d98:	852e                	mv	a0,a1
 8007d9a:	04d70563          	beq	a4,a3,8007de4 <_ZL21base_of_encoded_valuehP15_Unwind_Context+0x5e>
 8007d9e:	00e6ea63          	bltu	a3,a4,8007db2 <_ZL21base_of_encoded_valuehP15_Unwind_Context+0x2c>
 8007da2:	02000693          	li	a3,32
 8007da6:	00d71e63          	bne	a4,a3,8007dc2 <_ZL21base_of_encoded_valuehP15_Unwind_Context+0x3c>
 8007daa:	ffffc317          	auipc	t1,0xffffc
 8007dae:	5ce30067          	jr	1486(t1) # 8004378 <_Unwind_GetTextRelBase>
 8007db2:	04000793          	li	a5,64
 8007db6:	02f71163          	bne	a4,a5,8007dd8 <_ZL21base_of_encoded_valuehP15_Unwind_Context+0x52>
 8007dba:	ffffc317          	auipc	t1,0xffffc
 8007dbe:	5b230067          	jr	1458(t1) # 800436c <_Unwind_GetRegionStart>
 8007dc2:	00e6e563          	bltu	a3,a4,8007dcc <_ZL21base_of_encoded_valuehP15_Unwind_Context+0x46>
 8007dc6:	0607f793          	andi	a5,a5,96
 8007dca:	cb99                	beqz	a5,8007de0 <_ZL21base_of_encoded_valuehP15_Unwind_Context+0x5a>
 8007dcc:	1141                	addi	sp,sp,-16
 8007dce:	c606                	sw	ra,12(sp)
 8007dd0:	ffff8097          	auipc	ra,0xffff8
 8007dd4:	38c080e7          	jalr	908(ra) # 800015c <abort>
 8007dd8:	05000793          	li	a5,80
 8007ddc:	fef718e3          	bne	a4,a5,8007dcc <_ZL21base_of_encoded_valuehP15_Unwind_Context+0x46>
 8007de0:	4501                	li	a0,0
 8007de2:	8082                	ret
 8007de4:	ffffc317          	auipc	t1,0xffffc
 8007de8:	59030067          	jr	1424(t1) # 8004374 <_Unwind_GetDataRelBase>

08007dec <_ZL17parse_lsda_headerP15_Unwind_ContextPKhP16lsda_header_info>:
 8007dec:	1101                	addi	sp,sp,-32
 8007dee:	cc22                	sw	s0,24(sp)
 8007df0:	ca26                	sw	s1,20(sp)
 8007df2:	c84a                	sw	s2,16(sp)
 8007df4:	ce06                	sw	ra,28(sp)
 8007df6:	c64e                	sw	s3,12(sp)
 8007df8:	892a                	mv	s2,a0
 8007dfa:	842e                	mv	s0,a1
 8007dfc:	84b2                	mv	s1,a2
 8007dfe:	4781                	li	a5,0
 8007e00:	c511                	beqz	a0,8007e0c <_ZL17parse_lsda_headerP15_Unwind_ContextPKhP16lsda_header_info+0x20>
 8007e02:	ffffc097          	auipc	ra,0xffffc
 8007e06:	56a080e7          	jalr	1386(ra) # 800436c <_Unwind_GetRegionStart>
 8007e0a:	87aa                	mv	a5,a0
 8007e0c:	c09c                	sw	a5,0(s1)
 8007e0e:	00044983          	lbu	s3,0(s0)
 8007e12:	0ff00713          	li	a4,255
 8007e16:	0405                	addi	s0,s0,1
 8007e18:	06e99b63          	bne	s3,a4,8007e8e <_ZL17parse_lsda_headerP15_Unwind_ContextPKhP16lsda_header_info+0xa2>
 8007e1c:	c0dc                	sw	a5,4(s1)
 8007e1e:	00044783          	lbu	a5,0(s0)
 8007e22:	0ff00713          	li	a4,255
 8007e26:	00140513          	addi	a0,s0,1
 8007e2a:	00f48a23          	sb	a5,20(s1)
 8007e2e:	08e78a63          	beq	a5,a4,8007ec2 <_ZL17parse_lsda_headerP15_Unwind_ContextPKhP16lsda_header_info+0xd6>
 8007e32:	4581                	li	a1,0
 8007e34:	4681                	li	a3,0
 8007e36:	00054783          	lbu	a5,0(a0)
 8007e3a:	0505                	addi	a0,a0,1
 8007e3c:	07f7f713          	andi	a4,a5,127
 8007e40:	07e2                	slli	a5,a5,0x18
 8007e42:	00d71733          	sll	a4,a4,a3
 8007e46:	87e1                	srai	a5,a5,0x18
 8007e48:	8dd9                	or	a1,a1,a4
 8007e4a:	069d                	addi	a3,a3,7
 8007e4c:	fe07c5e3          	bltz	a5,8007e36 <_ZL17parse_lsda_headerP15_Unwind_ContextPKhP16lsda_header_info+0x4a>
 8007e50:	95aa                	add	a1,a1,a0
 8007e52:	c4cc                	sw	a1,12(s1)
 8007e54:	00054783          	lbu	a5,0(a0)
 8007e58:	4581                	li	a1,0
 8007e5a:	0505                	addi	a0,a0,1
 8007e5c:	00f48aa3          	sb	a5,21(s1)
 8007e60:	4681                	li	a3,0
 8007e62:	00054783          	lbu	a5,0(a0)
 8007e66:	0505                	addi	a0,a0,1
 8007e68:	07f7f713          	andi	a4,a5,127
 8007e6c:	07e2                	slli	a5,a5,0x18
 8007e6e:	00d71733          	sll	a4,a4,a3
 8007e72:	87e1                	srai	a5,a5,0x18
 8007e74:	8dd9                	or	a1,a1,a4
 8007e76:	069d                	addi	a3,a3,7
 8007e78:	fe07c5e3          	bltz	a5,8007e62 <_ZL17parse_lsda_headerP15_Unwind_ContextPKhP16lsda_header_info+0x76>
 8007e7c:	40f2                	lw	ra,28(sp)
 8007e7e:	4462                	lw	s0,24(sp)
 8007e80:	95aa                	add	a1,a1,a0
 8007e82:	c88c                	sw	a1,16(s1)
 8007e84:	4942                	lw	s2,16(sp)
 8007e86:	44d2                	lw	s1,20(sp)
 8007e88:	49b2                	lw	s3,12(sp)
 8007e8a:	6105                	addi	sp,sp,32
 8007e8c:	8082                	ret
 8007e8e:	85ca                	mv	a1,s2
 8007e90:	854e                	mv	a0,s3
 8007e92:	00000097          	auipc	ra,0x0
 8007e96:	ef4080e7          	jalr	-268(ra) # 8007d86 <_ZL21base_of_encoded_valuehP15_Unwind_Context>
 8007e9a:	85aa                	mv	a1,a0
 8007e9c:	8622                	mv	a2,s0
 8007e9e:	00448693          	addi	a3,s1,4
 8007ea2:	854e                	mv	a0,s3
 8007ea4:	00000097          	auipc	ra,0x0
 8007ea8:	cce080e7          	jalr	-818(ra) # 8007b72 <_ZL28read_encoded_value_with_basehjPKhPj>
 8007eac:	842a                	mv	s0,a0
 8007eae:	00044783          	lbu	a5,0(s0)
 8007eb2:	0ff00713          	li	a4,255
 8007eb6:	00140513          	addi	a0,s0,1
 8007eba:	00f48a23          	sb	a5,20(s1)
 8007ebe:	f6e79ae3          	bne	a5,a4,8007e32 <_ZL17parse_lsda_headerP15_Unwind_ContextPKhP16lsda_header_info+0x46>
 8007ec2:	0004a623          	sw	zero,12(s1)
 8007ec6:	b779                	j	8007e54 <_ZL17parse_lsda_headerP15_Unwind_ContextPKhP16lsda_header_info+0x68>

08007ec8 <__gxx_personality_sj0>:
 8007ec8:	88aa                	mv	a7,a0
 8007eca:	08008537          	lui	a0,0x8008
 8007ece:	7135                	addi	sp,sp,-160
 8007ed0:	ec850513          	addi	a0,a0,-312 # 8007ec8 <__gxx_personality_sj0>
 8007ed4:	caaa                	sw	a0,84(sp)
 8007ed6:	0800a537          	lui	a0,0x800a
 8007eda:	96c50513          	addi	a0,a0,-1684 # 800996c <_GLOBAL__sub_I__ZSt7nothrow+0x16e>
 8007ede:	ccaa                	sw	a0,88(sp)
 8007ee0:	08008837          	lui	a6,0x8008
 8007ee4:	0908                	addi	a0,sp,144
 8007ee6:	ceaa                	sw	a0,92(sp)
 8007ee8:	2c480813          	addi	a6,a6,708 # 80082c4 <__gxx_personality_sj0+0x3fc>
 8007eec:	1868                	addi	a0,sp,60
 8007eee:	ce3a                	sw	a4,28(sp)
 8007ef0:	c63e                	sw	a5,12(sp)
 8007ef2:	cf06                	sw	ra,156(sp)
 8007ef4:	cd22                	sw	s0,152(sp)
 8007ef6:	d0c2                	sw	a6,96(sp)
 8007ef8:	d28a                	sw	sp,100(sp)
 8007efa:	c246                	sw	a7,4(sp)
 8007efc:	ca2e                	sw	a1,20(sp)
 8007efe:	c432                	sw	a2,8(sp)
 8007f00:	c836                	sw	a3,16(sp)
 8007f02:	ffffc097          	auipc	ra,0xffffc
 8007f06:	3f6080e7          	jalr	1014(ra) # 80042f8 <_Unwind_SjLj_Register>
 8007f0a:	4712                	lw	a4,4(sp)
 8007f0c:	d882                	sw	zero,112(sp)
 8007f0e:	da82                	sw	zero,116(sp)
 8007f10:	4785                	li	a5,1
 8007f12:	0ef71763          	bne	a4,a5,8008000 <__gxx_personality_sj0+0x138>
 8007f16:	200017b7          	lui	a5,0x20001
 8007f1a:	ba87a603          	lw	a2,-1112(a5) # 20000ba8 <_bss_end>
 8007f1e:	4522                	lw	a0,8(sp)
 8007f20:	bac7a703          	lw	a4,-1108(a5)
 8007f24:	4699                	li	a3,6
 8007f26:	962a                	add	a2,a2,a0
 8007f28:	00a637b3          	sltu	a5,a2,a0
 8007f2c:	d432                	sw	a2,40(sp)
 8007f2e:	4642                	lw	a2,16(sp)
 8007f30:	9732                	add	a4,a4,a2
 8007f32:	973e                	add	a4,a4,a5
 8007f34:	47d2                	lw	a5,20(sp)
 8007f36:	d23a                	sw	a4,36(sp)
 8007f38:	00d79463          	bne	a5,a3,8007f40 <__gxx_personality_sj0+0x78>
 8007f3c:	24070563          	beqz	a4,8008186 <__gxx_personality_sj0+0x2be>
 8007f40:	4532                	lw	a0,12(sp)
 8007f42:	57fd                	li	a5,-1
 8007f44:	c0be                	sw	a5,64(sp)
 8007f46:	ffffc097          	auipc	ra,0xffffc
 8007f4a:	420080e7          	jalr	1056(ra) # 8004366 <_Unwind_GetLanguageSpecificData>
 8007f4e:	d02a                	sw	a0,32(sp)
 8007f50:	12050163          	beqz	a0,8008072 <__gxx_personality_sj0+0x1aa>
 8007f54:	5582                	lw	a1,32(sp)
 8007f56:	4532                	lw	a0,12(sp)
 8007f58:	18b0                	addi	a2,sp,120
 8007f5a:	57fd                	li	a5,-1
 8007f5c:	c0be                	sw	a5,64(sp)
 8007f5e:	00000097          	auipc	ra,0x0
 8007f62:	e8e080e7          	jalr	-370(ra) # 8007dec <_ZL17parse_lsda_headerP15_Unwind_ContextPKhP16lsda_header_info>
 8007f66:	87aa                	mv	a5,a0
 8007f68:	45b2                	lw	a1,12(sp)
 8007f6a:	08c14503          	lbu	a0,140(sp)
 8007f6e:	c23e                	sw	a5,4(sp)
 8007f70:	00000097          	auipc	ra,0x0
 8007f74:	e16080e7          	jalr	-490(ra) # 8007d86 <_ZL21base_of_encoded_valuehP15_Unwind_Context>
 8007f78:	87aa                	mv	a5,a0
 8007f7a:	4532                	lw	a0,12(sp)
 8007f7c:	18cc                	addi	a1,sp,116
 8007f7e:	c13e                	sw	a5,128(sp)
 8007f80:	ffffc097          	auipc	ra,0xffffc
 8007f84:	3cc080e7          	jalr	972(ra) # 800434c <_Unwind_GetIPInfo>
 8007f88:	57d6                	lw	a5,116(sp)
 8007f8a:	0017b793          	seqz	a5,a5
 8007f8e:	40f507b3          	sub	a5,a0,a5
 8007f92:	c43e                	sw	a5,8(sp)
 8007f94:	0c07cf63          	bltz	a5,8008072 <__gxx_personality_sj0+0x1aa>
 8007f98:	e7cd                	bnez	a5,8008042 <__gxx_personality_sj0+0x17a>
 8007f9a:	cc02                	sw	zero,24(sp)
 8007f9c:	c802                	sw	zero,16(sp)
 8007f9e:	4705                	li	a4,1
 8007fa0:	47d2                	lw	a5,20(sp)
 8007fa2:	8b85                	andi	a5,a5,1
 8007fa4:	2a079c63          	bnez	a5,800825c <__gxx_personality_sj0+0x394>
 8007fa8:	47d2                	lw	a5,20(sp)
 8007faa:	8ba1                	andi	a5,a5,8
 8007fac:	22078d63          	beqz	a5,80081e6 <__gxx_personality_sj0+0x31e>
 8007fb0:	4785                	li	a5,1
 8007fb2:	30f70e63          	beq	a4,a5,80082ce <__gxx_personality_sj0+0x406>
 8007fb6:	4762                	lw	a4,24(sp)
 8007fb8:	32074763          	bltz	a4,80082e6 <__gxx_personality_sj0+0x41e>
 8007fbc:	4532                	lw	a0,12(sp)
 8007fbe:	4672                	lw	a2,28(sp)
 8007fc0:	57fd                	li	a5,-1
 8007fc2:	4581                	li	a1,0
 8007fc4:	c0be                	sw	a5,64(sp)
 8007fc6:	ffffc097          	auipc	ra,0xffffc
 8007fca:	374080e7          	jalr	884(ra) # 800433a <_Unwind_SetGR>
 8007fce:	4662                	lw	a2,24(sp)
 8007fd0:	4532                	lw	a0,12(sp)
 8007fd2:	4585                	li	a1,1
 8007fd4:	ffffc097          	auipc	ra,0xffffc
 8007fd8:	366080e7          	jalr	870(ra) # 800433a <_Unwind_SetGR>
 8007fdc:	45a2                	lw	a1,8(sp)
 8007fde:	4532                	lw	a0,12(sp)
 8007fe0:	ffffc097          	auipc	ra,0xffffc
 8007fe4:	37e080e7          	jalr	894(ra) # 800435e <_Unwind_SetIP>
 8007fe8:	1868                	addi	a0,sp,60
 8007fea:	479d                	li	a5,7
 8007fec:	c23e                	sw	a5,4(sp)
 8007fee:	ffffc097          	auipc	ra,0xffffc
 8007ff2:	32c080e7          	jalr	812(ra) # 800431a <_Unwind_SjLj_Unregister>
 8007ff6:	40fa                	lw	ra,156(sp)
 8007ff8:	446a                	lw	s0,152(sp)
 8007ffa:	4512                	lw	a0,4(sp)
 8007ffc:	610d                	addi	sp,sp,160
 8007ffe:	8082                	ret
 8008000:	478d                	li	a5,3
 8008002:	c23e                	sw	a5,4(sp)
 8008004:	1868                	addi	a0,sp,60
 8008006:	ffffc097          	auipc	ra,0xffffc
 800800a:	314080e7          	jalr	788(ra) # 800431a <_Unwind_SjLj_Unregister>
 800800e:	40fa                	lw	ra,156(sp)
 8008010:	446a                	lw	s0,152(sp)
 8008012:	4512                	lw	a0,4(sp)
 8008014:	610d                	addi	sp,sp,160
 8008016:	8082                	ret
 8008018:	4601                	li	a2,0
 800801a:	4681                	li	a3,0
 800801c:	4712                	lw	a4,4(sp)
 800801e:	00074783          	lbu	a5,0(a4)
 8008022:	0705                	addi	a4,a4,1
 8008024:	c23a                	sw	a4,4(sp)
 8008026:	07f7f713          	andi	a4,a5,127
 800802a:	07e2                	slli	a5,a5,0x18
 800802c:	00d71733          	sll	a4,a4,a3
 8008030:	87e1                	srai	a5,a5,0x18
 8008032:	8e59                	or	a2,a2,a4
 8008034:	069d                	addi	a3,a3,7
 8008036:	fe07c3e3          	bltz	a5,800801c <__gxx_personality_sj0+0x154>
 800803a:	47a2                	lw	a5,8(sp)
 800803c:	17fd                	addi	a5,a5,-1
 800803e:	c43e                	sw	a5,8(sp)
 8008040:	c7a9                	beqz	a5,800808a <__gxx_personality_sj0+0x1c2>
 8008042:	4581                	li	a1,0
 8008044:	4681                	li	a3,0
 8008046:	4712                	lw	a4,4(sp)
 8008048:	00074783          	lbu	a5,0(a4)
 800804c:	0705                	addi	a4,a4,1
 800804e:	c23a                	sw	a4,4(sp)
 8008050:	07f7f713          	andi	a4,a5,127
 8008054:	07e2                	slli	a5,a5,0x18
 8008056:	00d71733          	sll	a4,a4,a3
 800805a:	87e1                	srai	a5,a5,0x18
 800805c:	8dd9                	or	a1,a1,a4
 800805e:	069d                	addi	a3,a3,7
 8008060:	fe07c3e3          	bltz	a5,8008046 <__gxx_personality_sj0+0x17e>
 8008064:	bf55                	j	8008018 <__gxx_personality_sj0+0x150>
 8008066:	57b2                	lw	a5,44(sp)
 8008068:	c789                	beqz	a5,8008072 <__gxx_personality_sj0+0x1aa>
 800806a:	47d2                	lw	a5,20(sp)
 800806c:	8b85                	andi	a5,a5,1
 800806e:	26078463          	beqz	a5,80082d6 <__gxx_personality_sj0+0x40e>
 8008072:	1868                	addi	a0,sp,60
 8008074:	47a1                	li	a5,8
 8008076:	c23e                	sw	a5,4(sp)
 8008078:	ffffc097          	auipc	ra,0xffffc
 800807c:	2a2080e7          	jalr	674(ra) # 800431a <_Unwind_SjLj_Unregister>
 8008080:	40fa                	lw	ra,156(sp)
 8008082:	446a                	lw	s0,152(sp)
 8008084:	4512                	lw	a0,4(sp)
 8008086:	610d                	addi	sp,sp,160
 8008088:	8082                	ret
 800808a:	00158793          	addi	a5,a1,1
 800808e:	dc3e                	sw	a5,56(sp)
 8008090:	de61                	beqz	a2,8008068 <__gxx_personality_sj0+0x1a0>
 8008092:	57e2                	lw	a5,56(sp)
 8008094:	dff9                	beqz	a5,8008072 <__gxx_personality_sj0+0x1aa>
 8008096:	47aa                	lw	a5,136(sp)
 8008098:	167d                	addi	a2,a2,-1
 800809a:	97b2                	add	a5,a5,a2
 800809c:	c83e                	sw	a5,16(sp)
 800809e:	d7f1                	beqz	a5,800806a <__gxx_personality_sj0+0x1a2>
 80080a0:	47d2                	lw	a5,20(sp)
 80080a2:	8ba1                	andi	a5,a5,8
 80080a4:	da3e                	sw	a5,52(sp)
 80080a6:	1e079763          	bnez	a5,8008294 <__gxx_personality_sj0+0x3cc>
 80080aa:	5792                	lw	a5,36(sp)
 80080ac:	1e078a63          	beqz	a5,80082a0 <__gxx_personality_sj0+0x3d8>
 80080b0:	200017b7          	lui	a5,0x20001
 80080b4:	89878793          	addi	a5,a5,-1896 # 20000898 <_ZTIN10__cxxabiv119__foreign_exceptionE>
 80080b8:	d83e                	sw	a5,48(sp)
 80080ba:	d602                	sw	zero,44(sp)
 80080bc:	47c2                	lw	a5,16(sp)
 80080be:	4581                	li	a1,0
 80080c0:	4701                	li	a4,0
 80080c2:	c23e                	sw	a5,4(sp)
 80080c4:	4792                	lw	a5,4(sp)
 80080c6:	0007c603          	lbu	a2,0(a5)
 80080ca:	0785                	addi	a5,a5,1
 80080cc:	c23e                	sw	a5,4(sp)
 80080ce:	01861693          	slli	a3,a2,0x18
 80080d2:	07f67793          	andi	a5,a2,127
 80080d6:	00e797b3          	sll	a5,a5,a4
 80080da:	86e1                	srai	a3,a3,0x18
 80080dc:	8ddd                	or	a1,a1,a5
 80080de:	071d                	addi	a4,a4,7
 80080e0:	fe06c2e3          	bltz	a3,80080c4 <__gxx_personality_sj0+0x1fc>
 80080e4:	47fd                	li	a5,31
 80080e6:	00e7eb63          	bltu	a5,a4,80080fc <__gxx_personality_sj0+0x234>
 80080ea:	04067613          	andi	a2,a2,64
 80080ee:	c619                	beqz	a2,80080fc <__gxx_personality_sj0+0x234>
 80080f0:	4785                	li	a5,1
 80080f2:	00e79733          	sll	a4,a5,a4
 80080f6:	40e00733          	neg	a4,a4
 80080fa:	8dd9                	or	a1,a1,a4
 80080fc:	4512                	lw	a0,4(sp)
 80080fe:	cc2e                	sw	a1,24(sp)
 8008100:	c402                	sw	zero,8(sp)
 8008102:	4701                	li	a4,0
 8008104:	00054603          	lbu	a2,0(a0)
 8008108:	4422                	lw	s0,8(sp)
 800810a:	0505                	addi	a0,a0,1
 800810c:	07f67793          	andi	a5,a2,127
 8008110:	00e797b3          	sll	a5,a5,a4
 8008114:	01861693          	slli	a3,a2,0x18
 8008118:	8fc1                	or	a5,a5,s0
 800811a:	86e1                	srai	a3,a3,0x18
 800811c:	c43e                	sw	a5,8(sp)
 800811e:	071d                	addi	a4,a4,7
 8008120:	fe06c2e3          	bltz	a3,8008104 <__gxx_personality_sj0+0x23c>
 8008124:	47fd                	li	a5,31
 8008126:	00e7ed63          	bltu	a5,a4,8008140 <__gxx_personality_sj0+0x278>
 800812a:	04067613          	andi	a2,a2,64
 800812e:	ca09                	beqz	a2,8008140 <__gxx_personality_sj0+0x278>
 8008130:	4785                	li	a5,1
 8008132:	00e79733          	sll	a4,a5,a4
 8008136:	47a2                	lw	a5,8(sp)
 8008138:	40e00733          	neg	a4,a4
 800813c:	8fd9                	or	a5,a5,a4
 800813e:	c43e                	sw	a5,8(sp)
 8008140:	c1e9                	beqz	a1,8008202 <__gxx_personality_sj0+0x33a>
 8008142:	0cb04363          	bgtz	a1,8008208 <__gxx_personality_sj0+0x340>
 8008146:	57c2                	lw	a5,48(sp)
 8008148:	c7e5                	beqz	a5,8008230 <__gxx_personality_sj0+0x368>
 800814a:	5752                	lw	a4,52(sp)
 800814c:	e375                	bnez	a4,8008230 <__gxx_personality_sj0+0x368>
 800814e:	5712                	lw	a4,36(sp)
 8008150:	e365                	bnez	a4,8008230 <__gxx_personality_sj0+0x368>
 8008152:	5722                	lw	a4,40(sp)
 8008154:	4685                	li	a3,1
 8008156:	0ce6ed63          	bltu	a3,a4,8008230 <__gxx_personality_sj0+0x368>
 800815a:	5646                	lw	a2,112(sp)
 800815c:	577d                	li	a4,-1
 800815e:	86ae                	mv	a3,a1
 8008160:	18a8                	addi	a0,sp,120
 8008162:	85be                	mv	a1,a5
 8008164:	c0ba                	sw	a4,64(sp)
 8008166:	00000097          	auipc	ra,0x0
 800816a:	bb6080e7          	jalr	-1098(ra) # 8007d1c <_ZL20check_exception_specP16lsda_header_infoPKSt9type_infoPvl>
 800816e:	00154613          	xori	a2,a0,1
 8008172:	0ff67613          	andi	a2,a2,255
 8008176:	ea4d                	bnez	a2,8008228 <__gxx_personality_sj0+0x360>
 8008178:	47a2                	lw	a5,8(sp)
 800817a:	ee0786e3          	beqz	a5,8008066 <__gxx_personality_sj0+0x19e>
 800817e:	4712                	lw	a4,4(sp)
 8008180:	97ba                	add	a5,a5,a4
 8008182:	c83e                	sw	a5,16(sp)
 8008184:	bf25                	j	80080bc <__gxx_personality_sj0+0x1f4>
 8008186:	57a2                	lw	a5,40(sp)
 8008188:	4712                	lw	a4,4(sp)
 800818a:	daf76be3          	bltu	a4,a5,8007f40 <__gxx_personality_sj0+0x78>
 800818e:	47f2                	lw	a5,28(sp)
 8008190:	ff47a783          	lw	a5,-12(a5)
 8008194:	c43e                	sw	a5,8(sp)
 8008196:	c3ad                	beqz	a5,80081f8 <__gxx_personality_sj0+0x330>
 8008198:	47f2                	lw	a5,28(sp)
 800819a:	fe87a703          	lw	a4,-24(a5)
 800819e:	ff07a783          	lw	a5,-16(a5)
 80081a2:	cc3a                	sw	a4,24(sp)
 80081a4:	d03e                	sw	a5,32(sp)
 80081a6:	47e2                	lw	a5,24(sp)
 80081a8:	e007dae3          	bgez	a5,8007fbc <__gxx_personality_sj0+0xf4>
 80081ac:	5582                	lw	a1,32(sp)
 80081ae:	4532                	lw	a0,12(sp)
 80081b0:	57fd                	li	a5,-1
 80081b2:	18b0                	addi	a2,sp,120
 80081b4:	c0be                	sw	a5,64(sp)
 80081b6:	00000097          	auipc	ra,0x0
 80081ba:	c36080e7          	jalr	-970(ra) # 8007dec <_ZL17parse_lsda_headerP15_Unwind_ContextPKhP16lsda_header_info>
 80081be:	45b2                	lw	a1,12(sp)
 80081c0:	08c14503          	lbu	a0,140(sp)
 80081c4:	00000097          	auipc	ra,0x0
 80081c8:	bc2080e7          	jalr	-1086(ra) # 8007d86 <_ZL21base_of_encoded_valuehP15_Unwind_Context>
 80081cc:	87aa                	mv	a5,a0
 80081ce:	45b2                	lw	a1,12(sp)
 80081d0:	08c14503          	lbu	a0,140(sp)
 80081d4:	c13e                	sw	a5,128(sp)
 80081d6:	00000097          	auipc	ra,0x0
 80081da:	bb0080e7          	jalr	-1104(ra) # 8007d86 <_ZL21base_of_encoded_valuehP15_Unwind_Context>
 80081de:	47f2                	lw	a5,28(sp)
 80081e0:	fea7aa23          	sw	a0,-12(a5)
 80081e4:	bbe1                	j	8007fbc <__gxx_personality_sj0+0xf4>
 80081e6:	5792                	lw	a5,36(sp)
 80081e8:	dc0794e3          	bnez	a5,8007fb0 <__gxx_personality_sj0+0xe8>
 80081ec:	56a2                	lw	a3,40(sp)
 80081ee:	4785                	li	a5,1
 80081f0:	dcd7e0e3          	bltu	a5,a3,8007fb0 <__gxx_personality_sj0+0xe8>
 80081f4:	faf719e3          	bne	a4,a5,80081a6 <__gxx_personality_sj0+0x2de>
 80081f8:	4572                	lw	a0,28(sp)
 80081fa:	00001097          	auipc	ra,0x1
 80081fe:	4ee080e7          	jalr	1262(ra) # 80096e8 <__cxa_call_terminate>
 8008202:	4785                	li	a5,1
 8008204:	d63e                	sw	a5,44(sp)
 8008206:	bf8d                	j	8008178 <__gxx_personality_sj0+0x2b0>
 8008208:	57fd                	li	a5,-1
 800820a:	18a8                	addi	a0,sp,120
 800820c:	c0be                	sw	a5,64(sp)
 800820e:	00000097          	auipc	ra,0x0
 8008212:	aa0080e7          	jalr	-1376(ra) # 8007cae <_ZL15get_ttype_entryP16lsda_header_infom>
 8008216:	c909                	beqz	a0,8008228 <__gxx_personality_sj0+0x360>
 8008218:	55c2                	lw	a1,48(sp)
 800821a:	ddb9                	beqz	a1,8008178 <__gxx_personality_sj0+0x2b0>
 800821c:	1890                	addi	a2,sp,112
 800821e:	00000097          	auipc	ra,0x0
 8008222:	90e080e7          	jalr	-1778(ra) # 8007b2c <_ZL16get_adjusted_ptrPKSt9type_infoS1_PPv>
 8008226:	d929                	beqz	a0,8008178 <__gxx_personality_sj0+0x2b0>
 8008228:	57e2                	lw	a5,56(sp)
 800822a:	470d                	li	a4,3
 800822c:	c43e                	sw	a5,8(sp)
 800822e:	bb8d                	j	8007fa0 <__gxx_personality_sj0+0xd8>
 8008230:	479a                	lw	a5,132(sp)
 8008232:	fff5c593          	not	a1,a1
 8008236:	4601                	li	a2,0
 8008238:	95be                	add	a1,a1,a5
 800823a:	4681                	li	a3,0
 800823c:	0005c783          	lbu	a5,0(a1)
 8008240:	0585                	addi	a1,a1,1
 8008242:	07f7f713          	andi	a4,a5,127
 8008246:	07e2                	slli	a5,a5,0x18
 8008248:	00d71733          	sll	a4,a4,a3
 800824c:	87e1                	srai	a5,a5,0x18
 800824e:	8e59                	or	a2,a2,a4
 8008250:	069d                	addi	a3,a3,7
 8008252:	fe07c5e3          	bltz	a5,800823c <__gxx_personality_sj0+0x374>
 8008256:	00163613          	seqz	a2,a2
 800825a:	bf31                	j	8008176 <__gxx_personality_sj0+0x2ae>
 800825c:	5792                	lw	a5,36(sp)
 800825e:	c781                	beqz	a5,8008266 <__gxx_personality_sj0+0x39e>
 8008260:	4799                	li	a5,6
 8008262:	c23e                	sw	a5,4(sp)
 8008264:	b345                	j	8008004 <__gxx_personality_sj0+0x13c>
 8008266:	5722                	lw	a4,40(sp)
 8008268:	4785                	li	a5,1
 800826a:	fee7ebe3          	bltu	a5,a4,8008260 <__gxx_personality_sj0+0x398>
 800826e:	4772                	lw	a4,28(sp)
 8008270:	47e2                	lw	a5,24(sp)
 8008272:	fef72423          	sw	a5,-24(a4)
 8008276:	47c2                	lw	a5,16(sp)
 8008278:	fef72623          	sw	a5,-20(a4)
 800827c:	5782                	lw	a5,32(sp)
 800827e:	fef72823          	sw	a5,-16(a4)
 8008282:	57c6                	lw	a5,112(sp)
 8008284:	fef72c23          	sw	a5,-8(a4)
 8008288:	47a2                	lw	a5,8(sp)
 800828a:	fef72a23          	sw	a5,-12(a4)
 800828e:	4799                	li	a5,6
 8008290:	c23e                	sw	a5,4(sp)
 8008292:	bb8d                	j	8008004 <__gxx_personality_sj0+0x13c>
 8008294:	200017b7          	lui	a5,0x20001
 8008298:	89078793          	addi	a5,a5,-1904 # 20000890 <_ZTIN10__cxxabiv115__forced_unwindE>
 800829c:	d83e                	sw	a5,48(sp)
 800829e:	bd31                	j	80080ba <__gxx_personality_sj0+0x1f2>
 80082a0:	5722                	lw	a4,40(sp)
 80082a2:	4785                	li	a5,1
 80082a4:	e0e7e6e3          	bltu	a5,a4,80080b0 <__gxx_personality_sj0+0x1e8>
 80082a8:	46f2                	lw	a3,28(sp)
 80082aa:	0006c703          	lbu	a4,0(a3)
 80082ae:	02068793          	addi	a5,a3,32
 80082b2:	8b05                	andi	a4,a4,1
 80082b4:	c319                	beqz	a4,80082ba <__gxx_personality_sj0+0x3f2>
 80082b6:	fd06a783          	lw	a5,-48(a3)
 80082ba:	fb07a703          	lw	a4,-80(a5)
 80082be:	d8be                	sw	a5,112(sp)
 80082c0:	d83a                	sw	a4,48(sp)
 80082c2:	bbe5                	j	80080ba <__gxx_personality_sj0+0x1f2>
 80082c4:	4516                	lw	a0,68(sp)
 80082c6:	fffff097          	auipc	ra,0xfffff
 80082ca:	748080e7          	jalr	1864(ra) # 8007a0e <__cxa_begin_catch>
 80082ce:	00000097          	auipc	ra,0x0
 80082d2:	392080e7          	jalr	914(ra) # 8008660 <_ZSt9terminatev>
 80082d6:	47d2                	lw	a5,20(sp)
 80082d8:	8ba1                	andi	a5,a5,8
 80082da:	cc3e                	sw	a5,24(sp)
 80082dc:	cb91                	beqz	a5,80082f0 <__gxx_personality_sj0+0x428>
 80082de:	57e2                	lw	a5,56(sp)
 80082e0:	cc02                	sw	zero,24(sp)
 80082e2:	c43e                	sw	a5,8(sp)
 80082e4:	b9e1                	j	8007fbc <__gxx_personality_sj0+0xf4>
 80082e6:	c0be                	sw	a5,64(sp)
 80082e8:	00000097          	auipc	ra,0x0
 80082ec:	468080e7          	jalr	1128(ra) # 8008750 <_ZSt10unexpectedv>
 80082f0:	57e2                	lw	a5,56(sp)
 80082f2:	c43e                	sw	a5,8(sp)
 80082f4:	b1e1                	j	8007fbc <__gxx_personality_sj0+0xf4>

080082f6 <__cxa_call_unexpected>:
 80082f6:	080087b7          	lui	a5,0x8008
 80082fa:	7119                	addi	sp,sp,-128
 80082fc:	ec878793          	addi	a5,a5,-312 # 8007ec8 <__gxx_personality_sj0>
 8008300:	da3e                	sw	a5,52(sp)
 8008302:	0800a7b7          	lui	a5,0x800a
 8008306:	97c78793          	addi	a5,a5,-1668 # 800997c <_GLOBAL__sub_I__ZSt7nothrow+0x17e>
 800830a:	dc3e                	sw	a5,56(sp)
 800830c:	189c                	addi	a5,sp,112
 800830e:	de3e                	sw	a5,60(sp)
 8008310:	080087b7          	lui	a5,0x8008
 8008314:	36078793          	addi	a5,a5,864 # 8008360 <__cxa_call_unexpected+0x6a>
 8008318:	c62a                	sw	a0,12(sp)
 800831a:	0868                	addi	a0,sp,28
 800831c:	c0be                	sw	a5,64(sp)
 800831e:	de86                	sw	ra,124(sp)
 8008320:	dca2                	sw	s0,120(sp)
 8008322:	c28a                	sw	sp,68(sp)
 8008324:	ffffc097          	auipc	ra,0xffffc
 8008328:	fd4080e7          	jalr	-44(ra) # 80042f8 <_Unwind_SjLj_Register>
 800832c:	4532                	lw	a0,12(sp)
 800832e:	fffff097          	auipc	ra,0xfffff
 8008332:	6e0080e7          	jalr	1760(ra) # 8007a0e <__cxa_begin_catch>
 8008336:	4732                	lw	a4,12(sp)
 8008338:	ff072683          	lw	a3,-16(a4)
 800833c:	ff472783          	lw	a5,-12(a4)
 8008340:	fd872503          	lw	a0,-40(a4)
 8008344:	c836                	sw	a3,16(sp)
 8008346:	fe872683          	lw	a3,-24(a4)
 800834a:	fdc72703          	lw	a4,-36(a4)
 800834e:	d0be                	sw	a5,96(sp)
 8008350:	c636                	sw	a3,12(sp)
 8008352:	ca3a                	sw	a4,20(sp)
 8008354:	4705                	li	a4,1
 8008356:	d03a                	sw	a4,32(sp)
 8008358:	00000097          	auipc	ra,0x0
 800835c:	31c080e7          	jalr	796(ra) # 8008674 <_ZN10__cxxabiv112__unexpectedEPFvvE>
 8008360:	5712                	lw	a4,36(sp)
 8008362:	5782                	lw	a5,32(sp)
 8008364:	cc3a                	sw	a4,24(sp)
 8008366:	ebc1                	bnez	a5,80083f6 <__cxa_call_unexpected+0x100>
 8008368:	4562                	lw	a0,24(sp)
 800836a:	fffff097          	auipc	ra,0xfffff
 800836e:	6a4080e7          	jalr	1700(ra) # 8007a0e <__cxa_begin_catch>
 8008372:	ffffe097          	auipc	ra,0xffffe
 8008376:	914080e7          	jalr	-1772(ra) # 8005c86 <__cxa_get_globals_fast>
 800837a:	411c                	lw	a5,0(a0)
 800837c:	0307c703          	lbu	a4,48(a5)
 8008380:	8b05                	andi	a4,a4,1
 8008382:	cf41                	beqz	a4,800841a <__cxa_call_unexpected+0x124>
 8008384:	439c                	lw	a5,0(a5)
 8008386:	cc3e                	sw	a5,24(sp)
 8008388:	45c2                	lw	a1,16(sp)
 800838a:	4789                	li	a5,2
 800838c:	08b0                	addi	a2,sp,88
 800838e:	4501                	li	a0,0
 8008390:	d03e                	sw	a5,32(sp)
 8008392:	00000097          	auipc	ra,0x0
 8008396:	a5a080e7          	jalr	-1446(ra) # 8007dec <_ZL17parse_lsda_headerP15_Unwind_ContextPKhP16lsda_header_info>
 800839a:	4662                	lw	a2,24(sp)
 800839c:	46b2                	lw	a3,12(sp)
 800839e:	08a8                	addi	a0,sp,88
 80083a0:	fb062583          	lw	a1,-80(a2)
 80083a4:	00000097          	auipc	ra,0x0
 80083a8:	978080e7          	jalr	-1672(ra) # 8007d1c <_ZL20check_exception_specP16lsda_header_infoPKSt9type_infoPvl>
 80083ac:	ed25                	bnez	a0,8008424 <__cxa_call_unexpected+0x12e>
 80083ae:	4789                	li	a5,2
 80083b0:	46b2                	lw	a3,12(sp)
 80083b2:	d03e                	sw	a5,32(sp)
 80083b4:	0800a7b7          	lui	a5,0x800a
 80083b8:	4601                	li	a2,0
 80083ba:	3d478593          	addi	a1,a5,980 # 800a3d4 <_ZTISt13bad_exception>
 80083be:	08a8                	addi	a0,sp,88
 80083c0:	00000097          	auipc	ra,0x0
 80083c4:	95c080e7          	jalr	-1700(ra) # 8007d1c <_ZL20check_exception_specP16lsda_header_infoPKSt9type_infoPvl>
 80083c8:	c135                	beqz	a0,800842c <__cxa_call_unexpected+0x136>
 80083ca:	4511                	li	a0,4
 80083cc:	00001097          	auipc	ra,0x1
 80083d0:	1dc080e7          	jalr	476(ra) # 80095a8 <__cxa_allocate_exception>
 80083d4:	0800a7b7          	lui	a5,0x800a
 80083d8:	42c78793          	addi	a5,a5,1068 # 800a42c <_ZTVSt13bad_exception+0x8>
 80083dc:	c11c                	sw	a5,0(a0)
 80083de:	08008637          	lui	a2,0x8008
 80083e2:	0800a7b7          	lui	a5,0x800a
 80083e6:	b1660613          	addi	a2,a2,-1258 # 8007b16 <_ZNSt13bad_exceptionD1Ev>
 80083ea:	3d478593          	addi	a1,a5,980 # 800a3d4 <_ZTISt13bad_exception>
 80083ee:	00000097          	auipc	ra,0x0
 80083f2:	3e8080e7          	jalr	1000(ra) # 80087d6 <__cxa_throw>
 80083f6:	17fd                	addi	a5,a5,-1
 80083f8:	e78d                	bnez	a5,8008422 <__cxa_call_unexpected+0x12c>
 80083fa:	d002                	sw	zero,32(sp)
 80083fc:	fffff097          	auipc	ra,0xfffff
 8008400:	690080e7          	jalr	1680(ra) # 8007a8c <__cxa_end_catch>
 8008404:	fffff097          	auipc	ra,0xfffff
 8008408:	688080e7          	jalr	1672(ra) # 8007a8c <__cxa_end_catch>
 800840c:	4562                	lw	a0,24(sp)
 800840e:	57fd                	li	a5,-1
 8008410:	d03e                	sw	a5,32(sp)
 8008412:	ffffc097          	auipc	ra,0xffffc
 8008416:	03a080e7          	jalr	58(ra) # 800444c <_Unwind_SjLj_Resume>
 800841a:	05078793          	addi	a5,a5,80
 800841e:	cc3e                	sw	a5,24(sp)
 8008420:	b7a5                	j	8008388 <__cxa_call_unexpected+0x92>
 8008422:	9002                	ebreak
 8008424:	00000097          	auipc	ra,0x0
 8008428:	43c080e7          	jalr	1084(ra) # 8008860 <__cxa_rethrow>
 800842c:	4552                	lw	a0,20(sp)
 800842e:	00000097          	auipc	ra,0x0
 8008432:	0c8080e7          	jalr	200(ra) # 80084f6 <_ZN10__cxxabiv111__terminateEPFvvE>

08008436 <_ZNK9__gnu_cxx24__concurrence_lock_error4whatEv>:
 8008436:	0800a537          	lui	a0,0x800a
 800843a:	46c50513          	addi	a0,a0,1132 # 800a46c <_ZTVSt13bad_exception+0x48>
 800843e:	8082                	ret

08008440 <_ZNK9__gnu_cxx26__concurrence_unlock_error4whatEv>:
 8008440:	0800a537          	lui	a0,0x800a
 8008444:	49050513          	addi	a0,a0,1168 # 800a490 <_ZTVSt13bad_exception+0x6c>
 8008448:	8082                	ret

0800844a <_ZN9__gnu_cxx24__concurrence_lock_errorD1Ev>:
 800844a:	0800a7b7          	lui	a5,0x800a
 800844e:	52c78793          	addi	a5,a5,1324 # 800a52c <_ZTVN9__gnu_cxx24__concurrence_lock_errorE+0x8>
 8008452:	c11c                	sw	a5,0(a0)
 8008454:	fffff317          	auipc	t1,0xfffff
 8008458:	6c030067          	jr	1728(t1) # 8007b14 <_ZNSt9exceptionD1Ev>

0800845c <_ZN9__gnu_cxx26__concurrence_unlock_errorD1Ev>:
 800845c:	0800a7b7          	lui	a5,0x800a
 8008460:	54078793          	addi	a5,a5,1344 # 800a540 <_ZTVN9__gnu_cxx26__concurrence_unlock_errorE+0x8>
 8008464:	c11c                	sw	a5,0(a0)
 8008466:	fffff317          	auipc	t1,0xfffff
 800846a:	6ae30067          	jr	1710(t1) # 8007b14 <_ZNSt9exceptionD1Ev>

0800846e <_ZN9__gnu_cxx24__concurrence_lock_errorD0Ev>:
 800846e:	1141                	addi	sp,sp,-16
 8008470:	0800a7b7          	lui	a5,0x800a
 8008474:	c422                	sw	s0,8(sp)
 8008476:	c606                	sw	ra,12(sp)
 8008478:	52c78793          	addi	a5,a5,1324 # 800a52c <_ZTVN9__gnu_cxx24__concurrence_lock_errorE+0x8>
 800847c:	c11c                	sw	a5,0(a0)
 800847e:	842a                	mv	s0,a0
 8008480:	fffff097          	auipc	ra,0xfffff
 8008484:	694080e7          	jalr	1684(ra) # 8007b14 <_ZNSt9exceptionD1Ev>
 8008488:	8522                	mv	a0,s0
 800848a:	4422                	lw	s0,8(sp)
 800848c:	40b2                	lw	ra,12(sp)
 800848e:	4591                	li	a1,4
 8008490:	0141                	addi	sp,sp,16
 8008492:	fffff317          	auipc	t1,0xfffff
 8008496:	56c30067          	jr	1388(t1) # 80079fe <_ZdlPvj>

0800849a <_ZN9__gnu_cxx26__concurrence_unlock_errorD0Ev>:
 800849a:	1141                	addi	sp,sp,-16
 800849c:	0800a7b7          	lui	a5,0x800a
 80084a0:	c422                	sw	s0,8(sp)
 80084a2:	c606                	sw	ra,12(sp)
 80084a4:	54078793          	addi	a5,a5,1344 # 800a540 <_ZTVN9__gnu_cxx26__concurrence_unlock_errorE+0x8>
 80084a8:	c11c                	sw	a5,0(a0)
 80084aa:	842a                	mv	s0,a0
 80084ac:	fffff097          	auipc	ra,0xfffff
 80084b0:	668080e7          	jalr	1640(ra) # 8007b14 <_ZNSt9exceptionD1Ev>
 80084b4:	8522                	mv	a0,s0
 80084b6:	4422                	lw	s0,8(sp)
 80084b8:	40b2                	lw	ra,12(sp)
 80084ba:	4591                	li	a1,4
 80084bc:	0141                	addi	sp,sp,16
 80084be:	fffff317          	auipc	t1,0xfffff
 80084c2:	54030067          	jr	1344(t1) # 80079fe <_ZdlPvj>

080084c6 <_ZN9__gnu_cxx30__throw_concurrence_lock_errorEv>:
 80084c6:	1141                	addi	sp,sp,-16
 80084c8:	4511                	li	a0,4
 80084ca:	c606                	sw	ra,12(sp)
 80084cc:	00001097          	auipc	ra,0x1
 80084d0:	0dc080e7          	jalr	220(ra) # 80095a8 <__cxa_allocate_exception>
 80084d4:	0800a7b7          	lui	a5,0x800a
 80084d8:	52c78793          	addi	a5,a5,1324 # 800a52c <_ZTVN9__gnu_cxx24__concurrence_lock_errorE+0x8>
 80084dc:	08008637          	lui	a2,0x8008
 80084e0:	0800a5b7          	lui	a1,0x800a
 80084e4:	c11c                	sw	a5,0(a0)
 80084e6:	44a60613          	addi	a2,a2,1098 # 800844a <_ZN9__gnu_cxx24__concurrence_lock_errorD1Ev>
 80084ea:	4e058593          	addi	a1,a1,1248 # 800a4e0 <_ZTIN9__gnu_cxx24__concurrence_lock_errorE>
 80084ee:	00000097          	auipc	ra,0x0
 80084f2:	2e8080e7          	jalr	744(ra) # 80087d6 <__cxa_throw>

080084f6 <_ZN10__cxxabiv111__terminateEPFvvE>:
 80084f6:	080087b7          	lui	a5,0x8008
 80084fa:	715d                	addi	sp,sp,-80
 80084fc:	ec878793          	addi	a5,a5,-312 # 8007ec8 <__gxx_personality_sj0>
 8008500:	d23e                	sw	a5,36(sp)
 8008502:	0800a7b7          	lui	a5,0x800a
 8008506:	98c78793          	addi	a5,a5,-1652 # 800998c <_GLOBAL__sub_I__ZSt7nothrow+0x18e>
 800850a:	d43e                	sw	a5,40(sp)
 800850c:	009c                	addi	a5,sp,64
 800850e:	d63e                	sw	a5,44(sp)
 8008510:	080087b7          	lui	a5,0x8008
 8008514:	872a                	mv	a4,a0
 8008516:	53e78793          	addi	a5,a5,1342 # 800853e <_ZN10__cxxabiv111__terminateEPFvvE+0x48>
 800851a:	0068                	addi	a0,sp,12
 800851c:	d83e                	sw	a5,48(sp)
 800851e:	c686                	sw	ra,76(sp)
 8008520:	c4a2                	sw	s0,72(sp)
 8008522:	da0a                	sw	sp,52(sp)
 8008524:	c23a                	sw	a4,4(sp)
 8008526:	ffffc097          	auipc	ra,0xffffc
 800852a:	dd2080e7          	jalr	-558(ra) # 80042f8 <_Unwind_SjLj_Register>
 800852e:	4785                	li	a5,1
 8008530:	c83e                	sw	a5,16(sp)
 8008532:	4792                	lw	a5,4(sp)
 8008534:	9782                	jalr	a5
 8008536:	ffff8097          	auipc	ra,0xffff8
 800853a:	c26080e7          	jalr	-986(ra) # 800015c <abort>
 800853e:	4752                	lw	a4,20(sp)
 8008540:	47c2                	lw	a5,16(sp)
 8008542:	c23a                	sw	a4,4(sp)
 8008544:	4762                	lw	a4,24(sp)
 8008546:	c43a                	sw	a4,8(sp)
 8008548:	ef81                	bnez	a5,8008560 <_ZN10__cxxabiv111__terminateEPFvvE+0x6a>
 800854a:	4512                	lw	a0,4(sp)
 800854c:	fffff097          	auipc	ra,0xfffff
 8008550:	4c2080e7          	jalr	1218(ra) # 8007a0e <__cxa_begin_catch>
 8008554:	4789                	li	a5,2
 8008556:	c83e                	sw	a5,16(sp)
 8008558:	ffff8097          	auipc	ra,0xffff8
 800855c:	c04080e7          	jalr	-1020(ra) # 800015c <abort>
 8008560:	17fd                	addi	a5,a5,-1
 8008562:	e38d                	bnez	a5,8008584 <_ZN10__cxxabiv111__terminateEPFvvE+0x8e>
 8008564:	c802                	sw	zero,16(sp)
 8008566:	fffff097          	auipc	ra,0xfffff
 800856a:	526080e7          	jalr	1318(ra) # 8007a8c <__cxa_end_catch>
 800856e:	4722                	lw	a4,8(sp)
 8008570:	57fd                	li	a5,-1
 8008572:	00f71a63          	bne	a4,a5,8008586 <_ZN10__cxxabiv111__terminateEPFvvE+0x90>
 8008576:	47a2                	lw	a5,8(sp)
 8008578:	4512                	lw	a0,4(sp)
 800857a:	c83e                	sw	a5,16(sp)
 800857c:	00000097          	auipc	ra,0x0
 8008580:	d7a080e7          	jalr	-646(ra) # 80082f6 <__cxa_call_unexpected>
 8008584:	9002                	ebreak
 8008586:	4512                	lw	a0,4(sp)
 8008588:	c83e                	sw	a5,16(sp)
 800858a:	ffffc097          	auipc	ra,0xffffc
 800858e:	ec2080e7          	jalr	-318(ra) # 800444c <_Unwind_SjLj_Resume>

08008592 <_ZSt13get_terminatev>:
 8008592:	080087b7          	lui	a5,0x8008
 8008596:	715d                	addi	sp,sp,-80
 8008598:	ec878793          	addi	a5,a5,-312 # 8007ec8 <__gxx_personality_sj0>
 800859c:	d23e                	sw	a5,36(sp)
 800859e:	0800a7b7          	lui	a5,0x800a
 80085a2:	9a478793          	addi	a5,a5,-1628 # 80099a4 <_GLOBAL__sub_I__ZSt7nothrow+0x1a6>
 80085a6:	d43e                	sw	a5,40(sp)
 80085a8:	009c                	addi	a5,sp,64
 80085aa:	d63e                	sw	a5,44(sp)
 80085ac:	080087b7          	lui	a5,0x8008
 80085b0:	64278793          	addi	a5,a5,1602 # 8008642 <_ZSt13get_terminatev+0xb0>
 80085b4:	0068                	addi	a0,sp,12
 80085b6:	c686                	sw	ra,76(sp)
 80085b8:	c4a2                	sw	s0,72(sp)
 80085ba:	d83e                	sw	a5,48(sp)
 80085bc:	da0a                	sw	sp,52(sp)
 80085be:	ffffc097          	auipc	ra,0xffffc
 80085c2:	d3a080e7          	jalr	-710(ra) # 80042f8 <_Unwind_SjLj_Register>
 80085c6:	200017b7          	lui	a5,0x20001
 80085ca:	97478513          	addi	a0,a5,-1676 # 20000974 <_ZN12_GLOBAL__N_12mxE>
 80085ce:	c802                	sw	zero,16(sp)
 80085d0:	fffff097          	auipc	ra,0xfffff
 80085d4:	840080e7          	jalr	-1984(ra) # 8006e10 <pthread_mutex_lock>
 80085d8:	e91d                	bnez	a0,800860e <_ZSt13get_terminatev+0x7c>
 80085da:	200017b7          	lui	a5,0x20001
 80085de:	8747a783          	lw	a5,-1932(a5) # 20000874 <_ZN10__cxxabiv119__terminate_handlerE>
 80085e2:	c43e                	sw	a5,8(sp)
 80085e4:	200017b7          	lui	a5,0x20001
 80085e8:	97478513          	addi	a0,a5,-1676 # 20000974 <_ZN12_GLOBAL__N_12mxE>
 80085ec:	4785                	li	a5,1
 80085ee:	c83e                	sw	a5,16(sp)
 80085f0:	fffff097          	auipc	ra,0xfffff
 80085f4:	908080e7          	jalr	-1784(ra) # 8006ef8 <pthread_mutex_unlock>
 80085f8:	ed19                	bnez	a0,8008616 <_ZSt13get_terminatev+0x84>
 80085fa:	0068                	addi	a0,sp,12
 80085fc:	ffffc097          	auipc	ra,0xffffc
 8008600:	d1e080e7          	jalr	-738(ra) # 800431a <_Unwind_SjLj_Unregister>
 8008604:	40b6                	lw	ra,76(sp)
 8008606:	4426                	lw	s0,72(sp)
 8008608:	4522                	lw	a0,8(sp)
 800860a:	6161                	addi	sp,sp,80
 800860c:	8082                	ret
 800860e:	00000097          	auipc	ra,0x0
 8008612:	eb8080e7          	jalr	-328(ra) # 80084c6 <_ZN9__gnu_cxx30__throw_concurrence_lock_errorEv>
 8008616:	4511                	li	a0,4
 8008618:	00001097          	auipc	ra,0x1
 800861c:	f90080e7          	jalr	-112(ra) # 80095a8 <__cxa_allocate_exception>
 8008620:	0800a7b7          	lui	a5,0x800a
 8008624:	54078793          	addi	a5,a5,1344 # 800a540 <_ZTVN9__gnu_cxx26__concurrence_unlock_errorE+0x8>
 8008628:	08008637          	lui	a2,0x8008
 800862c:	0800a5b7          	lui	a1,0x800a
 8008630:	c11c                	sw	a5,0(a0)
 8008632:	45c60613          	addi	a2,a2,1116 # 800845c <_ZN9__gnu_cxx26__concurrence_unlock_errorD1Ev>
 8008636:	51858593          	addi	a1,a1,1304 # 800a518 <_ZTIN9__gnu_cxx26__concurrence_unlock_errorE>
 800863a:	00000097          	auipc	ra,0x0
 800863e:	19c080e7          	jalr	412(ra) # 80087d6 <__cxa_throw>
 8008642:	47e2                	lw	a5,24(sp)
 8008644:	577d                	li	a4,-1
 8008646:	4552                	lw	a0,20(sp)
 8008648:	00e79763          	bne	a5,a4,8008656 <_ZSt13get_terminatev+0xc4>
 800864c:	c83e                	sw	a5,16(sp)
 800864e:	00000097          	auipc	ra,0x0
 8008652:	ca8080e7          	jalr	-856(ra) # 80082f6 <__cxa_call_unexpected>
 8008656:	c83a                	sw	a4,16(sp)
 8008658:	ffffc097          	auipc	ra,0xffffc
 800865c:	df4080e7          	jalr	-524(ra) # 800444c <_Unwind_SjLj_Resume>

08008660 <_ZSt9terminatev>:
 8008660:	1141                	addi	sp,sp,-16
 8008662:	c606                	sw	ra,12(sp)
 8008664:	00000097          	auipc	ra,0x0
 8008668:	f2e080e7          	jalr	-210(ra) # 8008592 <_ZSt13get_terminatev>
 800866c:	00000097          	auipc	ra,0x0
 8008670:	e8a080e7          	jalr	-374(ra) # 80084f6 <_ZN10__cxxabiv111__terminateEPFvvE>

08008674 <_ZN10__cxxabiv112__unexpectedEPFvvE>:
 8008674:	1141                	addi	sp,sp,-16
 8008676:	c606                	sw	ra,12(sp)
 8008678:	9502                	jalr	a0
 800867a:	00000097          	auipc	ra,0x0
 800867e:	fe6080e7          	jalr	-26(ra) # 8008660 <_ZSt9terminatev>

08008682 <_ZSt14get_unexpectedv>:
 8008682:	080087b7          	lui	a5,0x8008
 8008686:	715d                	addi	sp,sp,-80
 8008688:	ec878793          	addi	a5,a5,-312 # 8007ec8 <__gxx_personality_sj0>
 800868c:	d23e                	sw	a5,36(sp)
 800868e:	0800a7b7          	lui	a5,0x800a
 8008692:	9b478793          	addi	a5,a5,-1612 # 80099b4 <_GLOBAL__sub_I__ZSt7nothrow+0x1b6>
 8008696:	d43e                	sw	a5,40(sp)
 8008698:	009c                	addi	a5,sp,64
 800869a:	d63e                	sw	a5,44(sp)
 800869c:	080087b7          	lui	a5,0x8008
 80086a0:	73278793          	addi	a5,a5,1842 # 8008732 <_ZSt14get_unexpectedv+0xb0>
 80086a4:	0068                	addi	a0,sp,12
 80086a6:	c686                	sw	ra,76(sp)
 80086a8:	c4a2                	sw	s0,72(sp)
 80086aa:	d83e                	sw	a5,48(sp)
 80086ac:	da0a                	sw	sp,52(sp)
 80086ae:	ffffc097          	auipc	ra,0xffffc
 80086b2:	c4a080e7          	jalr	-950(ra) # 80042f8 <_Unwind_SjLj_Register>
 80086b6:	200017b7          	lui	a5,0x20001
 80086ba:	97478513          	addi	a0,a5,-1676 # 20000974 <_ZN12_GLOBAL__N_12mxE>
 80086be:	c802                	sw	zero,16(sp)
 80086c0:	ffffe097          	auipc	ra,0xffffe
 80086c4:	750080e7          	jalr	1872(ra) # 8006e10 <pthread_mutex_lock>
 80086c8:	e91d                	bnez	a0,80086fe <_ZSt14get_unexpectedv+0x7c>
 80086ca:	200017b7          	lui	a5,0x20001
 80086ce:	8707a783          	lw	a5,-1936(a5) # 20000870 <_ZN10__cxxabiv120__unexpected_handlerE>
 80086d2:	c43e                	sw	a5,8(sp)
 80086d4:	200017b7          	lui	a5,0x20001
 80086d8:	97478513          	addi	a0,a5,-1676 # 20000974 <_ZN12_GLOBAL__N_12mxE>
 80086dc:	4785                	li	a5,1
 80086de:	c83e                	sw	a5,16(sp)
 80086e0:	fffff097          	auipc	ra,0xfffff
 80086e4:	818080e7          	jalr	-2024(ra) # 8006ef8 <pthread_mutex_unlock>
 80086e8:	ed19                	bnez	a0,8008706 <_ZSt14get_unexpectedv+0x84>
 80086ea:	0068                	addi	a0,sp,12
 80086ec:	ffffc097          	auipc	ra,0xffffc
 80086f0:	c2e080e7          	jalr	-978(ra) # 800431a <_Unwind_SjLj_Unregister>
 80086f4:	40b6                	lw	ra,76(sp)
 80086f6:	4426                	lw	s0,72(sp)
 80086f8:	4522                	lw	a0,8(sp)
 80086fa:	6161                	addi	sp,sp,80
 80086fc:	8082                	ret
 80086fe:	00000097          	auipc	ra,0x0
 8008702:	dc8080e7          	jalr	-568(ra) # 80084c6 <_ZN9__gnu_cxx30__throw_concurrence_lock_errorEv>
 8008706:	4511                	li	a0,4
 8008708:	00001097          	auipc	ra,0x1
 800870c:	ea0080e7          	jalr	-352(ra) # 80095a8 <__cxa_allocate_exception>
 8008710:	0800a7b7          	lui	a5,0x800a
 8008714:	54078793          	addi	a5,a5,1344 # 800a540 <_ZTVN9__gnu_cxx26__concurrence_unlock_errorE+0x8>
 8008718:	08008637          	lui	a2,0x8008
 800871c:	0800a5b7          	lui	a1,0x800a
 8008720:	c11c                	sw	a5,0(a0)
 8008722:	45c60613          	addi	a2,a2,1116 # 800845c <_ZN9__gnu_cxx26__concurrence_unlock_errorD1Ev>
 8008726:	51858593          	addi	a1,a1,1304 # 800a518 <_ZTIN9__gnu_cxx26__concurrence_unlock_errorE>
 800872a:	00000097          	auipc	ra,0x0
 800872e:	0ac080e7          	jalr	172(ra) # 80087d6 <__cxa_throw>
 8008732:	47e2                	lw	a5,24(sp)
 8008734:	577d                	li	a4,-1
 8008736:	4552                	lw	a0,20(sp)
 8008738:	00e79763          	bne	a5,a4,8008746 <_ZSt14get_unexpectedv+0xc4>
 800873c:	c83e                	sw	a5,16(sp)
 800873e:	00000097          	auipc	ra,0x0
 8008742:	bb8080e7          	jalr	-1096(ra) # 80082f6 <__cxa_call_unexpected>
 8008746:	c83a                	sw	a4,16(sp)
 8008748:	ffffc097          	auipc	ra,0xffffc
 800874c:	d04080e7          	jalr	-764(ra) # 800444c <_Unwind_SjLj_Resume>

08008750 <_ZSt10unexpectedv>:
 8008750:	1141                	addi	sp,sp,-16
 8008752:	c606                	sw	ra,12(sp)
 8008754:	00000097          	auipc	ra,0x0
 8008758:	f2e080e7          	jalr	-210(ra) # 8008682 <_ZSt14get_unexpectedv>
 800875c:	00000097          	auipc	ra,0x0
 8008760:	f18080e7          	jalr	-232(ra) # 8008674 <_ZN10__cxxabiv112__unexpectedEPFvvE>

08008764 <_GLOBAL__sub_I__ZN10__cxxabiv111__terminateEPFvvE>:
 8008764:	200017b7          	lui	a5,0x20001
 8008768:	97478793          	addi	a5,a5,-1676 # 20000974 <_ZN12_GLOBAL__N_12mxE>
 800876c:	577d                	li	a4,-1
 800876e:	0007a023          	sw	zero,0(a5)
 8008772:	0007a223          	sw	zero,4(a5)
 8008776:	0007a423          	sw	zero,8(a5)
 800877a:	c7d8                	sw	a4,12(a5)
 800877c:	8082                	ret

0800877e <_ZL23__gxx_exception_cleanup19_Unwind_Reason_CodeP17_Unwind_Exception>:
 800877e:	1141                	addi	sp,sp,-16
 8008780:	c422                	sw	s0,8(sp)
 8008782:	c226                	sw	s1,4(sp)
 8008784:	c606                	sw	ra,12(sp)
 8008786:	4485                	li	s1,1
 8008788:	842e                	mv	s0,a1
 800878a:	04a4e063          	bltu	s1,a0,80087ca <_ZL23__gxx_exception_cleanup19_Unwind_Reason_CodeP17_Unwind_Exception+0x4c>
 800878e:	55fd                	li	a1,-1
 8008790:	fc040513          	addi	a0,s0,-64
 8008794:	00001097          	auipc	ra,0x1
 8008798:	9e4080e7          	jalr	-1564(ra) # 8009178 <_ZN9__gnu_cxx18__exchange_and_addEPVii>
 800879c:	00950763          	beq	a0,s1,80087aa <_ZL23__gxx_exception_cleanup19_Unwind_Reason_CodeP17_Unwind_Exception+0x2c>
 80087a0:	40b2                	lw	ra,12(sp)
 80087a2:	4422                	lw	s0,8(sp)
 80087a4:	4492                	lw	s1,4(sp)
 80087a6:	0141                	addi	sp,sp,16
 80087a8:	8082                	ret
 80087aa:	fd442783          	lw	a5,-44(s0)
 80087ae:	02040413          	addi	s0,s0,32
 80087b2:	c399                	beqz	a5,80087b8 <_ZL23__gxx_exception_cleanup19_Unwind_Reason_CodeP17_Unwind_Exception+0x3a>
 80087b4:	8522                	mv	a0,s0
 80087b6:	9782                	jalr	a5
 80087b8:	8522                	mv	a0,s0
 80087ba:	4422                	lw	s0,8(sp)
 80087bc:	40b2                	lw	ra,12(sp)
 80087be:	4492                	lw	s1,4(sp)
 80087c0:	0141                	addi	sp,sp,16
 80087c2:	00001317          	auipc	t1,0x1
 80087c6:	e5e30067          	jr	-418(t1) # 8009620 <__cxa_free_exception>
 80087ca:	fdc5a503          	lw	a0,-36(a1)
 80087ce:	00000097          	auipc	ra,0x0
 80087d2:	d28080e7          	jalr	-728(ra) # 80084f6 <_ZN10__cxxabiv111__terminateEPFvvE>

080087d6 <__cxa_throw>:
 80087d6:	1101                	addi	sp,sp,-32
 80087d8:	ce06                	sw	ra,28(sp)
 80087da:	cc22                	sw	s0,24(sp)
 80087dc:	ca26                	sw	s1,20(sp)
 80087de:	842a                	mv	s0,a0
 80087e0:	84b2                	mv	s1,a2
 80087e2:	c84a                	sw	s2,16(sp)
 80087e4:	c64e                	sw	s3,12(sp)
 80087e6:	892e                	mv	s2,a1
 80087e8:	ffffd097          	auipc	ra,0xffffd
 80087ec:	4b4080e7          	jalr	1204(ra) # 8005c9c <__cxa_get_globals>
 80087f0:	415c                	lw	a5,4(a0)
 80087f2:	fe040993          	addi	s3,s0,-32
 80087f6:	0785                	addi	a5,a5,1
 80087f8:	c15c                	sw	a5,4(a0)
 80087fa:	fa042023          	sw	zero,-96(s0)
 80087fe:	fb242823          	sw	s2,-80(s0)
 8008802:	fa942a23          	sw	s1,-76(s0)
 8008806:	00000097          	auipc	ra,0x0
 800880a:	e7c080e7          	jalr	-388(ra) # 8008682 <_ZSt14get_unexpectedv>
 800880e:	faa42c23          	sw	a0,-72(s0)
 8008812:	00000097          	auipc	ra,0x0
 8008816:	d80080e7          	jalr	-640(ra) # 8008592 <_ZSt13get_terminatev>
 800881a:	200017b7          	lui	a5,0x20001
 800881e:	bb07a703          	lw	a4,-1104(a5) # 20000bb0 <_bss_end+0x8>
 8008822:	bb47a783          	lw	a5,-1100(a5)
 8008826:	faa42e23          	sw	a0,-68(s0)
 800882a:	fee42023          	sw	a4,-32(s0)
 800882e:	fef42223          	sw	a5,-28(s0)
 8008832:	080087b7          	lui	a5,0x8008
 8008836:	77e78793          	addi	a5,a5,1918 # 800877e <_ZL23__gxx_exception_cleanup19_Unwind_Reason_CodeP17_Unwind_Exception>
 800883a:	fef42423          	sw	a5,-24(s0)
 800883e:	4785                	li	a5,1
 8008840:	faf42023          	sw	a5,-96(s0)
 8008844:	854e                	mv	a0,s3
 8008846:	ffffc097          	auipc	ra,0xffffc
 800884a:	b36080e7          	jalr	-1226(ra) # 800437c <_Unwind_SjLj_RaiseException>
 800884e:	854e                	mv	a0,s3
 8008850:	fffff097          	auipc	ra,0xfffff
 8008854:	1be080e7          	jalr	446(ra) # 8007a0e <__cxa_begin_catch>
 8008858:	00000097          	auipc	ra,0x0
 800885c:	e08080e7          	jalr	-504(ra) # 8008660 <_ZSt9terminatev>

08008860 <__cxa_rethrow>:
 8008860:	1141                	addi	sp,sp,-16
 8008862:	c606                	sw	ra,12(sp)
 8008864:	c422                	sw	s0,8(sp)
 8008866:	ffffd097          	auipc	ra,0xffffd
 800886a:	436080e7          	jalr	1078(ra) # 8005c9c <__cxa_get_globals>
 800886e:	4158                	lw	a4,4(a0)
 8008870:	411c                	lw	a5,0(a0)
 8008872:	0705                	addi	a4,a4,1
 8008874:	c158                	sw	a4,4(a0)
 8008876:	cf8d                	beqz	a5,80088b0 <__cxa_rethrow+0x50>
 8008878:	200015b7          	lui	a1,0x20001
 800887c:	5b98                	lw	a4,48(a5)
 800887e:	ba85a683          	lw	a3,-1112(a1) # 20000ba8 <_bss_end>
 8008882:	5bd0                	lw	a2,52(a5)
 8008884:	bac5a583          	lw	a1,-1108(a1)
 8008888:	96ba                	add	a3,a3,a4
 800888a:	00e6b733          	sltu	a4,a3,a4
 800888e:	962e                	add	a2,a2,a1
 8008890:	9732                	add	a4,a4,a2
 8008892:	c31d                	beqz	a4,80088b8 <__cxa_rethrow+0x58>
 8008894:	00052023          	sw	zero,0(a0)
 8008898:	03078413          	addi	s0,a5,48
 800889c:	8522                	mv	a0,s0
 800889e:	ffffc097          	auipc	ra,0xffffc
 80088a2:	bf8080e7          	jalr	-1032(ra) # 8004496 <_Unwind_SjLj_Resume_or_Rethrow>
 80088a6:	8522                	mv	a0,s0
 80088a8:	fffff097          	auipc	ra,0xfffff
 80088ac:	166080e7          	jalr	358(ra) # 8007a0e <__cxa_begin_catch>
 80088b0:	00000097          	auipc	ra,0x0
 80088b4:	db0080e7          	jalr	-592(ra) # 8008660 <_ZSt9terminatev>
 80088b8:	4705                	li	a4,1
 80088ba:	fcd76de3          	bltu	a4,a3,8008894 <__cxa_rethrow+0x34>
 80088be:	4bd8                	lw	a4,20(a5)
 80088c0:	40e00733          	neg	a4,a4
 80088c4:	cbd8                	sw	a4,20(a5)
 80088c6:	bfc9                	j	8008898 <__cxa_rethrow+0x38>

080088c8 <_Znwj>:
 80088c8:	1141                	addi	sp,sp,-16
 80088ca:	c422                	sw	s0,8(sp)
 80088cc:	c606                	sw	ra,12(sp)
 80088ce:	842a                	mv	s0,a0
 80088d0:	e111                	bnez	a0,80088d4 <_Znwj+0xc>
 80088d2:	4405                	li	s0,1
 80088d4:	8522                	mv	a0,s0
 80088d6:	ffff8097          	auipc	ra,0xffff8
 80088da:	0b0080e7          	jalr	176(ra) # 8000986 <malloc>
 80088de:	c509                	beqz	a0,80088e8 <_Znwj+0x20>
 80088e0:	40b2                	lw	ra,12(sp)
 80088e2:	4422                	lw	s0,8(sp)
 80088e4:	0141                	addi	sp,sp,16
 80088e6:	8082                	ret
 80088e8:	00001097          	auipc	ra,0x1
 80088ec:	e48080e7          	jalr	-440(ra) # 8009730 <_ZSt15get_new_handlerv>
 80088f0:	c119                	beqz	a0,80088f6 <_Znwj+0x2e>
 80088f2:	9502                	jalr	a0
 80088f4:	b7c5                	j	80088d4 <_Znwj+0xc>
 80088f6:	4511                	li	a0,4
 80088f8:	00001097          	auipc	ra,0x1
 80088fc:	cb0080e7          	jalr	-848(ra) # 80095a8 <__cxa_allocate_exception>
 8008900:	0800a7b7          	lui	a5,0x800a
 8008904:	66c78793          	addi	a5,a5,1644 # 800a66c <_ZTVSt9bad_alloc+0x8>
 8008908:	08009637          	lui	a2,0x8009
 800890c:	0800a5b7          	lui	a1,0x800a
 8008910:	c11c                	sw	a5,0(a0)
 8008912:	2e060613          	addi	a2,a2,736 # 80092e0 <_ZNSt9bad_allocD1Ev>
 8008916:	65858593          	addi	a1,a1,1624 # 800a658 <_ZTISt9bad_alloc>
 800891a:	00000097          	auipc	ra,0x0
 800891e:	ebc080e7          	jalr	-324(ra) # 80087d6 <__cxa_throw>

08008922 <__cxa_pure_virtual>:
 8008922:	0800a5b7          	lui	a1,0x800a
 8008926:	1141                	addi	sp,sp,-16
 8008928:	466d                	li	a2,27
 800892a:	54c58593          	addi	a1,a1,1356 # 800a54c <_ZTVN9__gnu_cxx26__concurrence_unlock_errorE+0x14>
 800892e:	4509                	li	a0,2
 8008930:	c606                	sw	ra,12(sp)
 8008932:	ffffd097          	auipc	ra,0xffffd
 8008936:	c24080e7          	jalr	-988(ra) # 8005556 <write>
 800893a:	00000097          	auipc	ra,0x0
 800893e:	d26080e7          	jalr	-730(ra) # 8008660 <_ZSt9terminatev>

08008942 <_ZN10__cxxabiv120__si_class_type_infoD1Ev>:
 8008942:	0800a7b7          	lui	a5,0x800a
 8008946:	5a478793          	addi	a5,a5,1444 # 800a5a4 <_ZTVN10__cxxabiv120__si_class_type_infoE+0x8>
 800894a:	c11c                	sw	a5,0(a0)
 800894c:	fffff317          	auipc	t1,0xfffff
 8008950:	f1a30067          	jr	-230(t1) # 8007866 <_ZN10__cxxabiv117__class_type_infoD1Ev>

08008954 <_ZN10__cxxabiv120__si_class_type_infoD0Ev>:
 8008954:	1141                	addi	sp,sp,-16
 8008956:	0800a7b7          	lui	a5,0x800a
 800895a:	c422                	sw	s0,8(sp)
 800895c:	c606                	sw	ra,12(sp)
 800895e:	5a478793          	addi	a5,a5,1444 # 800a5a4 <_ZTVN10__cxxabiv120__si_class_type_infoE+0x8>
 8008962:	c11c                	sw	a5,0(a0)
 8008964:	842a                	mv	s0,a0
 8008966:	fffff097          	auipc	ra,0xfffff
 800896a:	f00080e7          	jalr	-256(ra) # 8007866 <_ZN10__cxxabiv117__class_type_infoD1Ev>
 800896e:	8522                	mv	a0,s0
 8008970:	4422                	lw	s0,8(sp)
 8008972:	40b2                	lw	ra,12(sp)
 8008974:	45b1                	li	a1,12
 8008976:	0141                	addi	sp,sp,16
 8008978:	fffff317          	auipc	t1,0xfffff
 800897c:	08630067          	jr	134(t1) # 80079fe <_ZdlPvj>

08008980 <_ZNK10__cxxabiv120__si_class_type_info20__do_find_public_srcEiPKvPKNS_17__class_type_infoES2_>:
 8008980:	1101                	addi	sp,sp,-32
 8008982:	cc22                	sw	s0,24(sp)
 8008984:	ca26                	sw	s1,20(sp)
 8008986:	ce06                	sw	ra,28(sp)
 8008988:	842a                	mv	s0,a0
 800898a:	84ae                	mv	s1,a1
 800898c:	00c70c63          	beq	a4,a2,80089a4 <_ZNK10__cxxabiv120__si_class_type_info20__do_find_public_srcEiPKvPKNS_17__class_type_infoES2_+0x24>
 8008990:	4408                	lw	a0,8(s0)
 8008992:	4462                	lw	s0,24(sp)
 8008994:	40f2                	lw	ra,28(sp)
 8008996:	411c                	lw	a5,0(a0)
 8008998:	85a6                	mv	a1,s1
 800899a:	44d2                	lw	s1,20(sp)
 800899c:	0207a303          	lw	t1,32(a5)
 80089a0:	6105                	addi	sp,sp,32
 80089a2:	8302                	jr	t1
 80089a4:	4148                	lw	a0,4(a0)
 80089a6:	42cc                	lw	a1,4(a3)
 80089a8:	02b50363          	beq	a0,a1,80089ce <_ZNK10__cxxabiv120__si_class_type_info20__do_find_public_srcEiPKvPKNS_17__class_type_infoES2_+0x4e>
 80089ac:	00054803          	lbu	a6,0(a0)
 80089b0:	02a00793          	li	a5,42
 80089b4:	fcf80ee3          	beq	a6,a5,8008990 <_ZNK10__cxxabiv120__si_class_type_info20__do_find_public_srcEiPKvPKNS_17__class_type_infoES2_+0x10>
 80089b8:	c63a                	sw	a4,12(sp)
 80089ba:	c436                	sw	a3,8(sp)
 80089bc:	c232                	sw	a2,4(sp)
 80089be:	ffff9097          	auipc	ra,0xffff9
 80089c2:	baa080e7          	jalr	-1110(ra) # 8001568 <strcmp>
 80089c6:	4612                	lw	a2,4(sp)
 80089c8:	46a2                	lw	a3,8(sp)
 80089ca:	4732                	lw	a4,12(sp)
 80089cc:	f171                	bnez	a0,8008990 <_ZNK10__cxxabiv120__si_class_type_info20__do_find_public_srcEiPKvPKNS_17__class_type_infoES2_+0x10>
 80089ce:	40f2                	lw	ra,28(sp)
 80089d0:	4462                	lw	s0,24(sp)
 80089d2:	44d2                	lw	s1,20(sp)
 80089d4:	4519                	li	a0,6
 80089d6:	6105                	addi	sp,sp,32
 80089d8:	8082                	ret

080089da <_ZNK10__cxxabiv120__si_class_type_info12__do_dyncastEiNS_17__class_type_info10__sub_kindEPKS1_PKvS4_S6_RNS1_16__dyncast_resultE>:
 80089da:	7179                	addi	sp,sp,-48
 80089dc:	ce4e                	sw	s3,28(sp)
 80089de:	c85a                	sw	s6,16(sp)
 80089e0:	89aa                	mv	s3,a0
 80089e2:	00452b03          	lw	s6,4(a0)
 80089e6:	42c8                	lw	a0,4(a3)
 80089e8:	d422                	sw	s0,40(sp)
 80089ea:	d226                	sw	s1,36(sp)
 80089ec:	d04a                	sw	s2,32(sp)
 80089ee:	cc52                	sw	s4,24(sp)
 80089f0:	c65e                	sw	s7,12(sp)
 80089f2:	d606                	sw	ra,44(sp)
 80089f4:	ca56                	sw	s5,20(sp)
 80089f6:	c462                	sw	s8,8(sp)
 80089f8:	c266                	sw	s9,4(sp)
 80089fa:	892e                	mv	s2,a1
 80089fc:	8bb2                	mv	s7,a2
 80089fe:	843a                	mv	s0,a4
 8008a00:	8a42                	mv	s4,a6
 8008a02:	84c6                	mv	s1,a7
 8008a04:	04ab0c63          	beq	s6,a0,8008a5c <_ZNK10__cxxabiv120__si_class_type_info12__do_dyncastEiNS_17__class_type_info10__sub_kindEPKS1_PKvS4_S6_RNS1_16__dyncast_resultE+0x82>
 8008a08:	000b4c83          	lbu	s9,0(s6)
 8008a0c:	8abe                	mv	s5,a5
 8008a0e:	02a00793          	li	a5,42
 8008a12:	8c36                	mv	s8,a3
 8008a14:	00fc8963          	beq	s9,a5,8008a26 <_ZNK10__cxxabiv120__si_class_type_info12__do_dyncastEiNS_17__class_type_info10__sub_kindEPKS1_PKvS4_S6_RNS1_16__dyncast_resultE+0x4c>
 8008a18:	85aa                	mv	a1,a0
 8008a1a:	855a                	mv	a0,s6
 8008a1c:	ffff9097          	auipc	ra,0xffff9
 8008a20:	b4c080e7          	jalr	-1204(ra) # 8001568 <strcmp>
 8008a24:	cd05                	beqz	a0,8008a5c <_ZNK10__cxxabiv120__si_class_type_info12__do_dyncastEiNS_17__class_type_info10__sub_kindEPKS1_PKvS4_S6_RNS1_16__dyncast_resultE+0x82>
 8008a26:	07440963          	beq	s0,s4,8008a98 <_ZNK10__cxxabiv120__si_class_type_info12__do_dyncastEiNS_17__class_type_info10__sub_kindEPKS1_PKvS4_S6_RNS1_16__dyncast_resultE+0xbe>
 8008a2a:	0089a503          	lw	a0,8(s3)
 8008a2e:	8722                	mv	a4,s0
 8008a30:	5422                	lw	s0,40(sp)
 8008a32:	4114                	lw	a3,0(a0)
 8008a34:	50b2                	lw	ra,44(sp)
 8008a36:	49f2                	lw	s3,28(sp)
 8008a38:	01c6a303          	lw	t1,28(a3)
 8008a3c:	4b42                	lw	s6,16(sp)
 8008a3e:	4c92                	lw	s9,4(sp)
 8008a40:	88a6                	mv	a7,s1
 8008a42:	8852                	mv	a6,s4
 8008a44:	5492                	lw	s1,36(sp)
 8008a46:	4a62                	lw	s4,24(sp)
 8008a48:	87d6                	mv	a5,s5
 8008a4a:	86e2                	mv	a3,s8
 8008a4c:	4ad2                	lw	s5,20(sp)
 8008a4e:	4c22                	lw	s8,8(sp)
 8008a50:	865e                	mv	a2,s7
 8008a52:	85ca                	mv	a1,s2
 8008a54:	4bb2                	lw	s7,12(sp)
 8008a56:	5902                	lw	s2,32(sp)
 8008a58:	6145                	addi	sp,sp,48
 8008a5a:	8302                	jr	t1
 8008a5c:	c080                	sw	s0,0(s1)
 8008a5e:	0174a223          	sw	s7,4(s1)
 8008a62:	02094763          	bltz	s2,8008a90 <_ZNK10__cxxabiv120__si_class_type_info12__do_dyncastEiNS_17__class_type_info10__sub_kindEPKS1_PKvS4_S6_RNS1_16__dyncast_resultE+0xb6>
 8008a66:	012405b3          	add	a1,s0,s2
 8008a6a:	4799                	li	a5,6
 8008a6c:	00ba0363          	beq	s4,a1,8008a72 <_ZNK10__cxxabiv120__si_class_type_info12__do_dyncastEiNS_17__class_type_info10__sub_kindEPKS1_PKvS4_S6_RNS1_16__dyncast_resultE+0x98>
 8008a70:	4785                	li	a5,1
 8008a72:	c4dc                	sw	a5,12(s1)
 8008a74:	50b2                	lw	ra,44(sp)
 8008a76:	5422                	lw	s0,40(sp)
 8008a78:	5492                	lw	s1,36(sp)
 8008a7a:	5902                	lw	s2,32(sp)
 8008a7c:	49f2                	lw	s3,28(sp)
 8008a7e:	4a62                	lw	s4,24(sp)
 8008a80:	4ad2                	lw	s5,20(sp)
 8008a82:	4b42                	lw	s6,16(sp)
 8008a84:	4bb2                	lw	s7,12(sp)
 8008a86:	4c22                	lw	s8,8(sp)
 8008a88:	4c92                	lw	s9,4(sp)
 8008a8a:	4501                	li	a0,0
 8008a8c:	6145                	addi	sp,sp,48
 8008a8e:	8082                	ret
 8008a90:	57f9                	li	a5,-2
 8008a92:	fef911e3          	bne	s2,a5,8008a74 <_ZNK10__cxxabiv120__si_class_type_info12__do_dyncastEiNS_17__class_type_info10__sub_kindEPKS1_PKvS4_S6_RNS1_16__dyncast_resultE+0x9a>
 8008a96:	bfe9                	j	8008a70 <_ZNK10__cxxabiv120__si_class_type_info12__do_dyncastEiNS_17__class_type_info10__sub_kindEPKS1_PKvS4_S6_RNS1_16__dyncast_resultE+0x96>
 8008a98:	004aa583          	lw	a1,4(s5)
 8008a9c:	00bb0c63          	beq	s6,a1,8008ab4 <_ZNK10__cxxabiv120__si_class_type_info12__do_dyncastEiNS_17__class_type_info10__sub_kindEPKS1_PKvS4_S6_RNS1_16__dyncast_resultE+0xda>
 8008aa0:	02a00793          	li	a5,42
 8008aa4:	f8fc83e3          	beq	s9,a5,8008a2a <_ZNK10__cxxabiv120__si_class_type_info12__do_dyncastEiNS_17__class_type_info10__sub_kindEPKS1_PKvS4_S6_RNS1_16__dyncast_resultE+0x50>
 8008aa8:	855a                	mv	a0,s6
 8008aaa:	ffff9097          	auipc	ra,0xffff9
 8008aae:	abe080e7          	jalr	-1346(ra) # 8001568 <strcmp>
 8008ab2:	fd25                	bnez	a0,8008a2a <_ZNK10__cxxabiv120__si_class_type_info12__do_dyncastEiNS_17__class_type_info10__sub_kindEPKS1_PKvS4_S6_RNS1_16__dyncast_resultE+0x50>
 8008ab4:	0174a423          	sw	s7,8(s1)
 8008ab8:	bf75                	j	8008a74 <_ZNK10__cxxabiv120__si_class_type_info12__do_dyncastEiNS_17__class_type_info10__sub_kindEPKS1_PKvS4_S6_RNS1_16__dyncast_resultE+0x9a>

08008aba <_ZNK10__cxxabiv120__si_class_type_info11__do_upcastEPKNS_17__class_type_infoEPKvRNS1_15__upcast_resultE>:
 8008aba:	1101                	addi	sp,sp,-32
 8008abc:	cc22                	sw	s0,24(sp)
 8008abe:	ca26                	sw	s1,20(sp)
 8008ac0:	c84a                	sw	s2,16(sp)
 8008ac2:	c64e                	sw	s3,12(sp)
 8008ac4:	ce06                	sw	ra,28(sp)
 8008ac6:	89aa                	mv	s3,a0
 8008ac8:	842e                	mv	s0,a1
 8008aca:	84b2                	mv	s1,a2
 8008acc:	8936                	mv	s2,a3
 8008ace:	fffff097          	auipc	ra,0xfffff
 8008ad2:	e6e080e7          	jalr	-402(ra) # 800793c <_ZNK10__cxxabiv117__class_type_info11__do_upcastEPKS0_PKvRNS0_15__upcast_resultE>
 8008ad6:	e105                	bnez	a0,8008af6 <_ZNK10__cxxabiv120__si_class_type_info11__do_upcastEPKNS_17__class_type_infoEPKvRNS1_15__upcast_resultE+0x3c>
 8008ad8:	0089a503          	lw	a0,8(s3)
 8008adc:	85a2                	mv	a1,s0
 8008ade:	4462                	lw	s0,24(sp)
 8008ae0:	411c                	lw	a5,0(a0)
 8008ae2:	40f2                	lw	ra,28(sp)
 8008ae4:	49b2                	lw	s3,12(sp)
 8008ae6:	0187a303          	lw	t1,24(a5)
 8008aea:	86ca                	mv	a3,s2
 8008aec:	8626                	mv	a2,s1
 8008aee:	4942                	lw	s2,16(sp)
 8008af0:	44d2                	lw	s1,20(sp)
 8008af2:	6105                	addi	sp,sp,32
 8008af4:	8302                	jr	t1
 8008af6:	40f2                	lw	ra,28(sp)
 8008af8:	4462                	lw	s0,24(sp)
 8008afa:	44d2                	lw	s1,20(sp)
 8008afc:	4942                	lw	s2,16(sp)
 8008afe:	49b2                	lw	s3,12(sp)
 8008b00:	6105                	addi	sp,sp,32
 8008b02:	8082                	ret

08008b04 <_ZNSt9type_infoD1Ev>:
 8008b04:	8082                	ret

08008b06 <_ZNKSt9type_info14__is_pointer_pEv>:
 8008b06:	4501                	li	a0,0
 8008b08:	8082                	ret

08008b0a <_ZN10__cxxabiv121__vmi_class_type_infoD1Ev>:
 8008b0a:	0800a7b7          	lui	a5,0x800a
 8008b0e:	61478793          	addi	a5,a5,1556 # 800a614 <_ZTVN10__cxxabiv121__vmi_class_type_infoE+0x8>
 8008b12:	c11c                	sw	a5,0(a0)
 8008b14:	fffff317          	auipc	t1,0xfffff
 8008b18:	d5230067          	jr	-686(t1) # 8007866 <_ZN10__cxxabiv117__class_type_infoD1Ev>

08008b1c <_ZN10__cxxabiv121__vmi_class_type_infoD0Ev>:
 8008b1c:	1141                	addi	sp,sp,-16
 8008b1e:	0800a7b7          	lui	a5,0x800a
 8008b22:	c422                	sw	s0,8(sp)
 8008b24:	c606                	sw	ra,12(sp)
 8008b26:	61478793          	addi	a5,a5,1556 # 800a614 <_ZTVN10__cxxabiv121__vmi_class_type_infoE+0x8>
 8008b2a:	c11c                	sw	a5,0(a0)
 8008b2c:	842a                	mv	s0,a0
 8008b2e:	fffff097          	auipc	ra,0xfffff
 8008b32:	d38080e7          	jalr	-712(ra) # 8007866 <_ZN10__cxxabiv117__class_type_infoD1Ev>
 8008b36:	8522                	mv	a0,s0
 8008b38:	4422                	lw	s0,8(sp)
 8008b3a:	40b2                	lw	ra,12(sp)
 8008b3c:	45e1                	li	a1,24
 8008b3e:	0141                	addi	sp,sp,16
 8008b40:	fffff317          	auipc	t1,0xfffff
 8008b44:	ebe30067          	jr	-322(t1) # 80079fe <_ZdlPvj>

08008b48 <_ZNK10__cxxabiv121__vmi_class_type_info20__do_find_public_srcEiPKvPKNS_17__class_type_infoES2_>:
 8008b48:	7179                	addi	sp,sp,-48
 8008b4a:	d422                	sw	s0,40(sp)
 8008b4c:	c65e                	sw	s7,12(sp)
 8008b4e:	c462                	sw	s8,8(sp)
 8008b50:	c266                	sw	s9,4(sp)
 8008b52:	c06a                	sw	s10,0(sp)
 8008b54:	d606                	sw	ra,44(sp)
 8008b56:	d226                	sw	s1,36(sp)
 8008b58:	d04a                	sw	s2,32(sp)
 8008b5a:	ce4e                	sw	s3,28(sp)
 8008b5c:	cc52                	sw	s4,24(sp)
 8008b5e:	ca56                	sw	s5,20(sp)
 8008b60:	c85a                	sw	s6,16(sp)
 8008b62:	8d32                	mv	s10,a2
 8008b64:	8c3a                	mv	s8,a4
 8008b66:	842a                	mv	s0,a0
 8008b68:	8bae                	mv	s7,a1
 8008b6a:	8cb6                	mv	s9,a3
 8008b6c:	06e60f63          	beq	a2,a4,8008bea <_ZNK10__cxxabiv121__vmi_class_type_info20__do_find_public_srcEiPKvPKNS_17__class_type_infoES2_+0xa2>
 8008b70:	445c                	lw	a5,12(s0)
 8008b72:	fff78493          	addi	s1,a5,-1
 8008b76:	c7a9                	beqz	a5,8008bc0 <_ZNK10__cxxabiv121__vmi_class_type_info20__do_find_public_srcEiPKvPKNS_17__class_type_infoES2_+0x78>
 8008b78:	078e                	slli	a5,a5,0x3
 8008b7a:	943e                	add	s0,s0,a5
 8008b7c:	4a8d                	li	s5,3
 8008b7e:	5b75                	li	s6,-3
 8008b80:	5a7d                	li	s4,-1
 8008b82:	445c                	lw	a5,12(s0)
 8008b84:	8762                	mv	a4,s8
 8008b86:	86e6                	mv	a3,s9
 8008b88:	0027f513          	andi	a0,a5,2
 8008b8c:	85de                	mv	a1,s7
 8008b8e:	14fd                	addi	s1,s1,-1
 8008b90:	0017f993          	andi	s3,a5,1
 8008b94:	c11d                	beqz	a0,8008bba <_ZNK10__cxxabiv121__vmi_class_type_info20__do_find_public_srcEiPKvPKNS_17__class_type_infoES2_+0x72>
 8008b96:	87a1                	srai	a5,a5,0x8
 8008b98:	00098863          	beqz	s3,8008ba8 <_ZNK10__cxxabiv121__vmi_class_type_info20__do_find_public_srcEiPKvPKNS_17__class_type_infoES2_+0x60>
 8008b9c:	016b8f63          	beq	s7,s6,8008bba <_ZNK10__cxxabiv121__vmi_class_type_info20__do_find_public_srcEiPKvPKNS_17__class_type_infoES2_+0x72>
 8008ba0:	000d2603          	lw	a2,0(s10)
 8008ba4:	97b2                	add	a5,a5,a2
 8008ba6:	439c                	lw	a5,0(a5)
 8008ba8:	4408                	lw	a0,8(s0)
 8008baa:	00fd0633          	add	a2,s10,a5
 8008bae:	411c                	lw	a5,0(a0)
 8008bb0:	539c                	lw	a5,32(a5)
 8008bb2:	9782                	jalr	a5
 8008bb4:	892a                	mv	s2,a0
 8008bb6:	02aac563          	blt	s5,a0,8008be0 <_ZNK10__cxxabiv121__vmi_class_type_info20__do_find_public_srcEiPKvPKNS_17__class_type_infoES2_+0x98>
 8008bba:	1461                	addi	s0,s0,-8
 8008bbc:	fd4493e3          	bne	s1,s4,8008b82 <_ZNK10__cxxabiv121__vmi_class_type_info20__do_find_public_srcEiPKvPKNS_17__class_type_infoES2_+0x3a>
 8008bc0:	4905                	li	s2,1
 8008bc2:	50b2                	lw	ra,44(sp)
 8008bc4:	5422                	lw	s0,40(sp)
 8008bc6:	5492                	lw	s1,36(sp)
 8008bc8:	49f2                	lw	s3,28(sp)
 8008bca:	4a62                	lw	s4,24(sp)
 8008bcc:	4ad2                	lw	s5,20(sp)
 8008bce:	4b42                	lw	s6,16(sp)
 8008bd0:	4bb2                	lw	s7,12(sp)
 8008bd2:	4c22                	lw	s8,8(sp)
 8008bd4:	4c92                	lw	s9,4(sp)
 8008bd6:	4d02                	lw	s10,0(sp)
 8008bd8:	854a                	mv	a0,s2
 8008bda:	5902                	lw	s2,32(sp)
 8008bdc:	6145                	addi	sp,sp,48
 8008bde:	8082                	ret
 8008be0:	fe0981e3          	beqz	s3,8008bc2 <_ZNK10__cxxabiv121__vmi_class_type_info20__do_find_public_srcEiPKvPKNS_17__class_type_infoES2_+0x7a>
 8008be4:	00156913          	ori	s2,a0,1
 8008be8:	bfe9                	j	8008bc2 <_ZNK10__cxxabiv121__vmi_class_type_info20__do_find_public_srcEiPKvPKNS_17__class_type_infoES2_+0x7a>
 8008bea:	4148                	lw	a0,4(a0)
 8008bec:	42cc                	lw	a1,4(a3)
 8008bee:	4919                	li	s2,6
 8008bf0:	fcb509e3          	beq	a0,a1,8008bc2 <_ZNK10__cxxabiv121__vmi_class_type_info20__do_find_public_srcEiPKvPKNS_17__class_type_infoES2_+0x7a>
 8008bf4:	00054703          	lbu	a4,0(a0)
 8008bf8:	02a00793          	li	a5,42
 8008bfc:	f6f70ae3          	beq	a4,a5,8008b70 <_ZNK10__cxxabiv121__vmi_class_type_info20__do_find_public_srcEiPKvPKNS_17__class_type_infoES2_+0x28>
 8008c00:	ffff9097          	auipc	ra,0xffff9
 8008c04:	968080e7          	jalr	-1688(ra) # 8001568 <strcmp>
 8008c08:	dd4d                	beqz	a0,8008bc2 <_ZNK10__cxxabiv121__vmi_class_type_info20__do_find_public_srcEiPKvPKNS_17__class_type_infoES2_+0x7a>
 8008c0a:	b79d                	j	8008b70 <_ZNK10__cxxabiv121__vmi_class_type_info20__do_find_public_srcEiPKvPKNS_17__class_type_infoES2_+0x28>

08008c0c <_ZNK10__cxxabiv121__vmi_class_type_info12__do_dyncastEiNS_17__class_type_info10__sub_kindEPKS1_PKvS4_S6_RNS1_16__dyncast_resultE>:
 8008c0c:	7119                	addi	sp,sp,-128
 8008c0e:	dca2                	sw	s0,120(sp)
 8008c10:	8446                	mv	s0,a7
 8008c12:	0108a883          	lw	a7,16(a7)
 8008c16:	d6ce                	sw	s3,108(sp)
 8008c18:	d4d2                	sw	s4,104(sp)
 8008c1a:	d0da                	sw	s6,96(sp)
 8008c1c:	cce2                	sw	s8,88(sp)
 8008c1e:	cae6                	sw	s9,84(sp)
 8008c20:	c8ea                	sw	s10,80(sp)
 8008c22:	de86                	sw	ra,124(sp)
 8008c24:	daa6                	sw	s1,116(sp)
 8008c26:	d8ca                	sw	s2,112(sp)
 8008c28:	d2d6                	sw	s5,100(sp)
 8008c2a:	cede                	sw	s7,92(sp)
 8008c2c:	c6ee                	sw	s11,76(sp)
 8008c2e:	0108f893          	andi	a7,a7,16
 8008c32:	c62a                	sw	a0,12(sp)
 8008c34:	8d2e                	mv	s10,a1
 8008c36:	89b2                	mv	s3,a2
 8008c38:	8a36                	mv	s4,a3
 8008c3a:	8cba                	mv	s9,a4
 8008c3c:	8b3e                	mv	s6,a5
 8008c3e:	8c42                	mv	s8,a6
 8008c40:	00088463          	beqz	a7,8008c48 <_ZNK10__cxxabiv121__vmi_class_type_info12__do_dyncastEiNS_17__class_type_info10__sub_kindEPKS1_PKvS4_S6_RNS1_16__dyncast_resultE+0x3c>
 8008c44:	4518                	lw	a4,8(a0)
 8008c46:	c818                	sw	a4,16(s0)
 8008c48:	47b2                	lw	a5,12(sp)
 8008c4a:	43c4                	lw	s1,4(a5)
 8008c4c:	158c8b63          	beq	s9,s8,8008da2 <_ZNK10__cxxabiv121__vmi_class_type_info12__do_dyncastEiNS_17__class_type_info10__sub_kindEPKS1_PKvS4_S6_RNS1_16__dyncast_resultE+0x196>
 8008c50:	004a2583          	lw	a1,4(s4)
 8008c54:	16958c63          	beq	a1,s1,8008dcc <_ZNK10__cxxabiv121__vmi_class_type_info12__do_dyncastEiNS_17__class_type_info10__sub_kindEPKS1_PKvS4_S6_RNS1_16__dyncast_resultE+0x1c0>
 8008c58:	0004c683          	lbu	a3,0(s1)
 8008c5c:	02a00713          	li	a4,42
 8008c60:	00e68963          	beq	a3,a4,8008c72 <_ZNK10__cxxabiv121__vmi_class_type_info12__do_dyncastEiNS_17__class_type_info10__sub_kindEPKS1_PKvS4_S6_RNS1_16__dyncast_resultE+0x66>
 8008c64:	8526                	mv	a0,s1
 8008c66:	ffff9097          	auipc	ra,0xffff9
 8008c6a:	902080e7          	jalr	-1790(ra) # 8001568 <strcmp>
 8008c6e:	14050f63          	beqz	a0,8008dcc <_ZNK10__cxxabiv121__vmi_class_type_info12__do_dyncastEiNS_17__class_type_info10__sub_kindEPKS1_PKvS4_S6_RNS1_16__dyncast_resultE+0x1c0>
 8008c72:	fffd4713          	not	a4,s10
 8008c76:	4789                	li	a5,2
 8008c78:	41ac0bb3          	sub	s7,s8,s10
 8008c7c:	877d                	srai	a4,a4,0x1f
 8008c7e:	ca3e                	sw	a5,20(sp)
 8008c80:	4785                	li	a5,1
 8008c82:	00ebfbb3          	and	s7,s7,a4
 8008c86:	c43e                	sw	a5,8(sp)
 8008c88:	8766                	mv	a4,s9
 8008c8a:	87a2                	mv	a5,s0
 8008c8c:	8cea                	mv	s9,s10
 8008c8e:	845a                	mv	s0,s6
 8008c90:	8d5e                	mv	s10,s7
 8008c92:	4d81                	li	s11,0
 8008c94:	c802                	sw	zero,16(sp)
 8008c96:	8b3e                	mv	s6,a5
 8008c98:	8bba                	mv	s7,a4
 8008c9a:	47b2                	lw	a5,12(sp)
 8008c9c:	00c7ae03          	lw	t3,12(a5)
 8008ca0:	fffe0a93          	addi	s5,t3,-1
 8008ca4:	160e0e63          	beqz	t3,8008e20 <_ZNK10__cxxabiv121__vmi_class_type_info12__do_dyncastEiNS_17__class_type_info10__sub_kindEPKS1_PKvS4_S6_RNS1_16__dyncast_resultE+0x214>
 8008ca8:	0e0e                	slli	t3,t3,0x3
 8008caa:	01c784b3          	add	s1,a5,t3
 8008cae:	8756                	mv	a4,s5
 8008cb0:	87a2                	mv	a5,s0
 8008cb2:	8aea                	mv	s5,s10
 8008cb4:	8466                	mv	s0,s9
 8008cb6:	490d                	li	s2,3
 8008cb8:	8ca6                	mv	s9,s1
 8008cba:	8d3a                	mv	s10,a4
 8008cbc:	84de                	mv	s1,s7
 8008cbe:	8bbe                	mv	s7,a5
 8008cc0:	00cca683          	lw	a3,12(s9)
 8008cc4:	010b2783          	lw	a5,16(s6)
 8008cc8:	d602                	sw	zero,44(sp)
 8008cca:	d802                	sw	zero,48(sp)
 8008ccc:	da02                	sw	zero,52(sp)
 8008cce:	dc02                	sw	zero,56(sp)
 8008cd0:	de3e                	sw	a5,60(sp)
 8008cd2:	0016f513          	andi	a0,a3,1
 8008cd6:	4086d713          	srai	a4,a3,0x8
 8008cda:	864e                	mv	a2,s3
 8008cdc:	c511                	beqz	a0,8008ce8 <_ZNK10__cxxabiv121__vmi_class_type_info12__do_dyncastEiNS_17__class_type_info10__sub_kindEPKS1_PKvS4_S6_RNS1_16__dyncast_resultE+0xdc>
 8008cde:	4088                	lw	a0,0(s1)
 8008ce0:	0019e613          	ori	a2,s3,1
 8008ce4:	972a                	add	a4,a4,a0
 8008ce6:	4318                	lw	a4,0(a4)
 8008ce8:	9726                	add	a4,a4,s1
 8008cea:	000a8763          	beqz	s5,8008cf8 <_ZNK10__cxxabiv121__vmi_class_type_info12__do_dyncastEiNS_17__class_type_info10__sub_kindEPKS1_PKvS4_S6_RNS1_16__dyncast_resultE+0xec>
 8008cee:	45a2                	lw	a1,8(sp)
 8008cf0:	00eab533          	sltu	a0,s5,a4
 8008cf4:	1ab50763          	beq	a0,a1,8008ea2 <_ZNK10__cxxabiv121__vmi_class_type_info12__do_dyncastEiNS_17__class_type_info10__sub_kindEPKS1_PKvS4_S6_RNS1_16__dyncast_resultE+0x296>
 8008cf8:	8a89                	andi	a3,a3,2
 8008cfa:	e689                	bnez	a3,8008d04 <_ZNK10__cxxabiv121__vmi_class_type_info12__do_dyncastEiNS_17__class_type_info10__sub_kindEPKS1_PKvS4_S6_RNS1_16__dyncast_resultE+0xf8>
 8008cfc:	56f9                	li	a3,-2
 8008cfe:	10d40563          	beq	s0,a3,8008e08 <_ZNK10__cxxabiv121__vmi_class_type_info12__do_dyncastEiNS_17__class_type_info10__sub_kindEPKS1_PKvS4_S6_RNS1_16__dyncast_resultE+0x1fc>
 8008d02:	9a75                	andi	a2,a2,-3
 8008d04:	008ca503          	lw	a0,8(s9)
 8008d08:	87de                	mv	a5,s7
 8008d0a:	02c10893          	addi	a7,sp,44
 8008d0e:	4114                	lw	a3,0(a0)
 8008d10:	8862                	mv	a6,s8
 8008d12:	85a2                	mv	a1,s0
 8008d14:	01c6ae83          	lw	t4,28(a3)
 8008d18:	86d2                	mv	a3,s4
 8008d1a:	9e82                	jalr	t4
 8008d1c:	008b2683          	lw	a3,8(s6)
 8008d20:	5752                	lw	a4,52(sp)
 8008d22:	57e2                	lw	a5,56(sp)
 8008d24:	8f55                	or	a4,a4,a3
 8008d26:	00eb2423          	sw	a4,8(s6)
 8008d2a:	4699                	li	a3,6
 8008d2c:	26d78063          	beq	a5,a3,8008f8c <_ZNK10__cxxabiv121__vmi_class_type_info12__do_dyncastEiNS_17__class_type_info10__sub_kindEPKS1_PKvS4_S6_RNS1_16__dyncast_resultE+0x380>
 8008d30:	5832                	lw	a6,44(sp)
 8008d32:	4609                	li	a2,2
 8008d34:	86c2                	mv	a3,a6
 8008d36:	26c78463          	beq	a5,a2,8008f9e <_ZNK10__cxxabiv121__vmi_class_type_info12__do_dyncastEiNS_17__class_type_info10__sub_kindEPKS1_PKvS4_S6_RNS1_16__dyncast_resultE+0x392>
 8008d3a:	000b2603          	lw	a2,0(s6)
 8008d3e:	140d9d63          	bnez	s11,8008e98 <_ZNK10__cxxabiv121__vmi_class_type_info12__do_dyncastEiNS_17__class_type_info10__sub_kindEPKS1_PKvS4_S6_RNS1_16__dyncast_resultE+0x28c>
 8008d42:	ca6d                	beqz	a2,8008e34 <_ZNK10__cxxabiv121__vmi_class_type_info12__do_dyncastEiNS_17__class_type_info10__sub_kindEPKS1_PKvS4_S6_RNS1_16__dyncast_resultE+0x228>
 8008d44:	17060263          	beq	a2,a6,8008ea8 <_ZNK10__cxxabiv121__vmi_class_type_info12__do_dyncastEiNS_17__class_type_info10__sub_kindEPKS1_PKvS4_S6_RNS1_16__dyncast_resultE+0x29c>
 8008d48:	16080763          	beqz	a6,8008eb6 <_ZNK10__cxxabiv121__vmi_class_type_info12__do_dyncastEiNS_17__class_type_info10__sub_kindEPKS1_PKvS4_S6_RNS1_16__dyncast_resultE+0x2aa>
 8008d4c:	00cb2883          	lw	a7,12(s6)
 8008d50:	10e95363          	bge	s2,a4,8008e56 <_ZNK10__cxxabiv121__vmi_class_type_info12__do_dyncastEiNS_17__class_type_info10__sub_kindEPKS1_PKvS4_S6_RNS1_16__dyncast_resultE+0x24a>
 8008d54:	00177693          	andi	a3,a4,1
 8008d58:	c689                	beqz	a3,8008d62 <_ZNK10__cxxabiv121__vmi_class_type_info12__do_dyncastEiNS_17__class_type_info10__sub_kindEPKS1_PKvS4_S6_RNS1_16__dyncast_resultE+0x156>
 8008d5a:	010b2683          	lw	a3,16(s6)
 8008d5e:	8a89                	andi	a3,a3,2
 8008d60:	eafd                	bnez	a3,8008e56 <_ZNK10__cxxabiv121__vmi_class_type_info12__do_dyncastEiNS_17__class_type_info10__sub_kindEPKS1_PKvS4_S6_RNS1_16__dyncast_resultE+0x24a>
 8008d62:	00089363          	bnez	a7,8008d68 <_ZNK10__cxxabiv121__vmi_class_type_info12__do_dyncastEiNS_17__class_type_info10__sub_kindEPKS1_PKvS4_S6_RNS1_16__dyncast_resultE+0x15c>
 8008d66:	4885                	li	a7,1
 8008d68:	e391                	bnez	a5,8008d6c <_ZNK10__cxxabiv121__vmi_class_type_info12__do_dyncastEiNS_17__class_type_info10__sub_kindEPKS1_PKvS4_S6_RNS1_16__dyncast_resultE+0x160>
 8008d6a:	4785                	li	a5,1
 8008d6c:	8ec6                	mv	t4,a7
 8008d6e:	01d7c733          	xor	a4,a5,t4
 8008d72:	8f3e                	mv	t5,a5
 8008d74:	0ee95b63          	bge	s2,a4,8008e6a <_ZNK10__cxxabiv121__vmi_class_type_info12__do_dyncastEiNS_17__class_type_info10__sub_kindEPKS1_PKvS4_S6_RNS1_16__dyncast_resultE+0x25e>
 8008d78:	1af95963          	bge	s2,a5,8008f2a <_ZNK10__cxxabiv121__vmi_class_type_info12__do_dyncastEiNS_17__class_type_info10__sub_kindEPKS1_PKvS4_S6_RNS1_16__dyncast_resultE+0x31e>
 8008d7c:	5832                	lw	a6,44(sp)
 8008d7e:	0027fe93          	andi	t4,a5,2
 8008d82:	5742                	lw	a4,48(sp)
 8008d84:	010b2023          	sw	a6,0(s6)
 8008d88:	4d81                	li	s11,0
 8008d8a:	00eb2223          	sw	a4,4(s6)
 8008d8e:	00fb2623          	sw	a5,12(s6)
 8008d92:	220e9e63          	bnez	t4,8008fce <_ZNK10__cxxabiv121__vmi_class_type_info12__do_dyncastEiNS_17__class_type_info10__sub_kindEPKS1_PKvS4_S6_RNS1_16__dyncast_resultE+0x3c2>
 8008d96:	8b85                	andi	a5,a5,1
 8008d98:	22078b63          	beqz	a5,8008fce <_ZNK10__cxxabiv121__vmi_class_type_info12__do_dyncastEiNS_17__class_type_info10__sub_kindEPKS1_PKvS4_S6_RNS1_16__dyncast_resultE+0x3c2>
 8008d9c:	008b2703          	lw	a4,8(s6)
 8008da0:	a07d                	j	8008e4e <_ZNK10__cxxabiv121__vmi_class_type_info12__do_dyncastEiNS_17__class_type_info10__sub_kindEPKS1_PKvS4_S6_RNS1_16__dyncast_resultE+0x242>
 8008da2:	004b2583          	lw	a1,4(s6)
 8008da6:	1c958f63          	beq	a1,s1,8008f84 <_ZNK10__cxxabiv121__vmi_class_type_info12__do_dyncastEiNS_17__class_type_info10__sub_kindEPKS1_PKvS4_S6_RNS1_16__dyncast_resultE+0x378>
 8008daa:	0004c683          	lbu	a3,0(s1)
 8008dae:	02a00713          	li	a4,42
 8008db2:	1ae68b63          	beq	a3,a4,8008f68 <_ZNK10__cxxabiv121__vmi_class_type_info12__do_dyncastEiNS_17__class_type_info10__sub_kindEPKS1_PKvS4_S6_RNS1_16__dyncast_resultE+0x35c>
 8008db6:	8526                	mv	a0,s1
 8008db8:	ffff8097          	auipc	ra,0xffff8
 8008dbc:	7b0080e7          	jalr	1968(ra) # 8001568 <strcmp>
 8008dc0:	1c050263          	beqz	a0,8008f84 <_ZNK10__cxxabiv121__vmi_class_type_info12__do_dyncastEiNS_17__class_type_info10__sub_kindEPKS1_PKvS4_S6_RNS1_16__dyncast_resultE+0x378>
 8008dc4:	004a2583          	lw	a1,4(s4)
 8008dc8:	e8b49ee3          	bne	s1,a1,8008c64 <_ZNK10__cxxabiv121__vmi_class_type_info12__do_dyncastEiNS_17__class_type_info10__sub_kindEPKS1_PKvS4_S6_RNS1_16__dyncast_resultE+0x58>
 8008dcc:	01942023          	sw	s9,0(s0)
 8008dd0:	01342223          	sw	s3,4(s0)
 8008dd4:	180d4f63          	bltz	s10,8008f72 <_ZNK10__cxxabiv121__vmi_class_type_info12__do_dyncastEiNS_17__class_type_info10__sub_kindEPKS1_PKvS4_S6_RNS1_16__dyncast_resultE+0x366>
 8008dd8:	01ac8e33          	add	t3,s9,s10
 8008ddc:	4799                	li	a5,6
 8008dde:	01cc0363          	beq	s8,t3,8008de4 <_ZNK10__cxxabiv121__vmi_class_type_info12__do_dyncastEiNS_17__class_type_info10__sub_kindEPKS1_PKvS4_S6_RNS1_16__dyncast_resultE+0x1d8>
 8008de2:	4785                	li	a5,1
 8008de4:	c45c                	sw	a5,12(s0)
 8008de6:	4d81                	li	s11,0
 8008de8:	50f6                	lw	ra,124(sp)
 8008dea:	5466                	lw	s0,120(sp)
 8008dec:	54d6                	lw	s1,116(sp)
 8008dee:	5946                	lw	s2,112(sp)
 8008df0:	59b6                	lw	s3,108(sp)
 8008df2:	5a26                	lw	s4,104(sp)
 8008df4:	5a96                	lw	s5,100(sp)
 8008df6:	5b06                	lw	s6,96(sp)
 8008df8:	4bf6                	lw	s7,92(sp)
 8008dfa:	4c66                	lw	s8,88(sp)
 8008dfc:	4cd6                	lw	s9,84(sp)
 8008dfe:	4d46                	lw	s10,80(sp)
 8008e00:	856e                	mv	a0,s11
 8008e02:	4db6                	lw	s11,76(sp)
 8008e04:	6109                	addi	sp,sp,128
 8008e06:	8082                	ret
 8008e08:	8b8d                	andi	a5,a5,3
 8008e0a:	ee079ce3          	bnez	a5,8008d02 <_ZNK10__cxxabiv121__vmi_class_type_info12__do_dyncastEiNS_17__class_type_info10__sub_kindEPKS1_PKvS4_S6_RNS1_16__dyncast_resultE+0xf6>
 8008e0e:	1d7d                	addi	s10,s10,-1
 8008e10:	57fd                	li	a5,-1
 8008e12:	1ce1                	addi	s9,s9,-8
 8008e14:	eafd16e3          	bne	s10,a5,8008cc0 <_ZNK10__cxxabiv121__vmi_class_type_info12__do_dyncastEiNS_17__class_type_info10__sub_kindEPKS1_PKvS4_S6_RNS1_16__dyncast_resultE+0xb4>
 8008e18:	8ca2                	mv	s9,s0
 8008e1a:	8d56                	mv	s10,s5
 8008e1c:	845e                	mv	s0,s7
 8008e1e:	8ba6                	mv	s7,s1
 8008e20:	47c2                	lw	a5,16(sp)
 8008e22:	d3f9                	beqz	a5,8008de8 <_ZNK10__cxxabiv121__vmi_class_type_info12__do_dyncastEiNS_17__class_type_info10__sub_kindEPKS1_PKvS4_S6_RNS1_16__dyncast_resultE+0x1dc>
 8008e24:	4752                	lw	a4,20(sp)
 8008e26:	4785                	li	a5,1
 8008e28:	c402                	sw	zero,8(sp)
 8008e2a:	faf70fe3          	beq	a4,a5,8008de8 <_ZNK10__cxxabiv121__vmi_class_type_info12__do_dyncastEiNS_17__class_type_info10__sub_kindEPKS1_PKvS4_S6_RNS1_16__dyncast_resultE+0x1dc>
 8008e2e:	4785                	li	a5,1
 8008e30:	ca3e                	sw	a5,20(sp)
 8008e32:	b5a5                	j	8008c9a <_ZNK10__cxxabiv121__vmi_class_type_info12__do_dyncastEiNS_17__class_type_info10__sub_kindEPKS1_PKvS4_S6_RNS1_16__dyncast_resultE+0x8e>
 8008e34:	57c2                	lw	a5,48(sp)
 8008e36:	010b2023          	sw	a6,0(s6)
 8008e3a:	00fb2223          	sw	a5,4(s6)
 8008e3e:	14080163          	beqz	a6,8008f80 <_ZNK10__cxxabiv121__vmi_class_type_info12__do_dyncastEiNS_17__class_type_info10__sub_kindEPKS1_PKvS4_S6_RNS1_16__dyncast_resultE+0x374>
 8008e42:	cb65                	beqz	a4,8008f32 <_ZNK10__cxxabiv121__vmi_class_type_info12__do_dyncastEiNS_17__class_type_info10__sub_kindEPKS1_PKvS4_S6_RNS1_16__dyncast_resultE+0x326>
 8008e44:	47b2                	lw	a5,12(sp)
 8008e46:	8daa                	mv	s11,a0
 8008e48:	479c                	lw	a5,8(a5)
 8008e4a:	8b85                	andi	a5,a5,1
 8008e4c:	dfd1                	beqz	a5,8008de8 <_ZNK10__cxxabiv121__vmi_class_type_info12__do_dyncastEiNS_17__class_type_info10__sub_kindEPKS1_PKvS4_S6_RNS1_16__dyncast_resultE+0x1dc>
 8008e4e:	4791                	li	a5,4
 8008e50:	faf71fe3          	bne	a4,a5,8008e0e <_ZNK10__cxxabiv121__vmi_class_type_info12__do_dyncastEiNS_17__class_type_info10__sub_kindEPKS1_PKvS4_S6_RNS1_16__dyncast_resultE+0x202>
 8008e54:	bf51                	j	8008de8 <_ZNK10__cxxabiv121__vmi_class_type_info12__do_dyncastEiNS_17__class_type_info10__sub_kindEPKS1_PKvS4_S6_RNS1_16__dyncast_resultE+0x1dc>
 8008e56:	8ec6                	mv	t4,a7
 8008e58:	8f3e                	mv	t5,a5
 8008e5a:	03105563          	blez	a7,8008e84 <_ZNK10__cxxabiv121__vmi_class_type_info12__do_dyncastEiNS_17__class_type_info10__sub_kindEPKS1_PKvS4_S6_RNS1_16__dyncast_resultE+0x278>
 8008e5e:	04f05f63          	blez	a5,8008ebc <_ZNK10__cxxabiv121__vmi_class_type_info12__do_dyncastEiNS_17__class_type_info10__sub_kindEPKS1_PKvS4_S6_RNS1_16__dyncast_resultE+0x2b0>
 8008e62:	01d7c733          	xor	a4,a5,t4
 8008e66:	f0e949e3          	blt	s2,a4,8008d78 <_ZNK10__cxxabiv121__vmi_class_type_info12__do_dyncastEiNS_17__class_type_info10__sub_kindEPKS1_PKvS4_S6_RNS1_16__dyncast_resultE+0x16c>
 8008e6a:	01df7eb3          	and	t4,t5,t4
 8008e6e:	15d94363          	blt	s2,t4,8008fb4 <_ZNK10__cxxabiv121__vmi_class_type_info12__do_dyncastEiNS_17__class_type_info10__sub_kindEPKS1_PKvS4_S6_RNS1_16__dyncast_resultE+0x3a8>
 8008e72:	008b2703          	lw	a4,8(s6)
 8008e76:	4785                	li	a5,1
 8008e78:	000b2023          	sw	zero,0(s6)
 8008e7c:	00fb2623          	sw	a5,12(s6)
 8008e80:	4d85                	li	s11,1
 8008e82:	b7f1                	j	8008e4e <_ZNK10__cxxabiv121__vmi_class_type_info12__do_dyncastEiNS_17__class_type_info10__sub_kindEPKS1_PKvS4_S6_RNS1_16__dyncast_resultE+0x242>
 8008e84:	06f95f63          	bge	s2,a5,8008f02 <_ZNK10__cxxabiv121__vmi_class_type_info12__do_dyncastEiNS_17__class_type_info10__sub_kindEPKS1_PKvS4_S6_RNS1_16__dyncast_resultE+0x2f6>
 8008e88:	0017f693          	andi	a3,a5,1
 8008e8c:	e6bd                	bnez	a3,8008efa <_ZNK10__cxxabiv121__vmi_class_type_info12__do_dyncastEiNS_17__class_type_info10__sub_kindEPKS1_PKvS4_S6_RNS1_16__dyncast_resultE+0x2ee>
 8008e8e:	0017c693          	xori	a3,a5,1
 8008e92:	eed946e3          	blt	s2,a3,8008d7e <_ZNK10__cxxabiv121__vmi_class_type_info12__do_dyncastEiNS_17__class_type_info10__sub_kindEPKS1_PKvS4_S6_RNS1_16__dyncast_resultE+0x172>
 8008e96:	b7c5                	j	8008e76 <_ZNK10__cxxabiv121__vmi_class_type_info12__do_dyncastEiNS_17__class_type_info10__sub_kindEPKS1_PKvS4_S6_RNS1_16__dyncast_resultE+0x26a>
 8008e98:	ea0616e3          	bnez	a2,8008d44 <_ZNK10__cxxabiv121__vmi_class_type_info12__do_dyncastEiNS_17__class_type_info10__sub_kindEPKS1_PKvS4_S6_RNS1_16__dyncast_resultE+0x138>
 8008e9c:	ea0818e3          	bnez	a6,8008d4c <_ZNK10__cxxabiv121__vmi_class_type_info12__do_dyncastEiNS_17__class_type_info10__sub_kindEPKS1_PKvS4_S6_RNS1_16__dyncast_resultE+0x140>
 8008ea0:	b77d                	j	8008e4e <_ZNK10__cxxabiv121__vmi_class_type_info12__do_dyncastEiNS_17__class_type_info10__sub_kindEPKS1_PKvS4_S6_RNS1_16__dyncast_resultE+0x242>
 8008ea2:	4785                	li	a5,1
 8008ea4:	c83e                	sw	a5,16(sp)
 8008ea6:	b7a5                	j	8008e0e <_ZNK10__cxxabiv121__vmi_class_type_info12__do_dyncastEiNS_17__class_type_info10__sub_kindEPKS1_PKvS4_S6_RNS1_16__dyncast_resultE+0x202>
 8008ea8:	004b2783          	lw	a5,4(s6)
 8008eac:	56c2                	lw	a3,48(sp)
 8008eae:	8fd5                	or	a5,a5,a3
 8008eb0:	00fb2223          	sw	a5,4(s6)
 8008eb4:	bf69                	j	8008e4e <_ZNK10__cxxabiv121__vmi_class_type_info12__do_dyncastEiNS_17__class_type_info10__sub_kindEPKS1_PKvS4_S6_RNS1_16__dyncast_resultE+0x242>
 8008eb6:	e8051be3          	bnez	a0,8008d4c <_ZNK10__cxxabiv121__vmi_class_type_info12__do_dyncastEiNS_17__class_type_info10__sub_kindEPKS1_PKvS4_S6_RNS1_16__dyncast_resultE+0x140>
 8008eba:	bf51                	j	8008e4e <_ZNK10__cxxabiv121__vmi_class_type_info12__do_dyncastEiNS_17__class_type_info10__sub_kindEPKS1_PKvS4_S6_RNS1_16__dyncast_resultE+0x242>
 8008ebc:	01195963          	bge	s2,a7,8008ece <_ZNK10__cxxabiv121__vmi_class_type_info12__do_dyncastEiNS_17__class_type_info10__sub_kindEPKS1_PKvS4_S6_RNS1_16__dyncast_resultE+0x2c2>
 8008ec0:	0018f793          	andi	a5,a7,1
 8008ec4:	cfc1                	beqz	a5,8008f5c <_ZNK10__cxxabiv121__vmi_class_type_info12__do_dyncastEiNS_17__class_type_info10__sub_kindEPKS1_PKvS4_S6_RNS1_16__dyncast_resultE+0x350>
 8008ec6:	47b2                	lw	a5,12(sp)
 8008ec8:	479c                	lw	a5,8(a5)
 8008eca:	8b89                	andi	a5,a5,2
 8008ecc:	cbc1                	beqz	a5,8008f5c <_ZNK10__cxxabiv121__vmi_class_type_info12__do_dyncastEiNS_17__class_type_info10__sub_kindEPKS1_PKvS4_S6_RNS1_16__dyncast_resultE+0x350>
 8008ece:	5832                	lw	a6,44(sp)
 8008ed0:	0c045a63          	bgez	s0,8008fa4 <_ZNK10__cxxabiv121__vmi_class_type_info12__do_dyncastEiNS_17__class_type_info10__sub_kindEPKS1_PKvS4_S6_RNS1_16__dyncast_resultE+0x398>
 8008ed4:	57f9                	li	a5,-2
 8008ed6:	0cf40b63          	beq	s0,a5,8008fac <_ZNK10__cxxabiv121__vmi_class_type_info12__do_dyncastEiNS_17__class_type_info10__sub_kindEPKS1_PKvS4_S6_RNS1_16__dyncast_resultE+0x3a0>
 8008eda:	000a2783          	lw	a5,0(s4)
 8008ede:	ce46                	sw	a7,28(sp)
 8008ee0:	cc76                	sw	t4,24(sp)
 8008ee2:	539c                	lw	a5,32(a5)
 8008ee4:	8762                	mv	a4,s8
 8008ee6:	86de                	mv	a3,s7
 8008ee8:	8642                	mv	a2,a6
 8008eea:	85a2                	mv	a1,s0
 8008eec:	8552                	mv	a0,s4
 8008eee:	9782                	jalr	a5
 8008ef0:	48f2                	lw	a7,28(sp)
 8008ef2:	4ee2                	lw	t4,24(sp)
 8008ef4:	87aa                	mv	a5,a0
 8008ef6:	8f2a                	mv	t5,a0
 8008ef8:	b7ad                	j	8008e62 <_ZNK10__cxxabiv121__vmi_class_type_info12__do_dyncastEiNS_17__class_type_info10__sub_kindEPKS1_PKvS4_S6_RNS1_16__dyncast_resultE+0x256>
 8008efa:	46b2                	lw	a3,12(sp)
 8008efc:	4694                	lw	a3,8(a3)
 8008efe:	8a89                	andi	a3,a3,2
 8008f00:	d6d9                	beqz	a3,8008e8e <_ZNK10__cxxabiv121__vmi_class_type_info12__do_dyncastEiNS_17__class_type_info10__sub_kindEPKS1_PKvS4_S6_RNS1_16__dyncast_resultE+0x282>
 8008f02:	02044a63          	bltz	s0,8008f36 <_ZNK10__cxxabiv121__vmi_class_type_info12__do_dyncastEiNS_17__class_type_info10__sub_kindEPKS1_PKvS4_S6_RNS1_16__dyncast_resultE+0x32a>
 8008f06:	9622                	add	a2,a2,s0
 8008f08:	0ccc0563          	beq	s8,a2,8008fd2 <_ZNK10__cxxabiv121__vmi_class_type_info12__do_dyncastEiNS_17__class_type_info10__sub_kindEPKS1_PKvS4_S6_RNS1_16__dyncast_resultE+0x3c6>
 8008f0c:	0cf04d63          	bgtz	a5,8008fe6 <_ZNK10__cxxabiv121__vmi_class_type_info12__do_dyncastEiNS_17__class_type_info10__sub_kindEPKS1_PKvS4_S6_RNS1_16__dyncast_resultE+0x3da>
 8008f10:	008807b3          	add	a5,a6,s0
 8008f14:	0cfc0f63          	beq	s8,a5,8008ff2 <_ZNK10__cxxabiv121__vmi_class_type_info12__do_dyncastEiNS_17__class_type_info10__sub_kindEPKS1_PKvS4_S6_RNS1_16__dyncast_resultE+0x3e6>
 8008f18:	4e85                	li	t4,1
 8008f1a:	4785                	li	a5,1
 8008f1c:	001ec713          	xori	a4,t4,1
 8008f20:	f4e959e3          	bge	s2,a4,8008e72 <_ZNK10__cxxabiv121__vmi_class_type_info12__do_dyncastEiNS_17__class_type_info10__sub_kindEPKS1_PKvS4_S6_RNS1_16__dyncast_resultE+0x266>
 8008f24:	002efe93          	andi	t4,t4,2
 8008f28:	b59d                	j	8008d8e <_ZNK10__cxxabiv121__vmi_class_type_info12__do_dyncastEiNS_17__class_type_info10__sub_kindEPKS1_PKvS4_S6_RNS1_16__dyncast_resultE+0x182>
 8008f2a:	0028fe93          	andi	t4,a7,2
 8008f2e:	87c6                	mv	a5,a7
 8008f30:	bdb9                	j	8008d8e <_ZNK10__cxxabiv121__vmi_class_type_info12__do_dyncastEiNS_17__class_type_info10__sub_kindEPKS1_PKvS4_S6_RNS1_16__dyncast_resultE+0x182>
 8008f32:	8daa                	mv	s11,a0
 8008f34:	bde9                	j	8008e0e <_ZNK10__cxxabiv121__vmi_class_type_info12__do_dyncastEiNS_17__class_type_info10__sub_kindEPKS1_PKvS4_S6_RNS1_16__dyncast_resultE+0x202>
 8008f36:	cc7a                	sw	t5,24(sp)
 8008f38:	56f9                	li	a3,-2
 8008f3a:	0ad40463          	beq	s0,a3,8008fe2 <_ZNK10__cxxabiv121__vmi_class_type_info12__do_dyncastEiNS_17__class_type_info10__sub_kindEPKS1_PKvS4_S6_RNS1_16__dyncast_resultE+0x3d6>
 8008f3e:	000a2503          	lw	a0,0(s4)
 8008f42:	ce3e                	sw	a5,28(sp)
 8008f44:	8762                	mv	a4,s8
 8008f46:	02052803          	lw	a6,32(a0)
 8008f4a:	86de                	mv	a3,s7
 8008f4c:	85a2                	mv	a1,s0
 8008f4e:	8552                	mv	a0,s4
 8008f50:	9802                	jalr	a6
 8008f52:	4f62                	lw	t5,24(sp)
 8008f54:	47f2                	lw	a5,28(sp)
 8008f56:	88aa                	mv	a7,a0
 8008f58:	8eaa                	mv	t4,a0
 8008f5a:	b711                	j	8008e5e <_ZNK10__cxxabiv121__vmi_class_type_info12__do_dyncastEiNS_17__class_type_info10__sub_kindEPKS1_PKvS4_S6_RNS1_16__dyncast_resultE+0x252>
 8008f5c:	0018c713          	xori	a4,a7,1
 8008f60:	87c6                	mv	a5,a7
 8008f62:	f0e958e3          	bge	s2,a4,8008e72 <_ZNK10__cxxabiv121__vmi_class_type_info12__do_dyncastEiNS_17__class_type_info10__sub_kindEPKS1_PKvS4_S6_RNS1_16__dyncast_resultE+0x266>
 8008f66:	bf7d                	j	8008f24 <_ZNK10__cxxabiv121__vmi_class_type_info12__do_dyncastEiNS_17__class_type_info10__sub_kindEPKS1_PKvS4_S6_RNS1_16__dyncast_resultE+0x318>
 8008f68:	004a2703          	lw	a4,4(s4)
 8008f6c:	d09713e3          	bne	a4,s1,8008c72 <_ZNK10__cxxabiv121__vmi_class_type_info12__do_dyncastEiNS_17__class_type_info10__sub_kindEPKS1_PKvS4_S6_RNS1_16__dyncast_resultE+0x66>
 8008f70:	bdb1                	j	8008dcc <_ZNK10__cxxabiv121__vmi_class_type_info12__do_dyncastEiNS_17__class_type_info10__sub_kindEPKS1_PKvS4_S6_RNS1_16__dyncast_resultE+0x1c0>
 8008f72:	57f9                	li	a5,-2
 8008f74:	4d81                	li	s11,0
 8008f76:	e6fd19e3          	bne	s10,a5,8008de8 <_ZNK10__cxxabiv121__vmi_class_type_info12__do_dyncastEiNS_17__class_type_info10__sub_kindEPKS1_PKvS4_S6_RNS1_16__dyncast_resultE+0x1dc>
 8008f7a:	4785                	li	a5,1
 8008f7c:	c45c                	sw	a5,12(s0)
 8008f7e:	b5ad                	j	8008de8 <_ZNK10__cxxabiv121__vmi_class_type_info12__do_dyncastEiNS_17__class_type_info10__sub_kindEPKS1_PKvS4_S6_RNS1_16__dyncast_resultE+0x1dc>
 8008f80:	8daa                	mv	s11,a0
 8008f82:	b5f1                	j	8008e4e <_ZNK10__cxxabiv121__vmi_class_type_info12__do_dyncastEiNS_17__class_type_info10__sub_kindEPKS1_PKvS4_S6_RNS1_16__dyncast_resultE+0x242>
 8008f84:	01342423          	sw	s3,8(s0)
 8008f88:	4d81                	li	s11,0
 8008f8a:	bdb9                	j	8008de8 <_ZNK10__cxxabiv121__vmi_class_type_info12__do_dyncastEiNS_17__class_type_info10__sub_kindEPKS1_PKvS4_S6_RNS1_16__dyncast_resultE+0x1dc>
 8008f8c:	56b2                	lw	a3,44(sp)
 8008f8e:	84be                	mv	s1,a5
 8008f90:	845a                	mv	s0,s6
 8008f92:	57c2                	lw	a5,48(sp)
 8008f94:	c014                	sw	a3,0(s0)
 8008f96:	c444                	sw	s1,12(s0)
 8008f98:	c05c                	sw	a5,4(s0)
 8008f9a:	8daa                	mv	s11,a0
 8008f9c:	b5b1                	j	8008de8 <_ZNK10__cxxabiv121__vmi_class_type_info12__do_dyncastEiNS_17__class_type_info10__sub_kindEPKS1_PKvS4_S6_RNS1_16__dyncast_resultE+0x1dc>
 8008f9e:	84be                	mv	s1,a5
 8008fa0:	845a                	mv	s0,s6
 8008fa2:	bfc5                	j	8008f92 <_ZNK10__cxxabiv121__vmi_class_type_info12__do_dyncastEiNS_17__class_type_info10__sub_kindEPKS1_PKvS4_S6_RNS1_16__dyncast_resultE+0x386>
 8008fa4:	008807b3          	add	a5,a6,s0
 8008fa8:	00fc0d63          	beq	s8,a5,8008fc2 <_ZNK10__cxxabiv121__vmi_class_type_info12__do_dyncastEiNS_17__class_type_info10__sub_kindEPKS1_PKvS4_S6_RNS1_16__dyncast_resultE+0x3b6>
 8008fac:	87c6                	mv	a5,a7
 8008fae:	001ec713          	xori	a4,t4,1
 8008fb2:	b7bd                	j	8008f20 <_ZNK10__cxxabiv121__vmi_class_type_info12__do_dyncastEiNS_17__class_type_info10__sub_kindEPKS1_PKvS4_S6_RNS1_16__dyncast_resultE+0x314>
 8008fb4:	4789                	li	a5,2
 8008fb6:	000b2023          	sw	zero,0(s6)
 8008fba:	00fb2623          	sw	a5,12(s6)
 8008fbe:	4d85                	li	s11,1
 8008fc0:	b525                	j	8008de8 <_ZNK10__cxxabiv121__vmi_class_type_info12__do_dyncastEiNS_17__class_type_info10__sub_kindEPKS1_PKvS4_S6_RNS1_16__dyncast_resultE+0x1dc>
 8008fc2:	0068c893          	xori	a7,a7,6
 8008fc6:	03194663          	blt	s2,a7,8008ff2 <_ZNK10__cxxabiv121__vmi_class_type_info12__do_dyncastEiNS_17__class_type_info10__sub_kindEPKS1_PKvS4_S6_RNS1_16__dyncast_resultE+0x3e6>
 8008fca:	4f19                	li	t5,6
 8008fcc:	bd79                	j	8008e6a <_ZNK10__cxxabiv121__vmi_class_type_info12__do_dyncastEiNS_17__class_type_info10__sub_kindEPKS1_PKvS4_S6_RNS1_16__dyncast_resultE+0x25e>
 8008fce:	4d81                	li	s11,0
 8008fd0:	bd21                	j	8008de8 <_ZNK10__cxxabiv121__vmi_class_type_info12__do_dyncastEiNS_17__class_type_info10__sub_kindEPKS1_PKvS4_S6_RNS1_16__dyncast_resultE+0x1dc>
 8008fd2:	4e99                	li	t4,6
 8008fd4:	4899                	li	a7,6
 8008fd6:	e8f046e3          	bgtz	a5,8008e62 <_ZNK10__cxxabiv121__vmi_class_type_info12__do_dyncastEiNS_17__class_type_info10__sub_kindEPKS1_PKvS4_S6_RNS1_16__dyncast_resultE+0x256>
 8008fda:	4799                	li	a5,6
 8008fdc:	002efe93          	andi	t4,t4,2
 8008fe0:	b37d                	j	8008d8e <_ZNK10__cxxabiv121__vmi_class_type_info12__do_dyncastEiNS_17__class_type_info10__sub_kindEPKS1_PKvS4_S6_RNS1_16__dyncast_resultE+0x182>
 8008fe2:	f2f05be3          	blez	a5,8008f18 <_ZNK10__cxxabiv121__vmi_class_type_info12__do_dyncastEiNS_17__class_type_info10__sub_kindEPKS1_PKvS4_S6_RNS1_16__dyncast_resultE+0x30c>
 8008fe6:	0017c693          	xori	a3,a5,1
 8008fea:	4885                	li	a7,1
 8008fec:	d8d946e3          	blt	s2,a3,8008d78 <_ZNK10__cxxabiv121__vmi_class_type_info12__do_dyncastEiNS_17__class_type_info10__sub_kindEPKS1_PKvS4_S6_RNS1_16__dyncast_resultE+0x16c>
 8008ff0:	b559                	j	8008e76 <_ZNK10__cxxabiv121__vmi_class_type_info12__do_dyncastEiNS_17__class_type_info10__sub_kindEPKS1_PKvS4_S6_RNS1_16__dyncast_resultE+0x26a>
 8008ff2:	4e89                	li	t4,2
 8008ff4:	4799                	li	a5,6
 8008ff6:	b371                	j	8008d82 <_ZNK10__cxxabiv121__vmi_class_type_info12__do_dyncastEiNS_17__class_type_info10__sub_kindEPKS1_PKvS4_S6_RNS1_16__dyncast_resultE+0x176>

08008ff8 <_ZNK10__cxxabiv121__vmi_class_type_info11__do_upcastEPKNS_17__class_type_infoEPKvRNS1_15__upcast_resultE>:
 8008ff8:	711d                	addi	sp,sp,-96
 8008ffa:	cca2                	sw	s0,88(sp)
 8008ffc:	caa6                	sw	s1,84(sp)
 8008ffe:	c6ce                	sw	s3,76(sp)
 8009000:	de5e                	sw	s7,60(sp)
 8009002:	da66                	sw	s9,52(sp)
 8009004:	ce86                	sw	ra,92(sp)
 8009006:	c8ca                	sw	s2,80(sp)
 8009008:	c4d2                	sw	s4,72(sp)
 800900a:	c2d6                	sw	s5,68(sp)
 800900c:	c0da                	sw	s6,64(sp)
 800900e:	dc62                	sw	s8,56(sp)
 8009010:	d86a                	sw	s10,48(sp)
 8009012:	d66e                	sw	s11,44(sp)
 8009014:	842a                	mv	s0,a0
 8009016:	c62a                	sw	a0,12(sp)
 8009018:	89ae                	mv	s3,a1
 800901a:	8bb2                	mv	s7,a2
 800901c:	8cb6                	mv	s9,a3
 800901e:	fffff097          	auipc	ra,0xfffff
 8009022:	91e080e7          	jalr	-1762(ra) # 800793c <_ZNK10__cxxabiv117__class_type_info11__do_upcastEPKS0_PKvRNS0_15__upcast_resultE>
 8009026:	84aa                	mv	s1,a0
 8009028:	e545                	bnez	a0,80090d0 <_ZNK10__cxxabiv121__vmi_class_type_info11__do_upcastEPKNS_17__class_type_infoEPKvRNS1_15__upcast_resultE+0xd8>
 800902a:	008ca903          	lw	s2,8(s9)
 800902e:	01097793          	andi	a5,s2,16
 8009032:	12079a63          	bnez	a5,8009166 <_ZNK10__cxxabiv121__vmi_class_type_info11__do_upcastEPKNS_17__class_type_infoEPKvRNS1_15__upcast_resultE+0x16e>
 8009036:	47b2                	lw	a5,12(sp)
 8009038:	47c0                	lw	s0,12(a5)
 800903a:	fff40d13          	addi	s10,s0,-1
 800903e:	c449                	beqz	s0,80090c8 <_ZNK10__cxxabiv121__vmi_class_type_info11__do_upcastEPKNS_17__class_type_infoEPKvRNS1_15__upcast_resultE+0xd0>
 8009040:	040e                	slli	s0,s0,0x3
 8009042:	00197a13          	andi	s4,s2,1
 8009046:	943e                	add	s0,s0,a5
 8009048:	4b21                	li	s6,8
 800904a:	5afd                	li	s5,-1
 800904c:	445c                	lw	a5,12(s0)
 800904e:	c802                	sw	zero,16(sp)
 8009050:	ca02                	sw	zero,20(sp)
 8009052:	0027fd93          	andi	s11,a5,2
 8009056:	cc4a                	sw	s2,24(sp)
 8009058:	ce02                	sw	zero,28(sp)
 800905a:	014de733          	or	a4,s11,s4
 800905e:	0017fc13          	andi	s8,a5,1
 8009062:	cf39                	beqz	a4,80090c0 <_ZNK10__cxxabiv121__vmi_class_type_info11__do_upcastEPKNS_17__class_type_infoEPKvRNS1_15__upcast_resultE+0xc8>
 8009064:	4601                	li	a2,0
 8009066:	000b8b63          	beqz	s7,800907c <_ZNK10__cxxabiv121__vmi_class_type_info11__do_upcastEPKNS_17__class_type_infoEPKvRNS1_15__upcast_resultE+0x84>
 800906a:	4087d613          	srai	a2,a5,0x8
 800906e:	000c0663          	beqz	s8,800907a <_ZNK10__cxxabiv121__vmi_class_type_info11__do_upcastEPKNS_17__class_type_infoEPKvRNS1_15__upcast_resultE+0x82>
 8009072:	000ba783          	lw	a5,0(s7)
 8009076:	963e                	add	a2,a2,a5
 8009078:	4210                	lw	a2,0(a2)
 800907a:	965e                	add	a2,a2,s7
 800907c:	4408                	lw	a0,8(s0)
 800907e:	0814                	addi	a3,sp,16
 8009080:	85ce                	mv	a1,s3
 8009082:	411c                	lw	a5,0(a0)
 8009084:	4f9c                	lw	a5,24(a5)
 8009086:	9782                	jalr	a5
 8009088:	84aa                	mv	s1,a0
 800908a:	c91d                	beqz	a0,80090c0 <_ZNK10__cxxabiv121__vmi_class_type_info11__do_upcastEPKNS_17__class_type_infoEPKvRNS1_15__upcast_resultE+0xc8>
 800908c:	47f2                	lw	a5,28(sp)
 800908e:	07678163          	beq	a5,s6,80090f0 <_ZNK10__cxxabiv121__vmi_class_type_info11__do_upcastEPKNS_17__class_type_infoEPKvRNS1_15__upcast_resultE+0xf8>
 8009092:	47d2                	lw	a5,20(sp)
 8009094:	470d                	li	a4,3
 8009096:	00f75663          	bge	a4,a5,80090a2 <_ZNK10__cxxabiv121__vmi_class_type_info11__do_upcastEPKNS_17__class_type_infoEPKvRNS1_15__upcast_resultE+0xaa>
 800909a:	000d9463          	bnez	s11,80090a2 <_ZNK10__cxxabiv121__vmi_class_type_info11__do_upcastEPKNS_17__class_type_infoEPKvRNS1_15__upcast_resultE+0xaa>
 800909e:	9bf5                	andi	a5,a5,-3
 80090a0:	ca3e                	sw	a5,20(sp)
 80090a2:	00cca783          	lw	a5,12(s9)
 80090a6:	cbb1                	beqz	a5,80090fa <_ZNK10__cxxabiv121__vmi_class_type_info11__do_upcastEPKNS_17__class_type_infoEPKvRNS1_15__upcast_resultE+0x102>
 80090a8:	000ca703          	lw	a4,0(s9)
 80090ac:	46c2                	lw	a3,16(sp)
 80090ae:	0ad71f63          	bne	a4,a3,800916c <_ZNK10__cxxabiv121__vmi_class_type_info11__do_upcastEPKNS_17__class_type_infoEPKvRNS1_15__upcast_resultE+0x174>
 80090b2:	cb3d                	beqz	a4,8009128 <_ZNK10__cxxabiv121__vmi_class_type_info11__do_upcastEPKNS_17__class_type_infoEPKvRNS1_15__upcast_resultE+0x130>
 80090b4:	004ca783          	lw	a5,4(s9)
 80090b8:	4752                	lw	a4,20(sp)
 80090ba:	8fd9                	or	a5,a5,a4
 80090bc:	00fca223          	sw	a5,4(s9)
 80090c0:	1d7d                	addi	s10,s10,-1
 80090c2:	1461                	addi	s0,s0,-8
 80090c4:	f95d14e3          	bne	s10,s5,800904c <_ZNK10__cxxabiv121__vmi_class_type_info11__do_upcastEPKNS_17__class_type_infoEPKvRNS1_15__upcast_resultE+0x54>
 80090c8:	004ca483          	lw	s1,4(s9)
 80090cc:	009034b3          	snez	s1,s1
 80090d0:	40f6                	lw	ra,92(sp)
 80090d2:	4466                	lw	s0,88(sp)
 80090d4:	4946                	lw	s2,80(sp)
 80090d6:	49b6                	lw	s3,76(sp)
 80090d8:	4a26                	lw	s4,72(sp)
 80090da:	4a96                	lw	s5,68(sp)
 80090dc:	4b06                	lw	s6,64(sp)
 80090de:	5bf2                	lw	s7,60(sp)
 80090e0:	5c62                	lw	s8,56(sp)
 80090e2:	5cd2                	lw	s9,52(sp)
 80090e4:	5d42                	lw	s10,48(sp)
 80090e6:	5db2                	lw	s11,44(sp)
 80090e8:	8526                	mv	a0,s1
 80090ea:	44d6                	lw	s1,84(sp)
 80090ec:	6125                	addi	sp,sp,96
 80090ee:	8082                	ret
 80090f0:	fa0c01e3          	beqz	s8,8009092 <_ZNK10__cxxabiv121__vmi_class_type_info11__do_upcastEPKNS_17__class_type_infoEPKvRNS1_15__upcast_resultE+0x9a>
 80090f4:	441c                	lw	a5,8(s0)
 80090f6:	ce3e                	sw	a5,28(sp)
 80090f8:	bf69                	j	8009092 <_ZNK10__cxxabiv121__vmi_class_type_info11__do_upcastEPKNS_17__class_type_infoEPKvRNS1_15__upcast_resultE+0x9a>
 80090fa:	4742                	lw	a4,16(sp)
 80090fc:	47d2                	lw	a5,20(sp)
 80090fe:	00eca023          	sw	a4,0(s9)
 8009102:	4762                	lw	a4,24(sp)
 8009104:	00fca223          	sw	a5,4(s9)
 8009108:	00eca423          	sw	a4,8(s9)
 800910c:	4772                	lw	a4,28(sp)
 800910e:	00eca623          	sw	a4,12(s9)
 8009112:	470d                	li	a4,3
 8009114:	faf75ee3          	bge	a4,a5,80090d0 <_ZNK10__cxxabiv121__vmi_class_type_info11__do_upcastEPKNS_17__class_type_infoEPKvRNS1_15__upcast_resultE+0xd8>
 8009118:	0027f713          	andi	a4,a5,2
 800911c:	cf15                	beqz	a4,8009158 <_ZNK10__cxxabiv121__vmi_class_type_info11__do_upcastEPKNS_17__class_type_infoEPKvRNS1_15__upcast_resultE+0x160>
 800911e:	47b2                	lw	a5,12(sp)
 8009120:	479c                	lw	a5,8(a5)
 8009122:	8b85                	andi	a5,a5,1
 8009124:	ffd1                	bnez	a5,80090c0 <_ZNK10__cxxabiv121__vmi_class_type_info11__do_upcastEPKNS_17__class_type_infoEPKvRNS1_15__upcast_resultE+0xc8>
 8009126:	b76d                	j	80090d0 <_ZNK10__cxxabiv121__vmi_class_type_info11__do_upcastEPKNS_17__class_type_infoEPKvRNS1_15__upcast_resultE+0xd8>
 8009128:	4772                	lw	a4,28(sp)
 800912a:	03670363          	beq	a4,s6,8009150 <_ZNK10__cxxabiv121__vmi_class_type_info11__do_upcastEPKNS_17__class_type_infoEPKvRNS1_15__upcast_resultE+0x158>
 800912e:	03678163          	beq	a5,s6,8009150 <_ZNK10__cxxabiv121__vmi_class_type_info11__do_upcastEPKNS_17__class_type_infoEPKvRNS1_15__upcast_resultE+0x158>
 8009132:	4348                	lw	a0,4(a4)
 8009134:	43cc                	lw	a1,4(a5)
 8009136:	f6b50fe3          	beq	a0,a1,80090b4 <_ZNK10__cxxabiv121__vmi_class_type_info11__do_upcastEPKNS_17__class_type_infoEPKvRNS1_15__upcast_resultE+0xbc>
 800913a:	00054783          	lbu	a5,0(a0)
 800913e:	02a00713          	li	a4,42
 8009142:	00e78763          	beq	a5,a4,8009150 <_ZNK10__cxxabiv121__vmi_class_type_info11__do_upcastEPKNS_17__class_type_infoEPKvRNS1_15__upcast_resultE+0x158>
 8009146:	ffff8097          	auipc	ra,0xffff8
 800914a:	422080e7          	jalr	1058(ra) # 8001568 <strcmp>
 800914e:	d13d                	beqz	a0,80090b4 <_ZNK10__cxxabiv121__vmi_class_type_info11__do_upcastEPKNS_17__class_type_infoEPKvRNS1_15__upcast_resultE+0xbc>
 8009150:	4789                	li	a5,2
 8009152:	00fca223          	sw	a5,4(s9)
 8009156:	bfad                	j	80090d0 <_ZNK10__cxxabiv121__vmi_class_type_info11__do_upcastEPKNS_17__class_type_infoEPKvRNS1_15__upcast_resultE+0xd8>
 8009158:	8b85                	andi	a5,a5,1
 800915a:	dbbd                	beqz	a5,80090d0 <_ZNK10__cxxabiv121__vmi_class_type_info11__do_upcastEPKNS_17__class_type_infoEPKvRNS1_15__upcast_resultE+0xd8>
 800915c:	47b2                	lw	a5,12(sp)
 800915e:	479c                	lw	a5,8(a5)
 8009160:	8b89                	andi	a5,a5,2
 8009162:	ffb9                	bnez	a5,80090c0 <_ZNK10__cxxabiv121__vmi_class_type_info11__do_upcastEPKNS_17__class_type_infoEPKvRNS1_15__upcast_resultE+0xc8>
 8009164:	b7b5                	j	80090d0 <_ZNK10__cxxabiv121__vmi_class_type_info11__do_upcastEPKNS_17__class_type_infoEPKvRNS1_15__upcast_resultE+0xd8>
 8009166:	00842903          	lw	s2,8(s0)
 800916a:	b5f1                	j	8009036 <_ZNK10__cxxabiv121__vmi_class_type_info11__do_upcastEPKNS_17__class_type_infoEPKvRNS1_15__upcast_resultE+0x3e>
 800916c:	4789                	li	a5,2
 800916e:	000ca023          	sw	zero,0(s9)
 8009172:	00fca223          	sw	a5,4(s9)
 8009176:	bfa9                	j	80090d0 <_ZNK10__cxxabiv121__vmi_class_type_info11__do_upcastEPKNS_17__class_type_infoEPKvRNS1_15__upcast_resultE+0xd8>

08009178 <_ZN9__gnu_cxx18__exchange_and_addEPVii>:
 8009178:	080087b7          	lui	a5,0x8008
 800917c:	715d                	addi	sp,sp,-80
 800917e:	ec878793          	addi	a5,a5,-312 # 8007ec8 <__gxx_personality_sj0>
 8009182:	d23e                	sw	a5,36(sp)
 8009184:	0800a7b7          	lui	a5,0x800a
 8009188:	9c478793          	addi	a5,a5,-1596 # 80099c4 <_GLOBAL__sub_I__ZSt7nothrow+0x1c6>
 800918c:	d43e                	sw	a5,40(sp)
 800918e:	009c                	addi	a5,sp,64
 8009190:	d63e                	sw	a5,44(sp)
 8009192:	080097b7          	lui	a5,0x8009
 8009196:	872a                	mv	a4,a0
 8009198:	25678793          	addi	a5,a5,598 # 8009256 <_ZN9__gnu_cxx18__exchange_and_addEPVii+0xde>
 800919c:	0068                	addi	a0,sp,12
 800919e:	d83e                	sw	a5,48(sp)
 80091a0:	c686                	sw	ra,76(sp)
 80091a2:	c4a2                	sw	s0,72(sp)
 80091a4:	da0a                	sw	sp,52(sp)
 80091a6:	c23a                	sw	a4,4(sp)
 80091a8:	c42e                	sw	a1,8(sp)
 80091aa:	ffffb097          	auipc	ra,0xffffb
 80091ae:	14e080e7          	jalr	334(ra) # 80042f8 <_Unwind_SjLj_Register>
 80091b2:	200017b7          	lui	a5,0x20001
 80091b6:	a1878793          	addi	a5,a5,-1512 # 20000a18 <_ZGVZN12_GLOBAL__N_116get_atomic_mutexEvE12atomic_mutex>
 80091ba:	0007c783          	lbu	a5,0(a5)
 80091be:	0ff0000f          	fence
 80091c2:	0ff7f793          	andi	a5,a5,255
 80091c6:	cba9                	beqz	a5,8009218 <_ZN9__gnu_cxx18__exchange_and_addEPVii+0xa0>
 80091c8:	200017b7          	lui	a5,0x20001
 80091cc:	c03e                	sw	a5,0(sp)
 80091ce:	4785                	li	a5,1
 80091d0:	c83e                	sw	a5,16(sp)
 80091d2:	4782                	lw	a5,0(sp)
 80091d4:	98478513          	addi	a0,a5,-1660 # 20000984 <_ZZN12_GLOBAL__N_116get_atomic_mutexEvE12atomic_mutex>
 80091d8:	ffffe097          	auipc	ra,0xffffe
 80091dc:	c38080e7          	jalr	-968(ra) # 8006e10 <pthread_mutex_lock>
 80091e0:	ed4d                	bnez	a0,800929a <_ZN9__gnu_cxx18__exchange_and_addEPVii+0x122>
 80091e2:	4712                	lw	a4,4(sp)
 80091e4:	4682                	lw	a3,0(sp)
 80091e6:	431c                	lw	a5,0(a4)
 80091e8:	98468513          	addi	a0,a3,-1660
 80091ec:	46a2                	lw	a3,8(sp)
 80091ee:	c23e                	sw	a5,4(sp)
 80091f0:	431c                	lw	a5,0(a4)
 80091f2:	97b6                	add	a5,a5,a3
 80091f4:	c31c                	sw	a5,0(a4)
 80091f6:	4789                	li	a5,2
 80091f8:	c83e                	sw	a5,16(sp)
 80091fa:	ffffe097          	auipc	ra,0xffffe
 80091fe:	cfe080e7          	jalr	-770(ra) # 8006ef8 <pthread_mutex_unlock>
 8009202:	e535                	bnez	a0,800926e <_ZN9__gnu_cxx18__exchange_and_addEPVii+0xf6>
 8009204:	0068                	addi	a0,sp,12
 8009206:	ffffb097          	auipc	ra,0xffffb
 800920a:	114080e7          	jalr	276(ra) # 800431a <_Unwind_SjLj_Unregister>
 800920e:	40b6                	lw	ra,76(sp)
 8009210:	4426                	lw	s0,72(sp)
 8009212:	4512                	lw	a0,4(sp)
 8009214:	6161                	addi	sp,sp,80
 8009216:	8082                	ret
 8009218:	200017b7          	lui	a5,0x20001
 800921c:	a1878513          	addi	a0,a5,-1512 # 20000a18 <_ZGVZN12_GLOBAL__N_116get_atomic_mutexEvE12atomic_mutex>
 8009220:	ffffd097          	auipc	ra,0xffffd
 8009224:	ae2080e7          	jalr	-1310(ra) # 8005d02 <__cxa_guard_acquire>
 8009228:	200017b7          	lui	a5,0x20001
 800922c:	c03e                	sw	a5,0(sp)
 800922e:	d145                	beqz	a0,80091ce <_ZN9__gnu_cxx18__exchange_and_addEPVii+0x56>
 8009230:	20001737          	lui	a4,0x20001
 8009234:	98478793          	addi	a5,a5,-1660 # 20000984 <_ZZN12_GLOBAL__N_116get_atomic_mutexEvE12atomic_mutex>
 8009238:	a1870513          	addi	a0,a4,-1512 # 20000a18 <_ZGVZN12_GLOBAL__N_116get_atomic_mutexEvE12atomic_mutex>
 800923c:	577d                	li	a4,-1
 800923e:	0007a023          	sw	zero,0(a5)
 8009242:	0007a223          	sw	zero,4(a5)
 8009246:	0007a423          	sw	zero,8(a5)
 800924a:	c7d8                	sw	a4,12(a5)
 800924c:	ffffd097          	auipc	ra,0xffffd
 8009250:	c3c080e7          	jalr	-964(ra) # 8005e88 <__cxa_guard_release>
 8009254:	bfad                	j	80091ce <_ZN9__gnu_cxx18__exchange_and_addEPVii+0x56>
 8009256:	4742                	lw	a4,16(sp)
 8009258:	4552                	lw	a0,20(sp)
 800925a:	47e2                	lw	a5,24(sp)
 800925c:	e72d                	bnez	a4,80092c6 <_ZN9__gnu_cxx18__exchange_and_addEPVii+0x14e>
 800925e:	577d                	li	a4,-1
 8009260:	06e79663          	bne	a5,a4,80092cc <_ZN9__gnu_cxx18__exchange_and_addEPVii+0x154>
 8009264:	c83e                	sw	a5,16(sp)
 8009266:	fffff097          	auipc	ra,0xfffff
 800926a:	090080e7          	jalr	144(ra) # 80082f6 <__cxa_call_unexpected>
 800926e:	4511                	li	a0,4
 8009270:	00000097          	auipc	ra,0x0
 8009274:	338080e7          	jalr	824(ra) # 80095a8 <__cxa_allocate_exception>
 8009278:	0800a7b7          	lui	a5,0x800a
 800927c:	54078793          	addi	a5,a5,1344 # 800a540 <_ZTVN9__gnu_cxx26__concurrence_unlock_errorE+0x8>
 8009280:	08008637          	lui	a2,0x8008
 8009284:	0800a5b7          	lui	a1,0x800a
 8009288:	c11c                	sw	a5,0(a0)
 800928a:	45c60613          	addi	a2,a2,1116 # 800845c <_ZN9__gnu_cxx26__concurrence_unlock_errorD1Ev>
 800928e:	51858593          	addi	a1,a1,1304 # 800a518 <_ZTIN9__gnu_cxx26__concurrence_unlock_errorE>
 8009292:	fffff097          	auipc	ra,0xfffff
 8009296:	544080e7          	jalr	1348(ra) # 80087d6 <__cxa_throw>
 800929a:	4511                	li	a0,4
 800929c:	00000097          	auipc	ra,0x0
 80092a0:	30c080e7          	jalr	780(ra) # 80095a8 <__cxa_allocate_exception>
 80092a4:	0800a7b7          	lui	a5,0x800a
 80092a8:	52c78793          	addi	a5,a5,1324 # 800a52c <_ZTVN9__gnu_cxx24__concurrence_lock_errorE+0x8>
 80092ac:	08008637          	lui	a2,0x8008
 80092b0:	0800a5b7          	lui	a1,0x800a
 80092b4:	c11c                	sw	a5,0(a0)
 80092b6:	44a60613          	addi	a2,a2,1098 # 800844a <_ZN9__gnu_cxx24__concurrence_lock_errorD1Ev>
 80092ba:	4e058593          	addi	a1,a1,1248 # 800a4e0 <_ZTIN9__gnu_cxx24__concurrence_lock_errorE>
 80092be:	fffff097          	auipc	ra,0xfffff
 80092c2:	518080e7          	jalr	1304(ra) # 80087d6 <__cxa_throw>
 80092c6:	177d                	addi	a4,a4,-1
 80092c8:	db59                	beqz	a4,800925e <_ZN9__gnu_cxx18__exchange_and_addEPVii+0xe6>
 80092ca:	9002                	ebreak
 80092cc:	c83a                	sw	a4,16(sp)
 80092ce:	ffffb097          	auipc	ra,0xffffb
 80092d2:	17e080e7          	jalr	382(ra) # 800444c <_Unwind_SjLj_Resume>

080092d6 <_ZNKSt9bad_alloc4whatEv>:
 80092d6:	0800a537          	lui	a0,0x800a
 80092da:	63850513          	addi	a0,a0,1592 # 800a638 <_ZTVN10__cxxabiv121__vmi_class_type_infoE+0x2c>
 80092de:	8082                	ret

080092e0 <_ZNSt9bad_allocD1Ev>:
 80092e0:	0800a7b7          	lui	a5,0x800a
 80092e4:	66c78793          	addi	a5,a5,1644 # 800a66c <_ZTVSt9bad_alloc+0x8>
 80092e8:	c11c                	sw	a5,0(a0)
 80092ea:	fffff317          	auipc	t1,0xfffff
 80092ee:	82a30067          	jr	-2006(t1) # 8007b14 <_ZNSt9exceptionD1Ev>

080092f2 <_ZNSt9bad_allocD0Ev>:
 80092f2:	1141                	addi	sp,sp,-16
 80092f4:	0800a7b7          	lui	a5,0x800a
 80092f8:	c422                	sw	s0,8(sp)
 80092fa:	c606                	sw	ra,12(sp)
 80092fc:	66c78793          	addi	a5,a5,1644 # 800a66c <_ZTVSt9bad_alloc+0x8>
 8009300:	c11c                	sw	a5,0(a0)
 8009302:	842a                	mv	s0,a0
 8009304:	fffff097          	auipc	ra,0xfffff
 8009308:	810080e7          	jalr	-2032(ra) # 8007b14 <_ZNSt9exceptionD1Ev>
 800930c:	8522                	mv	a0,s0
 800930e:	4422                	lw	s0,8(sp)
 8009310:	40b2                	lw	ra,12(sp)
 8009312:	4591                	li	a1,4
 8009314:	0141                	addi	sp,sp,16
 8009316:	ffffe317          	auipc	t1,0xffffe
 800931a:	6e830067          	jr	1768(t1) # 80079fe <_ZdlPvj>

0800931e <_ZN12_GLOBAL__N_14pool4freeEPv.constprop.0>:
 800931e:	080087b7          	lui	a5,0x8008
 8009322:	715d                	addi	sp,sp,-80
 8009324:	ec878793          	addi	a5,a5,-312 # 8007ec8 <__gxx_personality_sj0>
 8009328:	d23e                	sw	a5,36(sp)
 800932a:	0800a7b7          	lui	a5,0x800a
 800932e:	9d478793          	addi	a5,a5,-1580 # 80099d4 <_GLOBAL__sub_I__ZSt7nothrow+0x1d6>
 8009332:	d43e                	sw	a5,40(sp)
 8009334:	009c                	addi	a5,sp,64
 8009336:	d63e                	sw	a5,44(sp)
 8009338:	080097b7          	lui	a5,0x8009
 800933c:	872a                	mv	a4,a0
 800933e:	46478793          	addi	a5,a5,1124 # 8009464 <_ZN12_GLOBAL__N_14pool4freeEPv.constprop.0+0x146>
 8009342:	0068                	addi	a0,sp,12
 8009344:	c686                	sw	ra,76(sp)
 8009346:	c4a2                	sw	s0,72(sp)
 8009348:	d83e                	sw	a5,48(sp)
 800934a:	da0a                	sw	sp,52(sp)
 800934c:	c43a                	sw	a4,8(sp)
 800934e:	ffffb097          	auipc	ra,0xffffb
 8009352:	faa080e7          	jalr	-86(ra) # 80042f8 <_Unwind_SjLj_Register>
 8009356:	57fd                	li	a5,-1
 8009358:	c83e                	sw	a5,16(sp)
 800935a:	200017b7          	lui	a5,0x20001
 800935e:	99478513          	addi	a0,a5,-1644 # 20000994 <_ZN12_GLOBAL__N_114emergency_poolE>
 8009362:	ffffe097          	auipc	ra,0xffffe
 8009366:	aae080e7          	jalr	-1362(ra) # 8006e10 <pthread_mutex_lock>
 800936a:	e179                	bnez	a0,8009430 <_ZN12_GLOBAL__N_14pool4freeEPv.constprop.0+0x112>
 800936c:	200017b7          	lui	a5,0x20001
 8009370:	99478693          	addi	a3,a5,-1644 # 20000994 <_ZN12_GLOBAL__N_114emergency_poolE>
 8009374:	4722                	lw	a4,8(sp)
 8009376:	4a9c                	lw	a5,16(a3)
 8009378:	ff070513          	addi	a0,a4,-16
 800937c:	c799                	beqz	a5,800938a <_ZN12_GLOBAL__N_14pool4freeEPv.constprop.0+0x6c>
 800937e:	ff072803          	lw	a6,-16(a4)
 8009382:	010505b3          	add	a1,a0,a6
 8009386:	02f5fa63          	bgeu	a1,a5,80093ba <_ZN12_GLOBAL__N_14pool4freeEPv.constprop.0+0x9c>
 800938a:	4722                	lw	a4,8(sp)
 800938c:	fef72a23          	sw	a5,-12(a4)
 8009390:	ca88                	sw	a0,16(a3)
 8009392:	4785                	li	a5,1
 8009394:	c83e                	sw	a5,16(sp)
 8009396:	200017b7          	lui	a5,0x20001
 800939a:	99478513          	addi	a0,a5,-1644 # 20000994 <_ZN12_GLOBAL__N_114emergency_poolE>
 800939e:	ffffe097          	auipc	ra,0xffffe
 80093a2:	b5a080e7          	jalr	-1190(ra) # 8006ef8 <pthread_mutex_unlock>
 80093a6:	e949                	bnez	a0,8009438 <_ZN12_GLOBAL__N_14pool4freeEPv.constprop.0+0x11a>
 80093a8:	0068                	addi	a0,sp,12
 80093aa:	ffffb097          	auipc	ra,0xffffb
 80093ae:	f70080e7          	jalr	-144(ra) # 800431a <_Unwind_SjLj_Unregister>
 80093b2:	40b6                	lw	ra,76(sp)
 80093b4:	4426                	lw	s0,72(sp)
 80093b6:	6161                	addi	sp,sp,80
 80093b8:	8082                	ret
 80093ba:	43d8                	lw	a4,4(a5)
 80093bc:	04b78f63          	beq	a5,a1,800941a <_ZN12_GLOBAL__N_14pool4freeEPv.constprop.0+0xfc>
 80093c0:	01068613          	addi	a2,a3,16
 80093c4:	c315                	beqz	a4,80093e8 <_ZN12_GLOBAL__N_14pool4freeEPv.constprop.0+0xca>
 80093c6:	00e5fa63          	bgeu	a1,a4,80093da <_ZN12_GLOBAL__N_14pool4freeEPv.constprop.0+0xbc>
 80093ca:	4354                	lw	a3,4(a4)
 80093cc:	00478613          	addi	a2,a5,4
 80093d0:	ce95                	beqz	a3,800940c <_ZN12_GLOBAL__N_14pool4freeEPv.constprop.0+0xee>
 80093d2:	87ba                	mv	a5,a4
 80093d4:	8736                	mv	a4,a3
 80093d6:	fee5eae3          	bltu	a1,a4,80093ca <_ZN12_GLOBAL__N_14pool4freeEPv.constprop.0+0xac>
 80093da:	04e59963          	bne	a1,a4,800942c <_ZN12_GLOBAL__N_14pool4freeEPv.constprop.0+0x10e>
 80093de:	41d4                	lw	a3,4(a1)
 80093e0:	4198                	lw	a4,0(a1)
 80093e2:	c3d4                	sw	a3,4(a5)
 80093e4:	421c                	lw	a5,0(a2)
 80093e6:	983a                	add	a6,a6,a4
 80093e8:	4398                	lw	a4,0(a5)
 80093ea:	00e786b3          	add	a3,a5,a4
 80093ee:	00d50b63          	beq	a0,a3,8009404 <_ZN12_GLOBAL__N_14pool4freeEPv.constprop.0+0xe6>
 80093f2:	43dc                	lw	a5,4(a5)
 80093f4:	4722                	lw	a4,8(sp)
 80093f6:	fef72a23          	sw	a5,-12(a4)
 80093fa:	421c                	lw	a5,0(a2)
 80093fc:	ff072823          	sw	a6,-16(a4)
 8009400:	c3c8                	sw	a0,4(a5)
 8009402:	bf41                	j	8009392 <_ZN12_GLOBAL__N_14pool4freeEPv.constprop.0+0x74>
 8009404:	983a                	add	a6,a6,a4
 8009406:	0107a023          	sw	a6,0(a5)
 800940a:	b761                	j	8009392 <_ZN12_GLOBAL__N_14pool4freeEPv.constprop.0+0x74>
 800940c:	43dc                	lw	a5,4(a5)
 800940e:	4398                	lw	a4,0(a5)
 8009410:	00e786b3          	add	a3,a5,a4
 8009414:	fcd51fe3          	bne	a0,a3,80093f2 <_ZN12_GLOBAL__N_14pool4freeEPv.constprop.0+0xd4>
 8009418:	b7f5                	j	8009404 <_ZN12_GLOBAL__N_14pool4freeEPv.constprop.0+0xe6>
 800941a:	439c                	lw	a5,0(a5)
 800941c:	4622                	lw	a2,8(sp)
 800941e:	983e                	add	a6,a6,a5
 8009420:	fee62a23          	sw	a4,-12(a2)
 8009424:	ff062823          	sw	a6,-16(a2)
 8009428:	ca88                	sw	a0,16(a3)
 800942a:	b7a5                	j	8009392 <_ZN12_GLOBAL__N_14pool4freeEPv.constprop.0+0x74>
 800942c:	421c                	lw	a5,0(a2)
 800942e:	bf6d                	j	80093e8 <_ZN12_GLOBAL__N_14pool4freeEPv.constprop.0+0xca>
 8009430:	fffff097          	auipc	ra,0xfffff
 8009434:	096080e7          	jalr	150(ra) # 80084c6 <_ZN9__gnu_cxx30__throw_concurrence_lock_errorEv>
 8009438:	4511                	li	a0,4
 800943a:	00000097          	auipc	ra,0x0
 800943e:	16e080e7          	jalr	366(ra) # 80095a8 <__cxa_allocate_exception>
 8009442:	0800a7b7          	lui	a5,0x800a
 8009446:	54078793          	addi	a5,a5,1344 # 800a540 <_ZTVN9__gnu_cxx26__concurrence_unlock_errorE+0x8>
 800944a:	08008637          	lui	a2,0x8008
 800944e:	0800a5b7          	lui	a1,0x800a
 8009452:	c11c                	sw	a5,0(a0)
 8009454:	45c60613          	addi	a2,a2,1116 # 800845c <_ZN9__gnu_cxx26__concurrence_unlock_errorD1Ev>
 8009458:	51858593          	addi	a1,a1,1304 # 800a518 <_ZTIN9__gnu_cxx26__concurrence_unlock_errorE>
 800945c:	fffff097          	auipc	ra,0xfffff
 8009460:	37a080e7          	jalr	890(ra) # 80087d6 <__cxa_throw>
 8009464:	47e2                	lw	a5,24(sp)
 8009466:	577d                	li	a4,-1
 8009468:	4552                	lw	a0,20(sp)
 800946a:	00e79763          	bne	a5,a4,8009478 <_ZN12_GLOBAL__N_14pool4freeEPv.constprop.0+0x15a>
 800946e:	c83e                	sw	a5,16(sp)
 8009470:	fffff097          	auipc	ra,0xfffff
 8009474:	e86080e7          	jalr	-378(ra) # 80082f6 <__cxa_call_unexpected>
 8009478:	c83a                	sw	a4,16(sp)
 800947a:	ffffb097          	auipc	ra,0xffffb
 800947e:	fd2080e7          	jalr	-46(ra) # 800444c <_Unwind_SjLj_Resume>

08009482 <_ZN12_GLOBAL__N_14pool8allocateEj.constprop.0>:
 8009482:	080087b7          	lui	a5,0x8008
 8009486:	715d                	addi	sp,sp,-80
 8009488:	ec878793          	addi	a5,a5,-312 # 8007ec8 <__gxx_personality_sj0>
 800948c:	d23e                	sw	a5,36(sp)
 800948e:	0800a7b7          	lui	a5,0x800a
 8009492:	9e478793          	addi	a5,a5,-1564 # 80099e4 <_GLOBAL__sub_I__ZSt7nothrow+0x1e6>
 8009496:	d43e                	sw	a5,40(sp)
 8009498:	009c                	addi	a5,sp,64
 800949a:	d63e                	sw	a5,44(sp)
 800949c:	080097b7          	lui	a5,0x8009
 80094a0:	872a                	mv	a4,a0
 80094a2:	58a78793          	addi	a5,a5,1418 # 800958a <_ZN12_GLOBAL__N_14pool8allocateEj.constprop.0+0x108>
 80094a6:	0068                	addi	a0,sp,12
 80094a8:	c686                	sw	ra,76(sp)
 80094aa:	c4a2                	sw	s0,72(sp)
 80094ac:	d83e                	sw	a5,48(sp)
 80094ae:	da0a                	sw	sp,52(sp)
 80094b0:	c43a                	sw	a4,8(sp)
 80094b2:	ffffb097          	auipc	ra,0xffffb
 80094b6:	e46080e7          	jalr	-442(ra) # 80042f8 <_Unwind_SjLj_Register>
 80094ba:	57fd                	li	a5,-1
 80094bc:	c83e                	sw	a5,16(sp)
 80094be:	200017b7          	lui	a5,0x20001
 80094c2:	99478513          	addi	a0,a5,-1644 # 20000994 <_ZN12_GLOBAL__N_114emergency_poolE>
 80094c6:	ffffe097          	auipc	ra,0xffffe
 80094ca:	94a080e7          	jalr	-1718(ra) # 8006e10 <pthread_mutex_lock>
 80094ce:	e541                	bnez	a0,8009556 <_ZN12_GLOBAL__N_14pool8allocateEj.constprop.0+0xd4>
 80094d0:	47a2                	lw	a5,8(sp)
 80094d2:	01078693          	addi	a3,a5,16
 80094d6:	47a1                	li	a5,8
 80094d8:	00f6f363          	bgeu	a3,a5,80094de <_ZN12_GLOBAL__N_14pool8allocateEj.constprop.0+0x5c>
 80094dc:	46a1                	li	a3,8
 80094de:	200017b7          	lui	a5,0x20001
 80094e2:	99478613          	addi	a2,a5,-1644 # 20000994 <_ZN12_GLOBAL__N_114emergency_poolE>
 80094e6:	4a1c                	lw	a5,16(a2)
 80094e8:	06bd                	addi	a3,a3,15
 80094ea:	9ac1                	andi	a3,a3,-16
 80094ec:	c43e                	sw	a5,8(sp)
 80094ee:	c795                	beqz	a5,800951a <_ZN12_GLOBAL__N_14pool8allocateEj.constprop.0+0x98>
 80094f0:	0641                	addi	a2,a2,16
 80094f2:	a021                	j	80094fa <_ZN12_GLOBAL__N_14pool8allocateEj.constprop.0+0x78>
 80094f4:	00470613          	addi	a2,a4,4
 80094f8:	c18d                	beqz	a1,800951a <_ZN12_GLOBAL__N_14pool8allocateEj.constprop.0+0x98>
 80094fa:	45a2                	lw	a1,8(sp)
 80094fc:	419c                	lw	a5,0(a1)
 80094fe:	872e                	mv	a4,a1
 8009500:	41cc                	lw	a1,4(a1)
 8009502:	c42e                	sw	a1,8(sp)
 8009504:	fed7e8e3          	bltu	a5,a3,80094f4 <_ZN12_GLOBAL__N_14pool8allocateEj.constprop.0+0x72>
 8009508:	8f95                	sub	a5,a5,a3
 800950a:	459d                	li	a1,7
 800950c:	02f5ec63          	bltu	a1,a5,8009544 <_ZN12_GLOBAL__N_14pool8allocateEj.constprop.0+0xc2>
 8009510:	47a2                	lw	a5,8(sp)
 8009512:	c21c                	sw	a5,0(a2)
 8009514:	01070793          	addi	a5,a4,16
 8009518:	c43e                	sw	a5,8(sp)
 800951a:	4785                	li	a5,1
 800951c:	c83e                	sw	a5,16(sp)
 800951e:	200017b7          	lui	a5,0x20001
 8009522:	99478513          	addi	a0,a5,-1644 # 20000994 <_ZN12_GLOBAL__N_114emergency_poolE>
 8009526:	ffffe097          	auipc	ra,0xffffe
 800952a:	9d2080e7          	jalr	-1582(ra) # 8006ef8 <pthread_mutex_unlock>
 800952e:	e905                	bnez	a0,800955e <_ZN12_GLOBAL__N_14pool8allocateEj.constprop.0+0xdc>
 8009530:	0068                	addi	a0,sp,12
 8009532:	ffffb097          	auipc	ra,0xffffb
 8009536:	de8080e7          	jalr	-536(ra) # 800431a <_Unwind_SjLj_Unregister>
 800953a:	40b6                	lw	ra,76(sp)
 800953c:	4426                	lw	s0,72(sp)
 800953e:	4522                	lw	a0,8(sp)
 8009540:	6161                	addi	sp,sp,80
 8009542:	8082                	ret
 8009544:	00d705b3          	add	a1,a4,a3
 8009548:	4722                	lw	a4,8(sp)
 800954a:	c1d8                	sw	a4,4(a1)
 800954c:	4218                	lw	a4,0(a2)
 800954e:	c19c                	sw	a5,0(a1)
 8009550:	c314                	sw	a3,0(a4)
 8009552:	c20c                	sw	a1,0(a2)
 8009554:	b7c1                	j	8009514 <_ZN12_GLOBAL__N_14pool8allocateEj.constprop.0+0x92>
 8009556:	fffff097          	auipc	ra,0xfffff
 800955a:	f70080e7          	jalr	-144(ra) # 80084c6 <_ZN9__gnu_cxx30__throw_concurrence_lock_errorEv>
 800955e:	4511                	li	a0,4
 8009560:	00000097          	auipc	ra,0x0
 8009564:	048080e7          	jalr	72(ra) # 80095a8 <__cxa_allocate_exception>
 8009568:	0800a7b7          	lui	a5,0x800a
 800956c:	54078793          	addi	a5,a5,1344 # 800a540 <_ZTVN9__gnu_cxx26__concurrence_unlock_errorE+0x8>
 8009570:	08008637          	lui	a2,0x8008
 8009574:	0800a5b7          	lui	a1,0x800a
 8009578:	c11c                	sw	a5,0(a0)
 800957a:	45c60613          	addi	a2,a2,1116 # 800845c <_ZN9__gnu_cxx26__concurrence_unlock_errorD1Ev>
 800957e:	51858593          	addi	a1,a1,1304 # 800a518 <_ZTIN9__gnu_cxx26__concurrence_unlock_errorE>
 8009582:	fffff097          	auipc	ra,0xfffff
 8009586:	254080e7          	jalr	596(ra) # 80087d6 <__cxa_throw>
 800958a:	47e2                	lw	a5,24(sp)
 800958c:	577d                	li	a4,-1
 800958e:	4552                	lw	a0,20(sp)
 8009590:	00e79763          	bne	a5,a4,800959e <_ZN12_GLOBAL__N_14pool8allocateEj.constprop.0+0x11c>
 8009594:	c83e                	sw	a5,16(sp)
 8009596:	fffff097          	auipc	ra,0xfffff
 800959a:	d60080e7          	jalr	-672(ra) # 80082f6 <__cxa_call_unexpected>
 800959e:	c83a                	sw	a4,16(sp)
 80095a0:	ffffb097          	auipc	ra,0xffffb
 80095a4:	eac080e7          	jalr	-340(ra) # 800444c <_Unwind_SjLj_Resume>

080095a8 <__cxa_allocate_exception>:
 80095a8:	080087b7          	lui	a5,0x8008
 80095ac:	715d                	addi	sp,sp,-80
 80095ae:	ec878793          	addi	a5,a5,-312 # 8007ec8 <__gxx_personality_sj0>
 80095b2:	d23e                	sw	a5,36(sp)
 80095b4:	0800a7b7          	lui	a5,0x800a
 80095b8:	9f178793          	addi	a5,a5,-1551 # 80099f1 <_GLOBAL__sub_I__ZSt7nothrow+0x1f3>
 80095bc:	c4a2                	sw	s0,72(sp)
 80095be:	842a                	mv	s0,a0
 80095c0:	0068                	addi	a0,sp,12
 80095c2:	d43e                	sw	a5,40(sp)
 80095c4:	c686                	sw	ra,76(sp)
 80095c6:	06040413          	addi	s0,s0,96
 80095ca:	ffffb097          	auipc	ra,0xffffb
 80095ce:	d2e080e7          	jalr	-722(ra) # 80042f8 <_Unwind_SjLj_Register>
 80095d2:	8522                	mv	a0,s0
 80095d4:	ffff7097          	auipc	ra,0xffff7
 80095d8:	3b2080e7          	jalr	946(ra) # 8000986 <malloc>
 80095dc:	87aa                	mv	a5,a0
 80095de:	c50d                	beqz	a0,8009608 <__cxa_allocate_exception+0x60>
 80095e0:	06000613          	li	a2,96
 80095e4:	4581                	li	a1,0
 80095e6:	853e                	mv	a0,a5
 80095e8:	ffff8097          	auipc	ra,0xffff8
 80095ec:	c2c080e7          	jalr	-980(ra) # 8001214 <memset>
 80095f0:	06050413          	addi	s0,a0,96
 80095f4:	0068                	addi	a0,sp,12
 80095f6:	ffffb097          	auipc	ra,0xffffb
 80095fa:	d24080e7          	jalr	-732(ra) # 800431a <_Unwind_SjLj_Unregister>
 80095fe:	40b6                	lw	ra,76(sp)
 8009600:	8522                	mv	a0,s0
 8009602:	4426                	lw	s0,72(sp)
 8009604:	6161                	addi	sp,sp,80
 8009606:	8082                	ret
 8009608:	8522                	mv	a0,s0
 800960a:	c802                	sw	zero,16(sp)
 800960c:	00000097          	auipc	ra,0x0
 8009610:	e76080e7          	jalr	-394(ra) # 8009482 <_ZN12_GLOBAL__N_14pool8allocateEj.constprop.0>
 8009614:	87aa                	mv	a5,a0
 8009616:	f569                	bnez	a0,80095e0 <__cxa_allocate_exception+0x38>
 8009618:	fffff097          	auipc	ra,0xfffff
 800961c:	048080e7          	jalr	72(ra) # 8008660 <_ZSt9terminatev>

08009620 <__cxa_free_exception>:
 8009620:	080087b7          	lui	a5,0x8008
 8009624:	715d                	addi	sp,sp,-80
 8009626:	ec878793          	addi	a5,a5,-312 # 8007ec8 <__gxx_personality_sj0>
 800962a:	d23e                	sw	a5,36(sp)
 800962c:	0800a7b7          	lui	a5,0x800a
 8009630:	9f578793          	addi	a5,a5,-1547 # 80099f5 <_GLOBAL__sub_I__ZSt7nothrow+0x1f7>
 8009634:	c4a2                	sw	s0,72(sp)
 8009636:	842a                	mv	s0,a0
 8009638:	0068                	addi	a0,sp,12
 800963a:	d43e                	sw	a5,40(sp)
 800963c:	c686                	sw	ra,76(sp)
 800963e:	ffffb097          	auipc	ra,0xffffb
 8009642:	cba080e7          	jalr	-838(ra) # 80042f8 <_Unwind_SjLj_Register>
 8009646:	200017b7          	lui	a5,0x20001
 800964a:	99478793          	addi	a5,a5,-1644 # 20000994 <_ZN12_GLOBAL__N_114emergency_poolE>
 800964e:	4bd8                	lw	a4,20(a5)
 8009650:	fa040513          	addi	a0,s0,-96
 8009654:	00a77663          	bgeu	a4,a0,8009660 <__cxa_free_exception+0x40>
 8009658:	4f9c                	lw	a5,24(a5)
 800965a:	973e                	add	a4,a4,a5
 800965c:	00e56f63          	bltu	a0,a4,800967a <__cxa_free_exception+0x5a>
 8009660:	ffff7097          	auipc	ra,0xffff7
 8009664:	346080e7          	jalr	838(ra) # 80009a6 <free>
 8009668:	0068                	addi	a0,sp,12
 800966a:	ffffb097          	auipc	ra,0xffffb
 800966e:	cb0080e7          	jalr	-848(ra) # 800431a <_Unwind_SjLj_Unregister>
 8009672:	40b6                	lw	ra,76(sp)
 8009674:	4426                	lw	s0,72(sp)
 8009676:	6161                	addi	sp,sp,80
 8009678:	8082                	ret
 800967a:	c802                	sw	zero,16(sp)
 800967c:	00000097          	auipc	ra,0x0
 8009680:	ca2080e7          	jalr	-862(ra) # 800931e <_ZN12_GLOBAL__N_14pool4freeEPv.constprop.0>
 8009684:	0068                	addi	a0,sp,12
 8009686:	ffffb097          	auipc	ra,0xffffb
 800968a:	c94080e7          	jalr	-876(ra) # 800431a <_Unwind_SjLj_Unregister>
 800968e:	40b6                	lw	ra,76(sp)
 8009690:	4426                	lw	s0,72(sp)
 8009692:	6161                	addi	sp,sp,80
 8009694:	8082                	ret

08009696 <_GLOBAL__sub_I__ZN9__gnu_cxx9__freeresEv>:
 8009696:	1141                	addi	sp,sp,-16
 8009698:	c422                	sw	s0,8(sp)
 800969a:	20001437          	lui	s0,0x20001
 800969e:	99440413          	addi	s0,s0,-1644 # 20000994 <_ZN12_GLOBAL__N_114emergency_poolE>
 80096a2:	c226                	sw	s1,4(sp)
 80096a4:	57fd                	li	a5,-1
 80096a6:	2d000493          	li	s1,720
 80096aa:	2d000513          	li	a0,720
 80096ae:	c606                	sw	ra,12(sp)
 80096b0:	00042023          	sw	zero,0(s0)
 80096b4:	00042223          	sw	zero,4(s0)
 80096b8:	00042423          	sw	zero,8(s0)
 80096bc:	c45c                	sw	a5,12(s0)
 80096be:	cc04                	sw	s1,24(s0)
 80096c0:	ffff7097          	auipc	ra,0xffff7
 80096c4:	2c6080e7          	jalr	710(ra) # 8000986 <malloc>
 80096c8:	c848                	sw	a0,20(s0)
 80096ca:	c911                	beqz	a0,80096de <_GLOBAL__sub_I__ZN9__gnu_cxx9__freeresEv+0x48>
 80096cc:	c808                	sw	a0,16(s0)
 80096ce:	c104                	sw	s1,0(a0)
 80096d0:	00052223          	sw	zero,4(a0)
 80096d4:	40b2                	lw	ra,12(sp)
 80096d6:	4422                	lw	s0,8(sp)
 80096d8:	4492                	lw	s1,4(sp)
 80096da:	0141                	addi	sp,sp,16
 80096dc:	8082                	ret
 80096de:	00042c23          	sw	zero,24(s0)
 80096e2:	00042823          	sw	zero,16(s0)
 80096e6:	b7fd                	j	80096d4 <_GLOBAL__sub_I__ZN9__gnu_cxx9__freeresEv+0x3e>

080096e8 <__cxa_call_terminate>:
 80096e8:	1141                	addi	sp,sp,-16
 80096ea:	c606                	sw	ra,12(sp)
 80096ec:	c422                	sw	s0,8(sp)
 80096ee:	c505                	beqz	a0,8009716 <__cxa_call_terminate+0x2e>
 80096f0:	842a                	mv	s0,a0
 80096f2:	ffffe097          	auipc	ra,0xffffe
 80096f6:	31c080e7          	jalr	796(ra) # 8007a0e <__cxa_begin_catch>
 80096fa:	20001637          	lui	a2,0x20001
 80096fe:	401c                	lw	a5,0(s0)
 8009700:	ba862703          	lw	a4,-1112(a2) # 20000ba8 <_bss_end>
 8009704:	4054                	lw	a3,4(s0)
 8009706:	bac62603          	lw	a2,-1108(a2)
 800970a:	973e                	add	a4,a4,a5
 800970c:	00f737b3          	sltu	a5,a4,a5
 8009710:	96b2                	add	a3,a3,a2
 8009712:	97b6                	add	a5,a5,a3
 8009714:	c789                	beqz	a5,800971e <__cxa_call_terminate+0x36>
 8009716:	fffff097          	auipc	ra,0xfffff
 800971a:	f4a080e7          	jalr	-182(ra) # 8008660 <_ZSt9terminatev>
 800971e:	4785                	li	a5,1
 8009720:	fee7ebe3          	bltu	a5,a4,8009716 <__cxa_call_terminate+0x2e>
 8009724:	fdc42503          	lw	a0,-36(s0)
 8009728:	fffff097          	auipc	ra,0xfffff
 800972c:	dce080e7          	jalr	-562(ra) # 80084f6 <_ZN10__cxxabiv111__terminateEPFvvE>

08009730 <_ZSt15get_new_handlerv>:
 8009730:	080087b7          	lui	a5,0x8008
 8009734:	715d                	addi	sp,sp,-80
 8009736:	ec878793          	addi	a5,a5,-312 # 8007ec8 <__gxx_personality_sj0>
 800973a:	d23e                	sw	a5,36(sp)
 800973c:	0800a7b7          	lui	a5,0x800a
 8009740:	9fc78793          	addi	a5,a5,-1540 # 80099fc <_GLOBAL__sub_I__ZSt7nothrow+0x1fe>
 8009744:	d43e                	sw	a5,40(sp)
 8009746:	009c                	addi	a5,sp,64
 8009748:	d63e                	sw	a5,44(sp)
 800974a:	080097b7          	lui	a5,0x8009
 800974e:	7e078793          	addi	a5,a5,2016 # 80097e0 <_ZSt15get_new_handlerv+0xb0>
 8009752:	0068                	addi	a0,sp,12
 8009754:	c686                	sw	ra,76(sp)
 8009756:	c4a2                	sw	s0,72(sp)
 8009758:	d83e                	sw	a5,48(sp)
 800975a:	da0a                	sw	sp,52(sp)
 800975c:	ffffb097          	auipc	ra,0xffffb
 8009760:	b9c080e7          	jalr	-1124(ra) # 80042f8 <_Unwind_SjLj_Register>
 8009764:	200017b7          	lui	a5,0x20001
 8009768:	9b078513          	addi	a0,a5,-1616 # 200009b0 <_ZN12_GLOBAL__N_12mxE>
 800976c:	c802                	sw	zero,16(sp)
 800976e:	ffffd097          	auipc	ra,0xffffd
 8009772:	6a2080e7          	jalr	1698(ra) # 8006e10 <pthread_mutex_lock>
 8009776:	e91d                	bnez	a0,80097ac <_ZSt15get_new_handlerv+0x7c>
 8009778:	200017b7          	lui	a5,0x20001
 800977c:	a207a783          	lw	a5,-1504(a5) # 20000a20 <_ZN12_GLOBAL__N_113__new_handlerE>
 8009780:	c43e                	sw	a5,8(sp)
 8009782:	200017b7          	lui	a5,0x20001
 8009786:	9b078513          	addi	a0,a5,-1616 # 200009b0 <_ZN12_GLOBAL__N_12mxE>
 800978a:	4785                	li	a5,1
 800978c:	c83e                	sw	a5,16(sp)
 800978e:	ffffd097          	auipc	ra,0xffffd
 8009792:	76a080e7          	jalr	1898(ra) # 8006ef8 <pthread_mutex_unlock>
 8009796:	ed19                	bnez	a0,80097b4 <_ZSt15get_new_handlerv+0x84>
 8009798:	0068                	addi	a0,sp,12
 800979a:	ffffb097          	auipc	ra,0xffffb
 800979e:	b80080e7          	jalr	-1152(ra) # 800431a <_Unwind_SjLj_Unregister>
 80097a2:	40b6                	lw	ra,76(sp)
 80097a4:	4426                	lw	s0,72(sp)
 80097a6:	4522                	lw	a0,8(sp)
 80097a8:	6161                	addi	sp,sp,80
 80097aa:	8082                	ret
 80097ac:	fffff097          	auipc	ra,0xfffff
 80097b0:	d1a080e7          	jalr	-742(ra) # 80084c6 <_ZN9__gnu_cxx30__throw_concurrence_lock_errorEv>
 80097b4:	4511                	li	a0,4
 80097b6:	00000097          	auipc	ra,0x0
 80097ba:	df2080e7          	jalr	-526(ra) # 80095a8 <__cxa_allocate_exception>
 80097be:	0800a7b7          	lui	a5,0x800a
 80097c2:	54078793          	addi	a5,a5,1344 # 800a540 <_ZTVN9__gnu_cxx26__concurrence_unlock_errorE+0x8>
 80097c6:	08008637          	lui	a2,0x8008
 80097ca:	0800a5b7          	lui	a1,0x800a
 80097ce:	c11c                	sw	a5,0(a0)
 80097d0:	45c60613          	addi	a2,a2,1116 # 800845c <_ZN9__gnu_cxx26__concurrence_unlock_errorD1Ev>
 80097d4:	51858593          	addi	a1,a1,1304 # 800a518 <_ZTIN9__gnu_cxx26__concurrence_unlock_errorE>
 80097d8:	fffff097          	auipc	ra,0xfffff
 80097dc:	ffe080e7          	jalr	-2(ra) # 80087d6 <__cxa_throw>
 80097e0:	47e2                	lw	a5,24(sp)
 80097e2:	577d                	li	a4,-1
 80097e4:	4552                	lw	a0,20(sp)
 80097e6:	00e79763          	bne	a5,a4,80097f4 <_ZSt15get_new_handlerv+0xc4>
 80097ea:	c83e                	sw	a5,16(sp)
 80097ec:	fffff097          	auipc	ra,0xfffff
 80097f0:	b0a080e7          	jalr	-1270(ra) # 80082f6 <__cxa_call_unexpected>
 80097f4:	c83a                	sw	a4,16(sp)
 80097f6:	ffffb097          	auipc	ra,0xffffb
 80097fa:	c56080e7          	jalr	-938(ra) # 800444c <_Unwind_SjLj_Resume>

080097fe <_GLOBAL__sub_I__ZSt7nothrow>:
 80097fe:	200017b7          	lui	a5,0x20001
 8009802:	9b078793          	addi	a5,a5,-1616 # 200009b0 <_ZN12_GLOBAL__N_12mxE>
 8009806:	577d                	li	a4,-1
 8009808:	0007a023          	sw	zero,0(a5)
 800980c:	0007a223          	sw	zero,4(a5)
 8009810:	0007a423          	sw	zero,8(a5)
 8009814:	c7d8                	sw	a4,12(a5)
 8009816:	8082                	ret
 8009818:	9bff                	0x9bff
 800981a:	0315                	addi	t1,t1,5
 800981c:	0006                	c.slli	zero,0x1
 800981e:	02000103          	lb	sp,32(zero) # 20 <_main_stack_size-0x3e0>
 8009822:	0200                	addi	s0,sp,256
 8009824:	0100                	addi	s0,sp,128
 8009826:	007d                	c.nop	31
 8009828:	0000                	unimp
 800982a:	0000                	unimp
 800982c:	7040                	flw	fs0,36(s0)
 800982e:	17ff                	0x17ff
 8009830:	ffff                	0xffff
 8009832:	00000203          	lb	tp,0(zero) # 0 <_main_stack_size-0x400>
 8009836:	ffff                	0xffff
 8009838:	ffff0003          	lb	zero,-1(t5)
 800983c:	ffff0003          	lb	zero,-1(t5)
 8009840:	00000403          	lb	s0,0(zero) # 0 <_main_stack_size-0x400>
 8009844:	0001                	nop
 8009846:	ffff                	0xffff
 8009848:	00000203          	lb	tp,0(zero) # 0 <_main_stack_size-0x400>
 800984c:	ffff                	0xffff
 800984e:	00000203          	lb	tp,0(zero) # 0 <_main_stack_size-0x400>
 8009852:	0000                	unimp
 8009854:	9bff                	0x9bff
 8009856:	030d                	addi	t1,t1,3
 8009858:	0002                	c.slli64	zero
 800985a:	0101                	addi	sp,sp,0
 800985c:	0000                	unimp
 800985e:	0000                	unimp
 8009860:	700c                	flw	fa1,32(s0)
 8009862:	17ff                	0x17ff
 8009864:	9bff                	0x9bff
 8009866:	0311                	addi	t1,t1,4
 8009868:	0004                	0x4
 800986a:	0101                	addi	sp,sp,0
 800986c:	00000103          	lb	sp,0(zero) # 0 <_main_stack_size-0x400>
 8009870:	007d                	c.nop	31
 8009872:	0000                	unimp
 8009874:	6ff8                	flw	fa4,92(a5)
 8009876:	17ff                	0x17ff
 8009878:	9bff                	0x9bff
 800987a:	0311                	addi	t1,t1,4
 800987c:	0004                	0x4
 800987e:	0101                	addi	sp,sp,0
 8009880:	00000103          	lb	sp,0(zero) # 0 <_main_stack_size-0x400>
 8009884:	007d                	c.nop	31
 8009886:	0000                	unimp
 8009888:	6fe4                	flw	fs1,92(a5)
 800988a:	17ff                	0x17ff
 800988c:	9bff                	0x9bff
 800988e:	0311                	addi	t1,t1,4
 8009890:	0004                	0x4
 8009892:	0101                	addi	sp,sp,0
 8009894:	00000103          	lb	sp,0(zero) # 0 <_main_stack_size-0x400>
 8009898:	007d                	c.nop	31
 800989a:	0000                	unimp
 800989c:	6fd0                	flw	fa2,28(a5)
 800989e:	17ff                	0x17ff
 80098a0:	9bff                	0x9bff
 80098a2:	0311                	addi	t1,t1,4
 80098a4:	0004                	0x4
 80098a6:	0101                	addi	sp,sp,0
 80098a8:	00000103          	lb	sp,0(zero) # 0 <_main_stack_size-0x400>
 80098ac:	007d                	c.nop	31
 80098ae:	0000                	unimp
 80098b0:	6fbc                	flw	fa5,88(a5)
 80098b2:	17ff                	0x17ff
 80098b4:	9bff                	0x9bff
 80098b6:	0311                	addi	t1,t1,4
 80098b8:	0004                	0x4
 80098ba:	0101                	addi	sp,sp,0
 80098bc:	00000103          	lb	sp,0(zero) # 0 <_main_stack_size-0x400>
 80098c0:	007d                	c.nop	31
 80098c2:	0000                	unimp
 80098c4:	6fa8                	flw	fa0,88(a5)
 80098c6:	17ff                	0x17ff
 80098c8:	9bff                	0x9bff
 80098ca:	0311                	addi	t1,t1,4
 80098cc:	0004                	0x4
 80098ce:	0101                	addi	sp,sp,0
 80098d0:	00000103          	lb	sp,0(zero) # 0 <_main_stack_size-0x400>
 80098d4:	007d                	c.nop	31
 80098d6:	0000                	unimp
 80098d8:	6f94                	flw	fa3,24(a5)
 80098da:	17ff                	0x17ff
 80098dc:	ffff                	0xffff
 80098de:	00000603          	lb	a2,0(zero) # 0 <_main_stack_size-0x400>
 80098e2:	0001                	nop
 80098e4:	0002                	c.slli64	zero
 80098e6:	ffff                	0xffff
 80098e8:	ffff0003          	lb	zero,-1(t5)
 80098ec:	ffff0003          	lb	zero,-1(t5)
 80098f0:	00000203          	lb	tp,0(zero) # 0 <_main_stack_size-0x400>
 80098f4:	ffff                	0xffff
 80098f6:	00000203          	lb	tp,0(zero) # 0 <_main_stack_size-0x400>
 80098fa:	ffff                	0xffff
 80098fc:	00000203          	lb	tp,0(zero) # 0 <_main_stack_size-0x400>
 8009900:	ffff                	0xffff
 8009902:	00000203          	lb	tp,0(zero) # 0 <_main_stack_size-0x400>
 8009906:	ffff                	0xffff
 8009908:	00000003          	lb	zero,0(zero) # 0 <_main_stack_size-0x400>
 800990c:	9bff                	0x9bff
 800990e:	0315                	addi	t1,t1,5
 8009910:	0006                	c.slli	zero,0x1
 8009912:	02000103          	lb	sp,32(zero) # 20 <_main_stack_size-0x3e0>
 8009916:	0200                	addi	s0,sp,256
 8009918:	0100                	addi	s0,sp,128
 800991a:	007d                	c.nop	31
 800991c:	0000                	unimp
 800991e:	0000                	unimp
 8009920:	6f4c                	flw	fa1,28(a4)
 8009922:	17ff                	0x17ff
 8009924:	ffff                	0xffff
 8009926:	00001003          	lh	zero,0(zero) # 0 <_main_stack_size-0x400>
 800992a:	0001                	nop
 800992c:	0002                	c.slli64	zero
 800992e:	00040003          	lb	zero,0(s0)
 8009932:	0005                	c.nop	1
 8009934:	0006                	c.slli	zero,0x1
 8009936:	ffff0007          	0xffff0007
 800993a:	00000203          	lb	tp,0(zero) # 0 <_main_stack_size-0x400>
 800993e:	ffff                	0xffff
 8009940:	00000203          	lb	tp,0(zero) # 0 <_main_stack_size-0x400>
 8009944:	ffff                	0xffff
 8009946:	00000203          	lb	tp,0(zero) # 0 <_main_stack_size-0x400>
 800994a:	ffff                	0xffff
 800994c:	ffff0003          	lb	zero,-1(t5)
 8009950:	ffff0003          	lb	zero,-1(t5)
 8009954:	ffff0003          	lb	zero,-1(t5)
 8009958:	00000603          	lb	a2,0(zero) # 0 <_main_stack_size-0x400>
 800995c:	0001                	nop
 800995e:	0002                	c.slli64	zero
 8009960:	ffff                	0xffff
 8009962:	00000203          	lb	tp,0(zero) # 0 <_main_stack_size-0x400>
 8009966:	ffff                	0xffff
 8009968:	00000003          	lb	zero,0(zero) # 0 <_main_stack_size-0x400>
 800996c:	9bff                	0x9bff
 800996e:	030d                	addi	t1,t1,3
 8009970:	0002                	c.slli64	zero
 8009972:	0101                	addi	sp,sp,0
	...
 800997c:	9bff                	0x9bff
 800997e:	030d                	addi	t1,t1,3
 8009980:	0004                	0x4
 8009982:	0101                	addi	sp,sp,0
 8009984:	0100                	addi	s0,sp,128
 8009986:	0000                	unimp
 8009988:	0000                	unimp
 800998a:	0000                	unimp
 800998c:	9bff                	0x9bff
 800998e:	0311                	addi	t1,t1,4
 8009990:	0004                	0x4
 8009992:	0101                	addi	sp,sp,0
 8009994:	0105                	addi	sp,sp,1
 8009996:	7f00                	flw	fs0,56(a4)
 8009998:	0000                	unimp
 800999a:	007d                	c.nop	31
	...
 80099a4:	9bff                	0x9bff
 80099a6:	0309                	addi	t1,t1,2
 80099a8:	0002                	c.slli64	zero
 80099aa:	7f01                	lui	t5,0xfffe0
	...
 80099b4:	9bff                	0x9bff
 80099b6:	0309                	addi	t1,t1,2
 80099b8:	0002                	c.slli64	zero
 80099ba:	7f01                	lui	t5,0xfffe0
	...
 80099c4:	9bff                	0x9bff
 80099c6:	0309                	addi	t1,t1,2
 80099c8:	0004                	0x4
 80099ca:	0101                	addi	sp,sp,0
 80099cc:	7f01                	lui	t5,0xfffe0
 80099ce:	0000                	unimp
 80099d0:	0000                	unimp
 80099d2:	0000                	unimp
 80099d4:	9bff                	0x9bff
 80099d6:	0309                	addi	t1,t1,2
 80099d8:	0002                	c.slli64	zero
 80099da:	7f01                	lui	t5,0xfffe0
	...
 80099e4:	9bff                	0x9bff
 80099e6:	0309                	addi	t1,t1,2
 80099e8:	0002                	c.slli64	zero
 80099ea:	7f01                	lui	t5,0xfffe0
 80099ec:	0000                	unimp
 80099ee:	0000                	unimp
 80099f0:	ff00                	fsw	fs0,56(a4)
 80099f2:	03ff                	0x3ff
 80099f4:	ff00                	fsw	fs0,56(a4)
 80099f6:	03ff                	0x3ff
 80099f8:	0000                	unimp
 80099fa:	0000                	unimp
 80099fc:	9bff                	0x9bff
 80099fe:	0309                	addi	t1,t1,2
 8009a00:	0002                	c.slli64	zero
 8009a02:	7f01                	lui	t5,0xfffe0
	...

08009a0c <_ZN6miosixL3verE>:
 8009a0c:	694d 736f 7869 7620 2e32 2035 6728 3364     Miosix v2.5 (gd3
 8009a1c:	7632 3166 3330 6263 3674 6c5f 6e6f 6167     2vf103cbt6_longa
 8009a2c:	5f6e 616e 6f6e 202c 7541 2067 3033 3220     n_nano, Aug 30 2
 8009a3c:	3230 2033 3731 313a 3a30 3232 202c 6367     023 17:10:22, gc
 8009a4c:	2063 2e39 2e32 2d30 706d 2e32 2931 0000     c 9.2.0-mp2.1)..
 8009a5c:	6c34 0800 6c66 0800 6c98 0800 6cca 0800     4l..fl...l...l..
 8009a6c:	6cfc 0800 6d2e 0800 6b94 0800 6c02 0800     .l...m...k...l..
 8009a7c:	6da4 0800 6da8 0800 6dac 0800 6db0 0800     .m...m...m...m..
 8009a8c:	6db4 0800 6db8 0800 6dbc 0800 6d7e 0800     .m...m...m..~m..
 8009a9c:	1e84 0800 1918 0800 1918 0800 1e7a 0800     ............z...
 8009aac:	1918 0800 1918 0800 1918 0800 1918 0800     ................
 8009abc:	1918 0800 1918 0800 1e60 0800 1e54 0800     ........`...T...
 8009acc:	1918 0800 1e4a 0800 1e14 0800 1918 0800     ....J...........
 8009adc:	1e0a 0800 18f2 0800 18f2 0800 18f2 0800     ................
 8009aec:	18f2 0800 18f2 0800 18f2 0800 18f2 0800     ................
 8009afc:	18f2 0800 18f2 0800 1918 0800 1918 0800     ................
 8009b0c:	1918 0800 1918 0800 1918 0800 1918 0800     ................
 8009b1c:	1918 0800 1918 0800 1918 0800 1918 0800     ................
 8009b2c:	1d5c 0800 1918 0800 1918 0800 1918 0800     \...............
 8009b3c:	1918 0800 1918 0800 1918 0800 1918 0800     ................
 8009b4c:	1918 0800 1918 0800 1918 0800 1b22 0800     ............"...
 8009b5c:	1918 0800 1918 0800 1918 0800 1918 0800     ................
 8009b6c:	1918 0800 1ac4 0800 1918 0800 1918 0800     ................
 8009b7c:	1eae 0800 1918 0800 1918 0800 1918 0800     ................
 8009b8c:	1918 0800 1918 0800 1918 0800 1918 0800     ................
 8009b9c:	1918 0800 1918 0800 1918 0800 1e94 0800     ................
 8009bac:	1c74 0800 1918 0800 1918 0800 1918 0800     t...............
 8009bbc:	1cbe 0800 1c74 0800 1918 0800 1918 0800     ....t...........
 8009bcc:	1f12 0800 1918 0800 1ee6 0800 1b26 0800     ............&...
 8009bdc:	1f2a 0800 1f20 0800 1918 0800 1d1a 0800     *... ...........
 8009bec:	1918 0800 1ac8 0800 1918 0800 1918 0800     ................
 8009bfc:	1cc8 0800                                   ....

08009c00 <blanks.4823>:
 8009c00:	2020 2020 2020 2020 2020 2020 2020 2020                     

08009c10 <zeroes.4824>:
 8009c10:	3030 3030 3030 3030 3030 3030 3030 3030     0000000000000000

08009c20 <_ctype_>:
 8009c20:	2000 2020 2020 2020 2020 2828 2828 2028     .         ((((( 
 8009c30:	2020 2020 2020 2020 2020 2020 2020 2020                     
 8009c40:	8820 1010 1010 1010 1010 1010 1010 1010      ...............
 8009c50:	0410 0404 0404 0404 0404 1004 1010 1010     ................
 8009c60:	1010 4141 4141 4141 0101 0101 0101 0101     ..AAAAAA........
 8009c70:	0101 0101 0101 0101 0101 0101 1010 1010     ................
 8009c80:	1010 4242 4242 4242 0202 0202 0202 0202     ..BBBBBB........
 8009c90:	0202 0202 0202 0202 0202 0202 1010 1010     ................
 8009ca0:	0020 0000 0000 0000 0000 0000 0000 0000      ...............
	...

08009d24 <__global_locale>:
 8009d24:	0043 0000 0000 0000 0000 0000 0000 0000     C...............
	...
 8009d44:	0043 0000 0000 0000 0000 0000 0000 0000     C...............
	...
 8009d64:	0043 0000 0000 0000 0000 0000 0000 0000     C...............
	...
 8009d84:	0043 0000 0000 0000 0000 0000 0000 0000     C...............
	...
 8009da4:	0043 0000 0000 0000 0000 0000 0000 0000     C...............
	...
 8009dc4:	0043 0000 0000 0000 0000 0000 0000 0000     C...............
	...
 8009de4:	0043 0000 0000 0000 0000 0000 0000 0000     C...............
	...
 8009e04:	3a36 0800 33e8 0800 0000 0000 9c20 0800     6:...3...... ...
 8009e14:	a6f4 0800 a244 0800 a244 0800 a244 0800     ....D...D...D...
 8009e24:	a244 0800 a244 0800 a244 0800 a244 0800     D...D...D...D...
 8009e34:	a244 0800 a244 0800 ffff ffff ffff ffff     D...D...........
 8009e44:	ffff ffff ffff 0000 0001 5341 4943 0049     ..........ASCII.
	...
 8009e6c:	0000 5341 4943 0049 0000 0000 0000 0000     ..ASCII.........
	...

08009e90 <__clz_tab>:
 8009e90:	0100 0202 0303 0303 0404 0404 0404 0404     ................
 8009ea0:	0505 0505 0505 0505 0505 0505 0505 0505     ................
 8009eb0:	0606 0606 0606 0606 0606 0606 0606 0606     ................
 8009ec0:	0606 0606 0606 0606 0606 0606 0606 0606     ................
 8009ed0:	0707 0707 0707 0707 0707 0707 0707 0707     ................
 8009ee0:	0707 0707 0707 0707 0707 0707 0707 0707     ................
 8009ef0:	0707 0707 0707 0707 0707 0707 0707 0707     ................
 8009f00:	0707 0707 0707 0707 0707 0707 0707 0707     ................
 8009f10:	0808 0808 0808 0808 0808 0808 0808 0808     ................
 8009f20:	0808 0808 0808 0808 0808 0808 0808 0808     ................
 8009f30:	0808 0808 0808 0808 0808 0808 0808 0808     ................
 8009f40:	0808 0808 0808 0808 0808 0808 0808 0808     ................
 8009f50:	0808 0808 0808 0808 0808 0808 0808 0808     ................
 8009f60:	0808 0808 0808 0808 0808 0808 0808 0808     ................
 8009f70:	0808 0808 0808 0808 0808 0808 0808 0808     ................
 8009f80:	0808 0808 0808 0808 0808 0808 0808 0808     ................
 8009f90:	6b4f 250a 0a73 0000 534f 5420 6d69 7265     Ok.%s...OS Timer
 8009fa0:	6620 6572 2071 203d 6425 4820 0a7a 0000      freq = %d Hz...
 8009fb0:	7641 6961 616c 6c62 2065 6568 7061 2520     Available heap %
 8009fc0:	2064 756f 2074 666f 2520 2064 7942 6574     d out of %d Byte
 8009fd0:	0a73 0000 2a2a 412a 206e 7865 6563 7470     s...***An except
 8009fe0:	6f69 206e 7270 706f 6761 7461 6465 7420     ion propagated t
 8009ff0:	7268 756f 6867 6120 7420 7268 6165 0a64     hrough a thread.
 800a000:	0000 0000 6877 7461 2928 253a 0a73 0000     ....what():%s...
 800a010:	7453 7261 6974 676e 4b20 7265 656e 2e6c     Starting Kernel.
 800a020:	2e2e 0020 5b1b 4431 1b20 315b 0044 0000     .. ..[1D .[1D...

0800a030 <_ZTSN6miosix14TerminalDeviceE>:
 800a030:	364e 696d 736f 7869 3431 6554 6d72 6e69     N6miosix14Termin
 800a040:	6c61 6544 6976 6563 0045 0000               alDeviceE...

0800a04c <_ZTIN6miosix14TerminalDeviceE>:
 800a04c:	a5a4 0800 a030 0800 a2f8 0800               ....0.......

0800a058 <_ZTVN6miosix14TerminalDeviceE>:
 800a058:	0000 0000 a04c 0800 4a76 0800 4f6c 0800     ....L...vJ..lO..
 800a068:	49ce 0800 49fa 0800 49d4 0800 76ae 0800     .I...I...I...v..
 800a078:	4b34 0800 76c6 0800 4a04 0800 4bd2 0800     4K...v...J...K..

0800a088 <_ZTSN6miosix9IntrusiveE>:
 800a088:	364e 696d 736f 7869 4939 746e 7572 6973     N6miosix9Intrusi
 800a098:	6576 0045                                   veE.

0800a09c <_ZTSN6miosix19IntrusiveRefCountedE>:
 800a09c:	364e 696d 736f 7869 3931 6e49 7274 7375     N6miosix19Intrus
 800a0ac:	7669 5265 6665 6f43 6e75 6574 4564 0000     iveRefCountedE..

0800a0bc <_ZTIN6miosix19IntrusiveRefCountedE>:
 800a0bc:	a5a4 0800 a09c 0800 0878 2000               ........x.. 

0800a0c8 <_ZTSN6miosix33IntrusiveRefCountedSharedFromThisINS_6DeviceEEE>:
 800a0c8:	364e 696d 736f 7869 3333 6e49 7274 7375     N6miosix33Intrus
 800a0d8:	7669 5265 6665 6f43 6e75 6574 5364 6168     iveRefCountedSha
 800a0e8:	6572 4664 6f72 546d 6968 4973 534e 365f     redFromThisINS_6
 800a0f8:	6544 6976 6563 4545 0045 0000               DeviceEEE...

0800a104 <_ZTSN6miosix6DeviceE>:
 800a104:	364e 696d 736f 7869 4436 7665 6369 4565     N6miosix6DeviceE
 800a114:	0000 0000                                   ....

0800a118 <_ZTIN6miosix6DeviceE>:
 800a118:	a614 0800 a104 0800 0000 0000 0002 0000     ................
 800a128:	a0bc 0800 0402 0000 0880 2000 0002 0000     ........... ....

0800a138 <_ZTVN6miosix6DeviceE>:
 800a138:	0000 0000 a118 0800 51d2 0800 51d4 0800     .........Q...Q..
 800a148:	51c2 0800 51de 0800 51c8 0800 51cc 0800     .Q...Q...Q...Q..
 800a158:	51ce 0800 2a0a 2a2a 6e55 6168 646e 656c     .Q...***Unhandle
 800a168:	2064 7865 6563 7470 6f69 206e 6874 6f72     d exception thro
 800a178:	6e77 000a 6552 7563 7372 7669 2065 6e69     wn..Recursive in
 800a188:	7469 6169 696c 617a 6974 6e6f 0a0d 0000     itialization....
 800a198:	0a0d 2a2a 552a 656e 7078 6365 6574 2064     ..***Unexpected 
 800a1a8:	6e69 6574 7272 7075 0d74 000a 6572 6f62     interrupt...rebo
 800a1b8:	746f 6e69 0a67 0000 0a0d 2a2a 4f2a 7475     oting.....***Out
 800a1c8:	6f20 2066 656d 6f6d 7972 0a0d 0000 0000      of memory......
 800a1d8:	0a0d 2a2a 532a 6174 6b63 6f20 6576 6672     ..***Stack overf
 800a1e8:	6f6c 0d77 000a 0000 0a0d 2a2a 552a 656e     low.......***Une
 800a1f8:	7078 6365 6574 2064 7265 6f72 0d72 000a     xpected error...
 800a208:	0a0d 2a2a 502a 7561 6573 6b20 7265 656e     ..***Pause kerne
 800a218:	206c 656e 7473 6e69 0d67 000a 0a0d 2a2a     l nesting.....**
 800a228:	442a 7369 6261 656c 6920 746e 7265 7572     *Disable interru
 800a238:	7470 6e20 7365 6974 676e 0a0d 0000 0000     pt nesting......
 800a248:	0a0d 2a2a 442a 6165 6c64 636f 0d6b 000a     ..***Deadlock...
 800a258:	0a0d 2a2a 4e2a 7365 6974 676e 6f20 6576     ..***Nesting ove
 800a268:	6672 6f6c 0d77 000a 0a0d 2a2a 492a 746e     rflow.....***Int
 800a278:	7265 7572 7470 2073 6e65 6261 656c 2064     errupts enabled 
 800a288:	7461 6220 6f6f 0d74 000a 0000 6572 7573     at boot.....resu
 800a298:	746c 3d3e 0030 0000 6f76 6469 6d20 6f69     lt>=0...void mio
 800a2a8:	6973 3a78 463a 6c69 7365 7379 6574 426d     six::FilesystemB
 800a2b8:	7361 3a65 663a 6c69 4365 6f6c 6573 6f48     ase::fileCloseHo
 800a2c8:	6b6f 2928 0000 0000 6966 656c 7973 7473     ok()....filesyst
 800a2d8:	6d65 662f 6c69 2e65 7063 0070               em/file.cpp.

0800a2e4 <_ZTSN6miosix8FileBaseE>:
 800a2e4:	364e 696d 736f 7869 4638 6c69 4265 7361     N6miosix8FileBas
 800a2f4:	4565 0000                                   eE..

0800a2f8 <_ZTIN6miosix8FileBaseE>:
 800a2f8:	a614 0800 a2e4 0800 0000 0000 0001 0000     ................
 800a308:	a0bc 0800 0402 0000                         ........

0800a310 <_ZTVN6miosix8FileBaseE>:
 800a310:	0000 0000 a2f8 0800 8922 0800 8922 0800     ........"..."...
 800a320:	8922 0800 8922 0800 76aa 0800 76ae 0800     "..."....v...v..
 800a330:	76c2 0800 76c6 0800 0000 0000 0000 0000     .v...v..........

0800a340 <_ZTSN10__cxxabiv117__class_type_infoE>:
 800a340:	314e 5f30 635f 7878 6261 7669 3131 5f37     N10__cxxabiv117_
 800a350:	635f 616c 7373 745f 7079 5f65 6e69 6f66     _class_type_info
 800a360:	0045 0000                                   E...

0800a364 <_ZTIN10__cxxabiv117__class_type_infoE>:
 800a364:	a5a4 0800 a340 0800 08a0 2000               ....@...... 

0800a370 <_ZTVN10__cxxabiv117__class_type_infoE>:
 800a370:	0000 0000 a364 0800 7866 0800 7878 0800     ....d...fx..xx..
 800a380:	8b06 0800 8b06 0800 7984 0800 7824 0800     .........y..$x..
 800a390:	793c 0800 78a4 0800 785a 0800 7473 3a64     <y...x..Zx..std:
 800a3a0:	623a 6461 655f 6378 7065 6974 6e6f 0000     :bad_exception..

0800a3b0 <_ZTSSt9exception>:
 800a3b0:	7453 6539 6378 7065 6974 6e6f 0000 0000     St9exception....

0800a3c0 <_ZTSSt13bad_exception>:
 800a3c0:	7453 3331 6162 5f64 7865 6563 7470 6f69     St13bad_exceptio
 800a3d0:	006e 0000                                   n...

0800a3d4 <_ZTISt13bad_exception>:
 800a3d4:	a5a4 0800 a3c0 0800 0888 2000               ........... 

0800a3e0 <_ZTSN10__cxxabiv115__forced_unwindE>:
 800a3e0:	314e 5f30 635f 7878 6261 7669 3131 5f35     N10__cxxabiv115_
 800a3f0:	665f 726f 6563 5f64 6e75 6977 646e 0045     _forced_unwindE.

0800a400 <_ZTSN10__cxxabiv119__foreign_exceptionE>:
 800a400:	314e 5f30 635f 7878 6261 7669 3131 5f39     N10__cxxabiv119_
 800a410:	665f 726f 6965 6e67 655f 6378 7065 6974     _foreign_excepti
 800a420:	6e6f 0045                                   onE.

0800a424 <_ZTVSt13bad_exception>:
 800a424:	0000 0000 a3d4 0800 7b16 0800 7b22 0800     .........{.."{..
 800a434:	7b18 0800 7b96 0800 7c3c 0800 7c10 0800     .{...{..<|...|..
 800a444:	7b96 0800 7bea 0800 7ca2 0800 7ca2 0800     .{...{...|...|..
 800a454:	7ca2 0800 7ca2 0800 7c62 0800 7c24 0800     .|...|..b|..$|..
 800a464:	7b96 0800 7bea 0800 5f5f 6e67 5f75 7863     .{...{..__gnu_cx
 800a474:	3a78 5f3a 635f 6e6f 7563 7272 6e65 6563     x::__concurrence
 800a484:	6c5f 636f 5f6b 7265 6f72 0072 5f5f 6e67     _lock_error.__gn
 800a494:	5f75 7863 3a78 5f3a 635f 6e6f 7563 7272     u_cxx::__concurr
 800a4a4:	6e65 6563 755f 6c6e 636f 5f6b 7265 6f72     ence_unlock_erro
 800a4b4:	0072 0000                                   r...

0800a4b8 <_ZTSN9__gnu_cxx24__concurrence_lock_errorE>:
 800a4b8:	394e 5f5f 6e67 5f75 7863 3278 5f34 635f     N9__gnu_cxx24__c
 800a4c8:	6e6f 7563 7272 6e65 6563 6c5f 636f 5f6b     oncurrence_lock_
 800a4d8:	7265 6f72 4572 0000                         errorE..

0800a4e0 <_ZTIN9__gnu_cxx24__concurrence_lock_errorE>:
 800a4e0:	a5a4 0800 a4b8 0800 0888 2000               ........... 

0800a4ec <_ZTSN9__gnu_cxx26__concurrence_unlock_errorE>:
 800a4ec:	394e 5f5f 6e67 5f75 7863 3278 5f36 635f     N9__gnu_cxx26__c
 800a4fc:	6e6f 7563 7272 6e65 6563 755f 6c6e 636f     oncurrence_unloc
 800a50c:	5f6b 7265 6f72 4572 0000 0000               k_errorE....

0800a518 <_ZTIN9__gnu_cxx26__concurrence_unlock_errorE>:
 800a518:	a5a4 0800 a4ec 0800 0888 2000               ........... 

0800a524 <_ZTVN9__gnu_cxx24__concurrence_lock_errorE>:
 800a524:	0000 0000 a4e0 0800 844a 0800 846e 0800     ........J...n...
 800a534:	8436 0800                                   6...

0800a538 <_ZTVN9__gnu_cxx26__concurrence_unlock_errorE>:
 800a538:	0000 0000 a518 0800 845c 0800 849a 0800     ........\.......
 800a548:	8440 0800 7570 6572 7620 7269 7574 6c61     @...pure virtual
 800a558:	6d20 7465 6f68 2064 6163 6c6c 6465 000a      method called..

0800a568 <_ZTSN10__cxxabiv120__si_class_type_infoE>:
 800a568:	314e 5f30 635f 7878 6261 7669 3231 5f30     N10__cxxabiv120_
 800a578:	735f 5f69 6c63 7361 5f73 7974 6570 695f     _si_class_type_i
 800a588:	666e 456f 0000 0000                         nfoE....

0800a590 <_ZTIN10__cxxabiv120__si_class_type_infoE>:
 800a590:	a5a4 0800 a568 0800 a364 0800               ....h...d...

0800a59c <_ZTVN10__cxxabiv120__si_class_type_infoE>:
 800a59c:	0000 0000 a590 0800 8942 0800 8954 0800     ........B...T...
 800a5ac:	8b06 0800 8b06 0800 7984 0800 7824 0800     .........y..$x..
 800a5bc:	8aba 0800 89da 0800 8980 0800               ............

0800a5c8 <_ZTSSt9type_info>:
 800a5c8:	7453 7439 7079 5f65 6e69 6f66 0000 0000     St9type_info....

0800a5d8 <_ZTSN10__cxxabiv121__vmi_class_type_infoE>:
 800a5d8:	314e 5f30 635f 7878 6261 7669 3231 5f31     N10__cxxabiv121_
 800a5e8:	765f 696d 635f 616c 7373 745f 7079 5f65     _vmi_class_type_
 800a5f8:	6e69 6f66 0045 0000                         infoE...

0800a600 <_ZTIN10__cxxabiv121__vmi_class_type_infoE>:
 800a600:	a5a4 0800 a5d8 0800 a364 0800               ........d...

0800a60c <_ZTVN10__cxxabiv121__vmi_class_type_infoE>:
 800a60c:	0000 0000 a600 0800 8b0a 0800 8b1c 0800     ................
 800a61c:	8b06 0800 8b06 0800 7984 0800 7824 0800     .........y..$x..
 800a62c:	8ff8 0800 8c0c 0800 8b48 0800 7473 3a64     ........H...std:
 800a63c:	623a 6461 615f 6c6c 636f 0000               :bad_alloc..

0800a648 <_ZTSSt9bad_alloc>:
 800a648:	7453 6239 6461 615f 6c6c 636f 0000 0000     St9bad_alloc....

0800a658 <_ZTISt9bad_alloc>:
 800a658:	a5a4 0800 a648 0800 0888 2000               ....H...... 

0800a664 <_ZTVSt9bad_alloc>:
 800a664:	0000 0000 a658 0800 92e0 0800 92f2 0800     ....X...........
 800a674:	92d6 0800 202c 7566 636e 6974 6e6f 203a     ...., function: 
 800a684:	0000 0000 7361 6573 7472 6f69 206e 2522     ....assertion "%
 800a694:	2273 6620 6961 656c 3a64 6620 6c69 2065     s" failed: file 
 800a6a4:	2522 2273 202c 696c 656e 2520 2564 2573     "%s", line %d%s%
 800a6b4:	0a73 0000 3130 3332 3534 3736 3938 4241     s...0123456789AB
 800a6c4:	4443 4645 0000 0000 3130 3332 3534 3736     CDEF....01234567
 800a6d4:	3938 6261 6463 6665 0000 0000 6e28 6c75     89abcdef....(nul
 800a6e4:	296c 0000 0043 0000 4f50 4953 0058 0000     l)..C...POSIX...
 800a6f4:	002e 0000                                   ....

0800a6f8 <__miosix_init_array_start>:
 800a6f8:	6b22                	flw	fs6,8(sp)
 800a6fa:	0800                	addi	s0,sp,16

0800a6fc <__init_array_start>:
 800a6fc:	8764                	0x8764
 800a6fe:	0800                	addi	s0,sp,16
 800a700:	9696                	add	a3,a3,t0
 800a702:	0800                	addi	s0,sp,16
 800a704:	97fe                	add	a5,a5,t6
 800a706:	0800                	addi	s0,sp,16
